 buildresource

 Timestamp is 61ca51f1 (Mon Dec 27 23:53:21 2021)

 Preferred load address is 0000000140000000

 Start         Length     Name                   Class
 0001:00000000 00000970H .text$di                CODE
 0001:00000970 0018c9d0H .text$mn                CODE
 0001:0018d340 00000200H .text$mn$00             CODE
 0001:0018d540 00008670H .text$x                 CODE
 0001:00195bb0 00000155H .text$yd                CODE
 0002:00000000 000003d8H .idata$5                DATA
 0002:000003d8 00000028H .00cfg                  DATA
 0002:00000400 00000008H .CRT$XCA                DATA
 0002:00000408 00000008H .CRT$XCAA               DATA
 0002:00000410 00000130H .CRT$XCC                DATA
 0002:00000540 00000038H .CRT$XCL                DATA
 0002:00000578 00000030H .CRT$XCU                DATA
 0002:000005a8 00000008H .CRT$XCZ                DATA
 0002:000005b0 00000008H .CRT$XIA                DATA
 0002:000005b8 00000008H .CRT$XIAA               DATA
 0002:000005c0 00000008H .CRT$XIAC               DATA
 0002:000005c8 00000030H .CRT$XIC                DATA
 0002:000005f8 00000008H .CRT$XIZ                DATA
 0002:00000600 00000008H .CRT$XPA                DATA
 0002:00000608 00000010H .CRT$XPX                DATA
 0002:00000618 00000008H .CRT$XPXA               DATA
 0002:00000620 00000008H .CRT$XPZ                DATA
 0002:00000628 00000008H .CRT$XTA                DATA
 0002:00000630 00000010H .CRT$XTZ                DATA
 0002:00000638 00000000H .gehcont$y              DATA
 0002:00000638 00000000H .gfids$y                DATA
 0002:00000640 0003d440H .rdata                  DATA
 0002:0003da80 00000008H .rdata$CastGuardVftablesA DATA
 0002:0003da88 00000008H .rdata$CastGuardVftablesC DATA
 0002:0003da90 000038e4H .rdata$r                DATA
 0002:00041374 0000045cH .rdata$zzzdbg           DATA
 0002:000417d0 00000008H .rtc$IAA                DATA
 0002:000417d8 00000040H .rtc$IMZ                DATA
 0002:00041818 00000008H .rtc$IZZ                DATA
 0002:00041820 00000008H .rtc$TAA                DATA
 0002:00041828 00000040H .rtc$TMZ                DATA
 0002:00041868 00000008H .rtc$TZZ                DATA
 0002:00041870 00014250H .xdata                  DATA
 0002:00055ac0 00000694H .xdata$x                DATA
 0002:00056154 00000000H .edata                  DATA
 0002:00056154 00000050H .idata$2                DATA
 0002:000561a4 00000014H .idata$3                DATA
 0002:000561b8 000003d8H .idata$4                DATA
 0002:00056590 000008e6H .idata$6                DATA
 0003:00000000 000010c0H .data                   DATA
 0003:000010c0 00000f70H .data$r                 DATA
 0003:00002030 000007f0H .data$rs                DATA
 0003:00002820 00002618H .bss                    DATA
 0004:00000000 000144f0H .pdata                  DATA
 0005:00000000 00000660H .msvcjmc                DATA
 0006:00000000 00000094H _RDATA                  DATA
 0007:00000000 00000060H .rsrc$01                DATA
 0007:00000060 00000180H .rsrc$02                DATA

  Address         Publics by Value              Rva+Base               Lib:Object

 0000:00000000       __guard_iat_count          0000000000000000     <absolute>
 0000:00000000       __dynamic_value_reloc_table 0000000000000000     <absolute>
 0000:00000000       __guard_iat_table          0000000000000000     <absolute>
 0000:00000000       __hybrid_code_map_count    0000000000000000     <absolute>
 0000:00000000       __guard_eh_cont_count      0000000000000000     <absolute>
 0000:00000000       __arm64x_native_entrypoint 0000000000000000     <absolute>
 0000:00000000       __guard_eh_cont_table      0000000000000000     <absolute>
 0000:00000000       __AbsoluteZero             0000000000000000     <absolute>
 0000:00000000       ___safe_se_handler_count   0000000000000000     <absolute>
 0000:00000000       __arm64x_extra_rfe_table   0000000000000000     <absolute>
 0000:00000000       __enclave_config           0000000000000000     <absolute>
 0000:00000000       __hybrid_code_map          0000000000000000     <absolute>
 0000:00000000       __x64_code_ranges_to_entry_points 0000000000000000     <absolute>
 0000:00000000       __guard_fids_table         0000000000000000     <absolute>
 0000:00000000       __guard_longjmp_count      0000000000000000     <absolute>
 0000:00000000       __arm64x_redirection_metadata 0000000000000000     <absolute>
 0000:00000000       __x64_code_ranges_to_entry_points_count 0000000000000000     <absolute>
 0000:00000000       __guard_fids_count         0000000000000000     <absolute>
 0000:00000000       __arm64x_redirection_metadata_count 0000000000000000     <absolute>
 0000:00000000       __volatile_metadata        0000000000000000     <absolute>
 0000:00000000       __arm64x_extra_rfe_table_size 0000000000000000     <absolute>
 0000:00000000       ___safe_se_handler_table   0000000000000000     <absolute>
 0000:00000000       __hybrid_auxiliary_iat     0000000000000000     <absolute>
 0000:00000000       __guard_longjmp_table      0000000000000000     <absolute>
 0000:00000100       __guard_flags              0000000000000100     <absolute>
 0000:00000000       __ImageBase                0000000140000000     <linker-defined>
 0001:00000970       ?ShowHelp@@YAXXZ           0000000140001970 f   BuildResource.obj
 0001:000009b0       ?PopToken@@YA_NAEAV?$Queue@V?$basic_string@DU?$char_traits@D@std@@V?$allocator@D@2@@std@@$0CA@@ion@@AEAV?$basic_string@DU?$char_traits@D@std@@V?$allocator@D@2@@std@@AEBV34@_N@Z 00000001400019b0 f   BuildResource.obj
 0001:00000bb0       ?ParseCmdTexture@@YAHAEAV?$Queue@V?$basic_string@DU?$char_traits@D@std@@V?$allocator@D@2@@std@@$0CA@@ion@@@Z 0000000140001bb0 f   BuildResource.obj
 0001:00000f80       ?ParseCmdShader@@YAHAEAV?$Queue@V?$basic_string@DU?$char_traits@D@std@@V?$allocator@D@2@@std@@$0CA@@ion@@@Z 0000000140001f80 f   BuildResource.obj
 0001:00001730       main                       0000000140002730 f   BuildResource.obj
 0001:00001970       ??$?6U?$char_traits@D@std@@@std@@YAAEAV?$basic_ostream@DU?$char_traits@D@std@@@0@AEAV10@PEBD@Z 0000000140002970 f i BuildResource.obj
 0001:00001e00       ??$?8DU?$char_traits@D@std@@V?$allocator@D@1@@std@@YA_NAEBV?$basic_string@DU?$char_traits@D@std@@V?$allocator@D@2@@0@QEBD@Z 0000000140002e00 f i BuildResource.obj
 0001:00001e30       ??$_Alloc_proxy@V?$allocator@U_Container_proxy@std@@@std@@@_Container_base12@std@@QEAAX$$QEAV?$allocator@U_Container_proxy@std@@@1@@Z 0000000140002e30 f i BuildResource.obj
 0001:00001ee0       ??$_Allocate@$0BA@U_Default_allocate_traits@std@@$0A@@std@@YAPEAX_K@Z 0000000140002ee0 f i BuildResource.obj
 0001:00001f30       ??$_Allocate_manually_vector_aligned@U_Default_allocate_traits@std@@@std@@YAPEAX_K@Z 0000000140002f30 f i BuildResource.obj
 0001:00002040       ??$_Construct_in_place@PEADAEBQEAD@std@@YAXAEAPEADAEBQEAD@Z 0000000140003040 f i BuildResource.obj
 0001:00002090       ??$_Construct_in_place@U_Container_proxy@std@@PEAU_Container_base12@2@@std@@YAXAEAU_Container_proxy@0@$$QEAPEAU_Container_base12@0@@Z 0000000140003090 f i BuildResource.obj
 0001:00002100       ??$_Deallocate@$0BA@$0A@@std@@YAXPEAX_K@Z 0000000140003100 f i BuildResource.obj
 0001:00002150       ??$_Deallocate_plain@V?$allocator@U_Container_proxy@std@@@std@@@std@@YAXAEAV?$allocator@U_Container_proxy@std@@@0@QEAU_Container_proxy@0@@Z 0000000140003150 f i BuildResource.obj
 0001:00002190       ??$_Delete_plain_internal@V?$allocator@U_Container_proxy@std@@@std@@@std@@YAXAEAV?$allocator@U_Container_proxy@std@@@0@QEAU_Container_proxy@0@@Z 0000000140003190 f i BuildResource.obj
 0001:000021c0       ??$_Destroy_in_place@PEAD@std@@YAXAEAPEAD@Z 00000001400031c0 f i BuildResource.obj
 0001:000021e0       ??$_Destroy_range@V?$allocator@UShaderProgram@build@ion@@@std@@@std@@YAXPEAUShaderProgram@build@ion@@QEAU123@AEAV?$allocator@UShaderProgram@build@ion@@@0@@Z 00000001400031e0 f i BuildResource.obj
 0001:00002240       ??$_Emplace_back@UShaderProgram@build@ion@@@?$_Uninitialized_backout_al@V?$allocator@UShaderProgram@build@ion@@@std@@@std@@QEAAX$$QEAUShaderProgram@build@ion@@@Z 0000000140003240 f i BuildResource.obj
 0001:000022d0       ??$_Emplace_back_with_unused_capacity@AEBUShaderProgram@build@ion@@@?$vector@UShaderProgram@build@ion@@V?$allocator@UShaderProgram@build@ion@@@std@@@std@@AEAAXAEBUShaderProgram@build@ion@@@Z 00000001400032d0 f i BuildResource.obj
 0001:000023b0       ??$_Emplace_reallocate@AEBUShaderProgram@build@ion@@@?$vector@UShaderProgram@build@ion@@V?$allocator@UShaderProgram@build@ion@@@std@@@std@@QEAAPEAUShaderProgram@build@ion@@QEAU234@AEBU234@@Z 00000001400033b0 f i BuildResource.obj
 0001:000027e0       ??$_Get_unwrapped_n@AEAV?$_String_iterator@V?$_String_val@U?$_Simple_types@D@std@@@std@@@std@@_J@std@@YAPEADAEAV?$_String_iterator@V?$_String_val@U?$_Simple_types@D@std@@@std@@@0@_J@Z 00000001400037e0 f i BuildResource.obj
 0001:000028e0       ??$_Immortalize_memcpy_image@V_Iostream_error_category2@std@@@std@@YAAEBV_Iostream_error_category2@0@XZ 00000001400038e0 f i BuildResource.obj
 0001:00002900       ??$_Pocca@V?$allocator@D@std@@@std@@YAXAEAV?$allocator@D@0@AEBV10@@Z 0000000140003900 f i BuildResource.obj
 0001:00002920       ??$_Pocma@V?$allocator@D@std@@@std@@YAXAEAV?$allocator@D@0@0@Z 0000000140003920 f i BuildResource.obj
 0001:00002940       ??$_Reallocate_for@V<lambda_66f57f934f28d61049862f64df852ff0>@@PEBD@?$basic_string@DU?$char_traits@D@std@@V?$allocator@D@2@@std@@AEAAAEAV01@_KV<lambda_66f57f934f28d61049862f64df852ff0>@@PEBD@Z 0000000140003940 f i BuildResource.obj
 0001:00002ad0       ??$_Reallocate_grow_by@V<lambda_65e615be2a453ca0576c979606f46740>@@PEBD_K@?$basic_string@DU?$char_traits@D@std@@V?$allocator@D@2@@std@@AEAAAEAV01@_KV<lambda_65e615be2a453ca0576c979606f46740>@@PEBD_K@Z 0000000140003ad0 f i BuildResource.obj
 0001:00002d50       ??$_Refancy@PEAD$0A@@std@@YAPEADPEAD@Z 0000000140003d50 f i BuildResource.obj
 0001:00002d70       ??$_Refancy@PEBD$0A@@std@@YAPEBDPEBD@Z 0000000140003d70 f i BuildResource.obj
 0001:00002d90       ??$_Traits_rfind_ch@U?$char_traits@D@std@@@std@@YA_KQEBD_K1D@Z 0000000140003d90 f i BuildResource.obj
 0001:00002e90       ??$_Uninitialized_move@PEAUShaderProgram@build@ion@@V?$allocator@UShaderProgram@build@ion@@@std@@@std@@YAPEAUShaderProgram@build@ion@@QEAU123@0PEAU123@AEAV?$allocator@UShaderProgram@build@ion@@@0@@Z 0000000140003e90 f i BuildResource.obj
 0001:00002f60       ??$_Verify_range@D@std@@YAXQEBD0@Z 0000000140003f60 f i BuildResource.obj
 0001:00003000       ??$emplace_back@AEBUShaderProgram@build@ion@@@?$vector@UShaderProgram@build@ion@@V?$allocator@UShaderProgram@build@ion@@@std@@@std@@QEAAXAEBUShaderProgram@build@ion@@@Z 0000000140004000 f i BuildResource.obj
 0001:00003090       ??$endl@DU?$char_traits@D@std@@@std@@YAAEAV?$basic_ostream@DU?$char_traits@D@std@@@0@AEAV10@@Z 0000000140004090 f i BuildResource.obj
 0001:000030f0       ??$transform@V?$_String_iterator@V?$_String_val@U?$_Simple_types@D@std@@@std@@@std@@V12@P6AHH@Z@std@@YA?AV?$_String_iterator@V?$_String_val@U?$_Simple_types@D@std@@@std@@@0@V10@0V10@P6AHH@Z@Z 00000001400040f0 f i BuildResource.obj
 0001:00003310       ??$use_facet@V?$ctype@D@std@@@std@@YAAEBV?$ctype@D@0@AEBVlocale@0@@Z 0000000140004310 f i BuildResource.obj
 0001:00003490       ??0?$Queue@V?$basic_string@DU?$char_traits@D@std@@V?$allocator@D@2@@std@@$0CA@@ion@@QEAA@XZ 0000000140004490 f i BuildResource.obj
 0001:00003500       ??0?$_Container_proxy_ptr12@V?$allocator@U_Container_proxy@std@@@std@@@std@@QEAA@AEAV?$allocator@U_Container_proxy@std@@@1@AEAU_Container_base12@1@@Z 0000000140004500 f i BuildResource.obj
 0001:000035c0       ??0?$basic_string@DU?$char_traits@D@std@@V?$allocator@D@2@@std@@QEAA@$$QEAV01@@Z 00000001400045c0 f i BuildResource.obj
 0001:00003690       ??0?$basic_string@DU?$char_traits@D@std@@V?$allocator@D@2@@std@@QEAA@AEBV01@@Z 0000000140004690 f i BuildResource.obj
 0001:00003780       ??0?$basic_string@DU?$char_traits@D@std@@V?$allocator@D@2@@std@@QEAA@AEBV01@_K1AEBV?$allocator@D@1@@Z 0000000140004780 f i BuildResource.obj
 0001:000038a0       ??0?$basic_string@DU?$char_traits@D@std@@V?$allocator@D@2@@std@@QEAA@QEBD@Z 00000001400048a0 f i BuildResource.obj
 0001:00003a00       ??0?$basic_string@DU?$char_traits@D@std@@V?$allocator@D@2@@std@@QEAA@QEBD_K@Z 0000000140004a00 f i BuildResource.obj
 0001:00003b10       ??0?$basic_string@DU?$char_traits@D@std@@V?$allocator@D@2@@std@@QEAA@XZ 0000000140004b10 f i BuildResource.obj
 0001:00003bd0       ??0?$vector@UShaderProgram@build@ion@@V?$allocator@UShaderProgram@build@ion@@@std@@@std@@QEAA@XZ 0000000140004bd0 f i BuildResource.obj
 0001:00003c60       ??0ShaderProgram@build@ion@@QEAA@$$QEAU012@@Z 0000000140004c60 f i BuildResource.obj
 0001:00003ce0       ??0ShaderProgram@build@ion@@QEAA@AEBU012@@Z 0000000140004ce0 f i BuildResource.obj
 0001:00003d60       ??0ShaderProgram@build@ion@@QEAA@XZ 0000000140004d60 f i BuildResource.obj
 0001:00003db0       ??0_Locinfo@std@@QEAA@PEBD@Z 0000000140004db0 f i BuildResource.obj
 0001:00003ee0       ??0_System_error@std@@IEAA@Verror_code@1@AEBV?$basic_string@DU?$char_traits@D@std@@V?$allocator@D@2@@1@@Z 0000000140004ee0 f i BuildResource.obj
 0001:00003ff0       ??0_System_error@std@@QEAA@AEBV01@@Z 0000000140004ff0 f i BuildResource.obj
 0001:00004050       ??0bad_alloc@std@@QEAA@AEBV01@@Z 0000000140005050 f i BuildResource.obj
 0001:000040c0       ??0bad_array_new_length@std@@QEAA@AEBV01@@Z 00000001400050c0 f i BuildResource.obj
 0001:00004100       ??0bad_array_new_length@std@@QEAA@XZ 0000000140005100 f i BuildResource.obj
 0001:00004180       ??0bad_cast@std@@QEAA@AEBV01@@Z 0000000140005180 f i BuildResource.obj
 0001:000041f0       ??0bad_cast@std@@QEAA@XZ   00000001400051f0 f i BuildResource.obj
 0001:00004260       ??0exception@std@@QEAA@AEBV01@@Z 0000000140005260 f i BuildResource.obj
 0001:000042d0       ??0exception@std@@QEAA@QEBD@Z 00000001400052d0 f i BuildResource.obj
 0001:00004340       ??0failure@ios_base@std@@QEAA@AEBV012@@Z 0000000140005340 f i BuildResource.obj
 0001:000043c0       ??0failure@ios_base@std@@QEAA@PEBDAEBVerror_code@2@@Z 00000001400053c0 f i BuildResource.obj
 0001:000044a0       ??0runtime_error@std@@QEAA@AEBV01@@Z 00000001400054a0 f i BuildResource.obj
 0001:00004510       ??0runtime_error@std@@QEAA@AEBV?$basic_string@DU?$char_traits@D@std@@V?$allocator@D@2@@1@@Z 0000000140005510 f i BuildResource.obj
 0001:000045d0       ??0sentry@?$basic_ostream@DU?$char_traits@D@std@@@std@@QEAA@AEAV12@@Z 00000001400055d0 f i BuildResource.obj
 0001:00004710       ??0system_error@std@@QEAA@AEBV01@@Z 0000000140005710 f i BuildResource.obj
 0001:00004780       ??1?$Queue@V?$basic_string@DU?$char_traits@D@std@@V?$allocator@D@2@@std@@$0CA@@ion@@QEAA@XZ 0000000140005780 f i BuildResource.obj
 0001:000047c0       ??1?$_Compressed_pair@V?$allocator@D@std@@V?$_String_val@U?$_Simple_types@D@std@@@2@$00@std@@QEAA@XZ 00000001400057c0 f i BuildResource.obj
 0001:000047d0       ??1?$_Container_proxy_ptr12@V?$allocator@U_Container_proxy@std@@@std@@@std@@QEAA@XZ 00000001400057d0 f i BuildResource.obj
 0001:00004810       ??1?$_String_iterator@V?$_String_val@U?$_Simple_types@D@std@@@std@@@std@@QEAA@XZ 0000000140005810 f i BuildResource.obj
 0001:00004850       ??1?$_Uninitialized_backout_al@V?$allocator@UShaderProgram@build@ion@@@std@@@std@@QEAA@XZ 0000000140005850 f i BuildResource.obj
 0001:00004890       ??1?$_Yarn@D@std@@QEAA@XZ  0000000140005890 f i BuildResource.obj
 0001:000048e0       ??1?$_Yarn@_W@std@@QEAA@XZ 00000001400058e0 f i BuildResource.obj
 0001:00004930       ??1?$basic_string@DU?$char_traits@D@std@@V?$allocator@D@2@@std@@QEAA@XZ 0000000140005930 f i BuildResource.obj
 0001:000049a0       ??1?$unique_ptr@V_Facet_base@std@@U?$default_delete@V_Facet_base@std@@@2@@std@@QEAA@XZ 00000001400059a0 f i BuildResource.obj
 0001:00004a20       ??1?$vector@UShaderProgram@build@ion@@V?$allocator@UShaderProgram@build@ion@@@std@@@std@@QEAA@XZ 0000000140005a20 f i BuildResource.obj
 0001:00004ab0       ??1ShaderProgram@build@ion@@QEAA@XZ 0000000140005ab0 f i BuildResource.obj
 0001:00004b00       ??1_Locinfo@std@@QEAA@XZ   0000000140005b00 f i BuildResource.obj
 0001:00004c80       ??1_Sentry_base@?$basic_ostream@DU?$char_traits@D@std@@@std@@QEAA@XZ 0000000140005c80 f i BuildResource.obj
 0001:00004ce0       ??1bad_array_new_length@std@@UEAA@XZ 0000000140005ce0 f i BuildResource.obj
 0001:00004d10       ??1bad_cast@std@@UEAA@XZ   0000000140005d10 f i BuildResource.obj
 0001:00004d40       ??1failure@ios_base@std@@UEAA@XZ 0000000140005d40 f i BuildResource.obj
 0001:00004d70       ??1locale@std@@QEAA@XZ     0000000140005d70 f i BuildResource.obj
 0001:00004de0       ??1sentry@?$basic_ostream@DU?$char_traits@D@std@@@std@@QEAA@XZ 0000000140005de0 f i BuildResource.obj
 0001:00004e80       ??2_Crt_new_delete@std@@SAPEAX_K@Z 0000000140005e80 f i BuildResource.obj
 0001:00004ef0       ??3_Crt_new_delete@std@@SAXPEAX@Z 0000000140005ef0 f i BuildResource.obj
 0001:00004f20       ??4_Iterator_base12@std@@QEAAAEAU01@AEBU01@@Z 0000000140005f20 f i BuildResource.obj
 0001:00004fa0       ??Bid@locale@std@@QEAA_KXZ 0000000140005fa0 f i BuildResource.obj
 0001:00005010       ??_E?$ctype@D@std@@MEAAPEAXI@Z 0000000140006010 f i BuildResource.obj
 0001:00005010       ??_G?$ctype@D@std@@MEAAPEAXI@Z 0000000140006010 f i BuildResource.obj
 0001:000050a0       ??_GShaderProgram@build@ion@@QEAAPEAXI@Z 00000001400060a0 f i BuildResource.obj
 0001:00005110       ??_G_Facet_base@std@@UEAAPEAXI@Z 0000000140006110 f i BuildResource.obj
 0001:00005110       ??_E_Facet_base@std@@UEAAPEAXI@Z 0000000140006110 f i BuildResource.obj
 0001:00005150       ??_E_Iostream_error_category2@std@@UEAAPEAXI@Z 0000000140006150 f i BuildResource.obj
 0001:00005150       ??_G_Iostream_error_category2@std@@UEAAPEAXI@Z 0000000140006150 f i BuildResource.obj
 0001:00005190       ??_G_System_error@std@@UEAAPEAXI@Z 0000000140006190 f i BuildResource.obj
 0001:00005190       ??_E_System_error@std@@UEAAPEAXI@Z 0000000140006190 f i BuildResource.obj
 0001:000051f0       ??_Gbad_alloc@std@@UEAAPEAXI@Z 00000001400061f0 f i BuildResource.obj
 0001:000051f0       ??_Ebad_alloc@std@@UEAAPEAXI@Z 00000001400061f0 f i BuildResource.obj
 0001:00005250       ??_Gbad_array_new_length@std@@UEAAPEAXI@Z 0000000140006250 f i BuildResource.obj
 0001:00005250       ??_Ebad_array_new_length@std@@UEAAPEAXI@Z 0000000140006250 f i BuildResource.obj
 0001:000052b0       ??_Ebad_cast@std@@UEAAPEAXI@Z 00000001400062b0 f i BuildResource.obj
 0001:000052b0       ??_Gbad_cast@std@@UEAAPEAXI@Z 00000001400062b0 f i BuildResource.obj
 0001:00005310       ??_Ectype_base@std@@UEAAPEAXI@Z 0000000140006310 f i BuildResource.obj
 0001:00005310       ??_Gctype_base@std@@UEAAPEAXI@Z 0000000140006310 f i BuildResource.obj
 0001:00005390       ??_Gexception@std@@UEAAPEAXI@Z 0000000140006390 f i BuildResource.obj
 0001:00005390       ??_Eexception@std@@UEAAPEAXI@Z 0000000140006390 f i BuildResource.obj
 0001:000053f0       ??_Efacet@locale@std@@MEAAPEAXI@Z 00000001400063f0 f i BuildResource.obj
 0001:000053f0       ??_Gfacet@locale@std@@MEAAPEAXI@Z 00000001400063f0 f i BuildResource.obj
 0001:00005460       ??_Efailure@ios_base@std@@UEAAPEAXI@Z 0000000140006460 f i BuildResource.obj
 0001:00005460       ??_Gfailure@ios_base@std@@UEAAPEAXI@Z 0000000140006460 f i BuildResource.obj
 0001:000054c0       ??_Eruntime_error@std@@UEAAPEAXI@Z 00000001400064c0 f i BuildResource.obj
 0001:000054c0       ??_Gruntime_error@std@@UEAAPEAXI@Z 00000001400064c0 f i BuildResource.obj
 0001:00005520       ??_Gsystem_error@std@@UEAAPEAXI@Z 0000000140006520 f i BuildResource.obj
 0001:00005520       ??_Esystem_error@std@@UEAAPEAXI@Z 0000000140006520 f i BuildResource.obj
 0001:00005580       ?IsEmpty@?$Queue@V?$basic_string@DU?$char_traits@D@std@@V?$allocator@D@2@@std@@$0CA@@ion@@QEBA_NXZ 0000000140006580 f i BuildResource.obj
 0001:000055d0       ?Pop@?$Queue@V?$basic_string@DU?$char_traits@D@std@@V?$allocator@D@2@@std@@$0CA@@ion@@QEAA?AV?$basic_string@DU?$char_traits@D@std@@V?$allocator@D@2@@std@@XZ 00000001400065d0 f i BuildResource.obj
 0001:00005690       ?Push@?$Queue@V?$basic_string@DU?$char_traits@D@std@@V?$allocator@D@2@@std@@$0CA@@ion@@QEAAXAEAV?$basic_string@DU?$char_traits@D@std@@V?$allocator@D@2@@std@@@Z 0000000140006690 f i BuildResource.obj
 0001:00005740       ?_Adjust_manually_vector_aligned@std@@YAXAEAPEAXAEA_K@Z 0000000140006740 f i BuildResource.obj
 0001:000058e0       ?_Adopt@_Iterator_base12@std@@QEAAXPEBU_Container_base12@2@@Z 00000001400068e0 f i BuildResource.obj
 0001:000059a0       ?_Calculate_growth@?$basic_string@DU?$char_traits@D@std@@V?$allocator@D@2@@std@@AEBA_K_K@Z 00000001400069a0 f i BuildResource.obj
 0001:00005aa0       ?_Calculate_growth@?$basic_string@DU?$char_traits@D@std@@V?$allocator@D@2@@std@@CA_K_K00@Z 0000000140006aa0 f i BuildResource.obj
 0001:00005b70       ?_Calculate_growth@?$vector@UShaderProgram@build@ion@@V?$allocator@UShaderProgram@build@ion@@@std@@@std@@AEBA_K_K@Z 0000000140006b70 f i BuildResource.obj
 0001:00005cb0       ?_Change_array@?$vector@UShaderProgram@build@ion@@V?$allocator@UShaderProgram@build@ion@@@std@@@std@@AEAAXQEAUShaderProgram@build@ion@@_K1@Z 0000000140006cb0 f i BuildResource.obj
 0001:00005e20       ?_Construct_lv_contents@?$basic_string@DU?$char_traits@D@std@@V?$allocator@D@2@@std@@AEAAXAEBV12@@Z 0000000140006e20 f i BuildResource.obj
 0001:00005fe0       ?_Copy_assign@?$basic_string@DU?$char_traits@D@std@@V?$allocator@D@2@@std@@AEAAXAEBV12@U?$integral_constant@_N$0A@@2@@Z 0000000140006fe0 f i BuildResource.obj
 0001:000060d0       ?_Decref@facet@locale@std@@UEAAPEAV_Facet_base@3@XZ 00000001400070d0 f i BuildResource.obj
 0001:00006110       ?_Destroy@?$vector@UShaderProgram@build@ion@@V?$allocator@UShaderProgram@build@ion@@@std@@@std@@AEAAXPEAUShaderProgram@build@ion@@0@Z 0000000140007110 f i BuildResource.obj
 0001:00006160       ?_Equal@?$basic_string@DU?$char_traits@D@std@@V?$allocator@D@2@@std@@QEBA_NQEBD@Z 0000000140007160 f i BuildResource.obj
 0001:00006290       ?_Getcat@?$ctype@D@std@@SA_KPEAPEBVfacet@locale@2@PEBV42@@Z 0000000140007290 f i BuildResource.obj
 0001:00006480       ?_Getfacet@locale@std@@QEBAPEBVfacet@12@_K@Z 0000000140007480 f i BuildResource.obj
 0001:00006540       ?_Incref@facet@locale@std@@UEAAXXZ 0000000140007540 f i BuildResource.obj
 0001:00006570       ?_Makestr@_System_error@std@@CA?AV?$basic_string@DU?$char_traits@D@std@@V?$allocator@D@2@@2@Verror_code@2@V32@@Z 0000000140007570 f i BuildResource.obj
 0001:00006710       ?_Move_assign@?$basic_string@DU?$char_traits@D@std@@V?$allocator@D@2@@std@@AEAAXAEAV12@U_Equal_allocators@2@@Z 0000000140007710 f i BuildResource.obj
 0001:000067a0       ?_Myptr@?$_String_val@U?$_Simple_types@D@std@@@std@@QEAAPEADXZ 00000001400077a0 f i BuildResource.obj
 0001:00006820       ?_Myptr@?$_String_val@U?$_Simple_types@D@std@@@std@@QEBAPEBDXZ 0000000140007820 f i BuildResource.obj
 0001:000068a0       ?_Orphan_all@_Container_base12@std@@QEAAXXZ 00000001400078a0 f i BuildResource.obj
 0001:00006940       ?_Orphan_me@_Iterator_base12@std@@QEAAXXZ 0000000140007940 f i BuildResource.obj
 0001:00006a40       ?_Orphan_range@?$vector@UShaderProgram@build@ion@@V?$allocator@UShaderProgram@build@ion@@@std@@@std@@AEBAXPEAUShaderProgram@build@ion@@0@Z 0000000140007a40 f i BuildResource.obj
 0001:00006b00       ?_Osfx@?$basic_ostream@DU?$char_traits@D@std@@@std@@QEAAXXZ 0000000140007b00 f i BuildResource.obj
 0001:00006c20       ?_Pninc@?$basic_streambuf@DU?$char_traits@D@std@@@std@@IEAAPEADXZ 0000000140007c20 f i BuildResource.obj
 0001:00006c90       ?_Swap_proxy_and_iterators@_Container_base12@std@@QEAAXAEAU12@@Z 0000000140007c90 f i BuildResource.obj
 0001:00006d30       ?_Take_contents@?$basic_string@DU?$char_traits@D@std@@V?$allocator@D@2@@std@@AEAAXAEAV12@U?$integral_constant@_N$00@2@@Z 0000000140007d30 f i BuildResource.obj
 0001:00006e20       ?_Throw_bad_array_new_length@std@@YAXXZ 0000000140007e20 f i BuildResource.obj
 0001:00006e50       ?_Throw_bad_cast@std@@YAXXZ 0000000140007e50 f i BuildResource.obj
 0001:00006e80       ?_Tidy@?$ctype@D@std@@IEAAXXZ 0000000140007e80 f i BuildResource.obj
 0001:00006ef0       ?_Tidy@?$vector@UShaderProgram@build@ion@@V?$allocator@UShaderProgram@build@ion@@@std@@@std@@AEAAXXZ 0000000140007ef0 f i BuildResource.obj
 0001:00007020       ?_Tidy_deallocate@?$basic_string@DU?$char_traits@D@std@@V?$allocator@D@2@@std@@AEAAXXZ 0000000140008020 f i BuildResource.obj
 0001:00007100       ?_Verify_offset@?$_String_const_iterator@V?$_String_val@U?$_Simple_types@D@std@@@std@@@std@@QEBAX_J@Z 0000000140008100 f i BuildResource.obj
 0001:00007430       ?_Verify_range@std@@YAXAEBV?$_String_const_iterator@V?$_String_val@U?$_Simple_types@D@std@@@std@@@1@0@Z 0000000140008430 f i BuildResource.obj
 0001:000075c0       ?_Xlen_string@std@@YAXXZ   00000001400085c0 f i BuildResource.obj
 0001:000075f0       ?_Xlength@?$vector@UShaderProgram@build@ion@@V?$allocator@UShaderProgram@build@ion@@@std@@@std@@CAXXZ 00000001400085f0 f i BuildResource.obj
 0001:00007620       ?_Xran@?$_String_val@U?$_Simple_types@D@std@@@std@@SAXXZ 0000000140008620 f i BuildResource.obj
 0001:00007650       ?__empty_global_delete@@YAXPEAX@Z 0000000140008650 f i BuildResource.obj
 0001:00007670       ?__empty_global_delete@@YAXPEAX_K@Z 0000000140008670 f i BuildResource.obj
 0001:00007670       ?__global_delete@@YAXPEAX_K@Z 0000000140008670 f i BuildResource.obj
 0001:00007690       ?append@?$basic_string@DU?$char_traits@D@std@@V?$allocator@D@2@@std@@QEAAAEAV12@AEBV12@@Z 0000000140008690 f i BuildResource.obj
 0001:000076e0       ?append@?$basic_string@DU?$char_traits@D@std@@V?$allocator@D@2@@std@@QEAAAEAV12@QEBD_K@Z 00000001400086e0 f i BuildResource.obj
 0001:000077e0       ?assign@?$basic_string@DU?$char_traits@D@std@@V?$allocator@D@2@@std@@QEAAAEAV12@AEBV12@_K_K@Z 00000001400087e0 f i BuildResource.obj
 0001:00007930       ?assign@?$basic_string@DU?$char_traits@D@std@@V?$allocator@D@2@@std@@QEAAAEAV12@QEBD_K@Z 0000000140008930 f i BuildResource.obj
 0001:000079f0       ?begin@?$basic_string@DU?$char_traits@D@std@@V?$allocator@D@2@@std@@QEAA?AV?$_String_iterator@V?$_String_val@U?$_Simple_types@D@std@@@std@@@2@XZ 00000001400089f0 f i BuildResource.obj
 0001:00007ad0       ?clear@ios_base@std@@QEAAXH_N@Z 0000000140008ad0 f i BuildResource.obj
 0001:00007bc0       ?deallocate@?$allocator@UShaderProgram@build@ion@@@std@@QEAAXQEAUShaderProgram@build@ion@@_K@Z 0000000140008bc0 f i BuildResource.obj
 0001:00007c00       ?default_error_condition@error_category@std@@UEBA?AVerror_condition@2@H@Z 0000000140008c00 f i BuildResource.obj
 0001:00007c50       ?do_narrow@?$ctype@D@std@@MEBADDD@Z 0000000140008c50 f i BuildResource.obj
 0001:00007c80       ?do_narrow@?$ctype@D@std@@MEBAPEBDPEBD0DPEAD@Z 0000000140008c80 f i BuildResource.obj
 0001:00007ce0       ?do_tolower@?$ctype@D@std@@MEBADD@Z 0000000140008ce0 f i BuildResource.obj
 0001:00007d20       ?do_tolower@?$ctype@D@std@@MEBAPEBDPEADPEBD@Z 0000000140008d20 f i BuildResource.obj
 0001:00007da0       ?do_toupper@?$ctype@D@std@@MEBADD@Z 0000000140008da0 f i BuildResource.obj
 0001:00007de0       ?do_toupper@?$ctype@D@std@@MEBAPEBDPEADPEBD@Z 0000000140008de0 f i BuildResource.obj
 0001:00007e60       ?do_widen@?$ctype@D@std@@MEBADD@Z 0000000140008e60 f i BuildResource.obj
 0001:00007e90       ?do_widen@?$ctype@D@std@@MEBAPEBDPEBD0PEAD@Z 0000000140008e90 f i BuildResource.obj
 0001:00007ef0       ?end@?$basic_string@DU?$char_traits@D@std@@V?$allocator@D@2@@std@@QEAA?AV?$_String_iterator@V?$_String_val@U?$_Simple_types@D@std@@@std@@@2@XZ 0000000140008ef0 f i BuildResource.obj
 0001:00007fe0       ?equivalent@error_category@std@@UEBA_NAEBVerror_code@2@H@Z 0000000140008fe0 f i BuildResource.obj
 0001:00008080       ?equivalent@error_category@std@@UEBA_NHAEBVerror_condition@2@@Z 0000000140009080 f i BuildResource.obj
 0001:00008160       ?flush@?$basic_ostream@DU?$char_traits@D@std@@@std@@QEAAAEAV12@XZ 0000000140009160 f i BuildResource.obj
 0001:00008250       ?make_error_code@std@@YA?AVerror_code@1@W4io_errc@1@@Z 0000000140009250 f i BuildResource.obj
 0001:000082a0       ?max_size@?$basic_string@DU?$char_traits@D@std@@V?$allocator@D@2@@std@@QEBA_KXZ 00000001400092a0 f i BuildResource.obj
 0001:000083a0       ?message@_Iostream_error_category2@std@@UEBA?AV?$basic_string@DU?$char_traits@D@std@@V?$allocator@D@2@@2@H@Z 00000001400093a0 f i BuildResource.obj
 0001:00008430       ?name@_Iostream_error_category2@std@@UEBAPEBDXZ 0000000140009430 f i BuildResource.obj
 0001:00008460       ?put@?$basic_ostream@DU?$char_traits@D@std@@@std@@QEAAAEAV12@D@Z 0000000140009460 f i BuildResource.obj
 0001:000085d0       ?sputc@?$basic_streambuf@DU?$char_traits@D@std@@@std@@QEAAHD@Z 00000001400095d0 f i BuildResource.obj
 0001:00008680       ?what@exception@std@@UEBAPEBDXZ 0000000140009680 f i BuildResource.obj
 0001:000086d0       ?widen@?$basic_ios@DU?$char_traits@D@std@@@std@@QEBADD@Z 00000001400096d0 f i BuildResource.obj
 0001:00008770       __JustMyCode_Default       0000000140009770 f i BuildResource.obj
 0001:00008780       ?Create@Shader@render@ion@@SAPEAV123@XZ 0000000140009780 f   BuildShader.obj
 0001:00008800       ?RegisterSerialiseType@Shader@render@ion@@SAXAEAVArchive@io@3@@Z 0000000140009800 f   BuildShader.obj
 0001:00008870       ?BuildShader@build@ion@@YAHAEBV?$basic_string@DU?$char_traits@D@std@@V?$allocator@D@2@@std@@AEBV?$vector@UShaderProgram@build@ion@@V?$allocator@UShaderProgram@build@ion@@@std@@@4@@Z 0000000140009870 f   BuildShader.obj
 0001:00008e20       ??$?0AEBUpiecewise_construct_t@std@@V?$tuple@AEBV?$basic_string@DU?$char_traits@D@std@@V?$allocator@D@2@@std@@@1@V?$tuple@$$V@1@@?$_Tree_temp_node@V?$allocator@U?$_Tree_node@U?$pair@$$CBV?$basic_string@DU?$char_traits@D@std@@V?$allocator@D@2@@std@@PEAUPointerMappingBase@Archive@io@ion@@@std@@PEAX@std@@@std@@@std@@QEAA@AEAV?$allocator@U?$_Tree_node@U?$pair@$$CBV?$basic_string@DU?$char_traits@D@std@@V?$allocator@D@2@@std@@PEAUPointerMappingBase@Archive@io@ion@@@std@@PEAX@std@@@1@PEAU?$_Tree_node@U?$pair@$$CBV?$basic_string@DU?$char_traits@D@std@@V?$allocator@D@2@@std@@PEAUPointerMappingBase@Archive@io@ion@@@std@@PEAX@1@AEBUpiecewise_construct_t@1@$$QEAV?$tuple@AEBV?$basic_string@DU?$char_traits@D@std@@V?$allocator@D@2@@std@@@1@$$QEAV?$tuple@$$V@1@@Z 0000000140009e20 f i BuildShader.obj
 0001:00008fd0       ??$?0AEBV?$basic_string@DU?$char_traits@D@std@@V?$allocator@D@2@@std@@$$Z$$V@?$pair@$$CBV?$basic_string@DU?$char_traits@D@std@@V?$allocator@D@2@@std@@PEAUPointerMappingBase@Archive@io@ion@@@std@@QEAA@Upiecewise_construct_t@1@V?$tuple@AEBV?$basic_string@DU?$char_traits@D@std@@V?$allocator@D@2@@std@@@1@V?$tuple@$$V@1@@Z 0000000140009fd0 f i BuildShader.obj
 0001:00009070       ??$?MDU?$char_traits@D@std@@V?$allocator@D@1@@std@@YA_NAEBV?$basic_string@DU?$char_traits@D@std@@V?$allocator@D@2@@0@0@Z 000000014000a070 f i BuildShader.obj
 0001:000090c0       ??$ConstructAndSerialiseObject@VShader@render@ion@@@Archive@io@ion@@QEAAPEAVShader@render@2@V?$basic_string@DU?$char_traits@D@std@@V?$allocator@D@2@@std@@@Z 000000014000a0c0 f i BuildShader.obj
 0001:00009350       ??$RegisterPointerTypeStrict@VShader@render@ion@@VShaderResource@23@@Archive@io@ion@@QEAAXAEBV?$basic_string@DU?$char_traits@D@std@@V?$allocator@D@2@@std@@@Z 000000014000a350 f i BuildShader.obj
 0001:00009650       ??$Serialise@V?$basic_string@DU?$char_traits@D@std@@V?$allocator@D@2@@std@@@Archive@io@ion@@QEAAXAEAV?$basic_string@DU?$char_traits@D@std@@V?$allocator@D@2@@std@@AEBUTag@012@@Z 000000014000a650 f i BuildShader.obj
 0001:000096b0       ??$Serialise@VShader@render@ion@@@Archive@io@ion@@QEAAXAEAPEAVShader@render@2@@Z 000000014000a6b0 f i BuildShader.obj
 0001:00009ad0       ??$Serialise@VShader@render@ion@@@Archive@io@ion@@QEAAXAEAVShader@render@2@@Z 000000014000aad0 f i BuildShader.obj
 0001:00009b00       ??$Serialise@_N@Archive@io@ion@@QEAAXAEA_NAEBUTag@012@@Z 000000014000ab00 f i BuildShader.obj
 0001:00009b60       ??$_Construct_in_place@PEAU?$_Tree_node@U?$pair@$$CBV?$basic_string@DU?$char_traits@D@std@@V?$allocator@D@2@@std@@PEAUPointerMappingBase@Archive@io@ion@@@std@@PEAX@std@@AEAPEAU12@@std@@YAXAEAPEAU?$_Tree_node@U?$pair@$$CBV?$basic_string@DU?$char_traits@D@std@@V?$allocator@D@2@@std@@PEAUPointerMappingBase@Archive@io@ion@@@std@@PEAX@0@0@Z 000000014000ab60 f i BuildShader.obj
 0001:00009bb0       ??$_Debug_lt_pred@AEBU?$less@V?$basic_string@DU?$char_traits@D@std@@V?$allocator@D@2@@std@@@std@@AEBV?$basic_string@DU?$char_traits@D@std@@V?$allocator@D@2@@2@AEBV32@$0A@@std@@YA_NAEBU?$less@V?$basic_string@DU?$char_traits@D@std@@V?$allocator@D@2@@std@@@0@AEBV?$basic_string@DU?$char_traits@D@std@@V?$allocator@D@2@@0@1@Z 000000014000abb0 f i BuildShader.obj
 0001:00009c90       ??$_Destroy_in_place@PEAU?$_Tree_node@U?$pair@$$CBV?$basic_string@DU?$char_traits@D@std@@V?$allocator@D@2@@std@@PEAUPointerMappingBase@Archive@io@ion@@@std@@PEAX@std@@@std@@YAXAEAPEAU?$_Tree_node@U?$pair@$$CBV?$basic_string@DU?$char_traits@D@std@@V?$allocator@D@2@@std@@PEAUPointerMappingBase@Archive@io@ion@@@std@@PEAX@0@@Z 000000014000ac90 f i BuildShader.obj
 0001:00009cb0       ??$_Destroy_range@V?$allocator@E@std@@@std@@YAXPEAEQEAEAEAV?$allocator@E@0@@Z 000000014000acb0 f i BuildShader.obj
 0001:00009ce0       ??$_Destroy_range@V?$allocator@UBlock@Archive@io@ion@@@std@@@std@@YAXPEAUBlock@Archive@io@ion@@QEAU1234@AEAV?$allocator@UBlock@Archive@io@ion@@@0@@Z 000000014000ace0 f i BuildShader.obj
 0001:00009d60       ??$_Erase_head@V?$allocator@U?$_Tree_node@U?$pair@$$CBV?$basic_string@DU?$char_traits@D@std@@V?$allocator@D@2@@std@@PEAUPointerMappingBase@Archive@io@ion@@@std@@PEAX@std@@@std@@@?$_Tree_val@U?$_Tree_simple_types@U?$pair@$$CBV?$basic_string@DU?$char_traits@D@std@@V?$allocator@D@2@@std@@PEAUPointerMappingBase@Archive@io@ion@@@std@@@std@@@std@@QEAAXAEAV?$allocator@U?$_Tree_node@U?$pair@$$CBV?$basic_string@DU?$char_traits@D@std@@V?$allocator@D@2@@std@@PEAUPointerMappingBase@Archive@io@ion@@@std@@PEAX@std@@@1@@Z 000000014000ad60 f i BuildShader.obj
 0001:00009e10       ??$_Erase_tree@V?$allocator@U?$_Tree_node@U?$pair@$$CBV?$basic_string@DU?$char_traits@D@std@@V?$allocator@D@2@@std@@PEAUPointerMappingBase@Archive@io@ion@@@std@@PEAX@std@@@std@@@?$_Tree_val@U?$_Tree_simple_types@U?$pair@$$CBV?$basic_string@DU?$char_traits@D@std@@V?$allocator@D@2@@std@@PEAUPointerMappingBase@Archive@io@ion@@@std@@@std@@@std@@QEAAXAEAV?$allocator@U?$_Tree_node@U?$pair@$$CBV?$basic_string@DU?$char_traits@D@std@@V?$allocator@D@2@@std@@PEAUPointerMappingBase@Archive@io@ion@@@std@@PEAX@std@@@1@PEAU?$_Tree_node@U?$pair@$$CBV?$basic_string@DU?$char_traits@D@std@@V?$allocator@D@2@@std@@PEAUPointerMappingBase@Archive@io@ion@@@std@@PEAX@1@@Z 000000014000ae10 f i BuildShader.obj
 0001:00009ea0       ??$_Find@V?$basic_string@DU?$char_traits@D@std@@V?$allocator@D@2@@std@@@?$_Tree@V?$_Tmap_traits@V?$basic_string@DU?$char_traits@D@std@@V?$allocator@D@2@@std@@PEAUPointerMappingBase@Archive@io@ion@@U?$less@V?$basic_string@DU?$char_traits@D@std@@V?$allocator@D@2@@std@@@2@V?$allocator@U?$pair@$$CBV?$basic_string@DU?$char_traits@D@std@@V?$allocator@D@2@@std@@PEAUPointerMappingBase@Archive@io@ion@@@std@@@2@$0A@@std@@@std@@AEBAPEAU?$_Tree_node@U?$pair@$$CBV?$basic_string@DU?$char_traits@D@std@@V?$allocator@D@2@@std@@PEAUPointerMappingBase@Archive@io@ion@@@std@@PEAX@1@AEBV?$basic_string@DU?$char_traits@D@std@@V?$allocator@D@2@@1@@Z 000000014000aea0 f i BuildShader.obj
 0001:00009f70       ??$_Find_lower_bound@V?$basic_string@DU?$char_traits@D@std@@V?$allocator@D@2@@std@@@?$_Tree@V?$_Tmap_traits@V?$basic_string@DU?$char_traits@D@std@@V?$allocator@D@2@@std@@PEAUPointerMappingBase@Archive@io@ion@@U?$less@V?$basic_string@DU?$char_traits@D@std@@V?$allocator@D@2@@std@@@2@V?$allocator@U?$pair@$$CBV?$basic_string@DU?$char_traits@D@std@@V?$allocator@D@2@@std@@PEAUPointerMappingBase@Archive@io@ion@@@std@@@2@$0A@@std@@@std@@IEBA?AU?$_Tree_find_result@PEAU?$_Tree_node@U?$pair@$$CBV?$basic_string@DU?$char_traits@D@std@@V?$allocator@D@2@@std@@PEAUPointerMappingBase@Archive@io@ion@@@std@@PEAX@std@@@1@AEBV?$basic_string@DU?$char_traits@D@std@@V?$allocator@D@2@@1@@Z 000000014000af70 f i BuildShader.obj
 0001:0000a0a0       ??$_Freenode0@V?$allocator@U?$_Tree_node@U?$pair@$$CBV?$basic_string@DU?$char_traits@D@std@@V?$allocator@D@2@@std@@PEAUPointerMappingBase@Archive@io@ion@@@std@@PEAX@std@@@std@@@?$_Tree_node@U?$pair@$$CBV?$basic_string@DU?$char_traits@D@std@@V?$allocator@D@2@@std@@PEAUPointerMappingBase@Archive@io@ion@@@std@@PEAX@std@@SAXAEAV?$allocator@U?$_Tree_node@U?$pair@$$CBV?$basic_string@DU?$char_traits@D@std@@V?$allocator@D@2@@std@@PEAUPointerMappingBase@Archive@io@ion@@@std@@PEAX@std@@@1@PEAU01@@Z 000000014000b0a0 f i BuildShader.obj
 0001:0000a110       ??$_Freenode@V?$allocator@U?$_Tree_node@U?$pair@$$CBV?$basic_string@DU?$char_traits@D@std@@V?$allocator@D@2@@std@@PEAUPointerMappingBase@Archive@io@ion@@@std@@PEAX@std@@@std@@@?$_Tree_node@U?$pair@$$CBV?$basic_string@DU?$char_traits@D@std@@V?$allocator@D@2@@std@@PEAUPointerMappingBase@Archive@io@ion@@@std@@PEAX@std@@SAXAEAV?$allocator@U?$_Tree_node@U?$pair@$$CBV?$basic_string@DU?$char_traits@D@std@@V?$allocator@D@2@@std@@PEAUPointerMappingBase@Archive@io@ion@@@std@@PEAX@std@@@1@PEAU01@@Z 000000014000b110 f i BuildShader.obj
 0001:0000a180       ??$_Reallocate_grow_by@V<lambda_e1befb086ad3257e3f042a63030725f7>@@_KD@?$basic_string@DU?$char_traits@D@std@@V?$allocator@D@2@@std@@AEAAAEAV01@_KV<lambda_e1befb086ad3257e3f042a63030725f7>@@_KD@Z 000000014000b180 f i BuildShader.obj
 0001:0000a3e0       ??$_Try_emplace@AEBV?$basic_string@DU?$char_traits@D@std@@V?$allocator@D@2@@std@@$$V@?$map@V?$basic_string@DU?$char_traits@D@std@@V?$allocator@D@2@@std@@PEAUPointerMappingBase@Archive@io@ion@@U?$less@V?$basic_string@DU?$char_traits@D@std@@V?$allocator@D@2@@std@@@2@V?$allocator@U?$pair@$$CBV?$basic_string@DU?$char_traits@D@std@@V?$allocator@D@2@@std@@PEAUPointerMappingBase@Archive@io@ion@@@std@@@2@@std@@AEAA?AU?$pair@PEAU?$_Tree_node@U?$pair@$$CBV?$basic_string@DU?$char_traits@D@std@@V?$allocator@D@2@@std@@PEAUPointerMappingBase@Archive@io@ion@@@std@@PEAX@std@@_N@1@AEBV?$basic_string@DU?$char_traits@D@std@@V?$allocator@D@2@@1@@Z 000000014000b3e0 f i BuildShader.obj
 0001:0000a6f0       ??0?$PointerMapping@VShader@render@ion@@VShaderResource@23@@Archive@io@ion@@QEAA@AEBV?$basic_string@DU?$char_traits@D@std@@V?$allocator@D@2@@std@@@Z 000000014000b6f0 f i BuildShader.obj
 0001:0000a820       ??0?$_Tree_const_iterator@V?$_Tree_val@U?$_Tree_simple_types@U?$pair@$$CBV?$basic_string@DU?$char_traits@D@std@@V?$allocator@D@2@@std@@PEAUPointerMappingBase@Archive@io@ion@@@std@@@std@@@std@@@std@@QEAA@PEAU?$_Tree_node@U?$pair@$$CBV?$basic_string@DU?$char_traits@D@std@@V?$allocator@D@2@@std@@PEAUPointerMappingBase@Archive@io@ion@@@std@@PEAX@1@PEBV?$_Tree_val@U?$_Tree_simple_types@U?$pair@$$CBV?$basic_string@DU?$char_traits@D@std@@V?$allocator@D@2@@std@@PEAUPointerMappingBase@Archive@io@ion@@@std@@@std@@@1@@Z 000000014000b820 f i BuildShader.obj
 0001:0000a880       ??0?$_Tree_iterator@V?$_Tree_val@U?$_Tree_simple_types@U?$pair@$$CBV?$basic_string@DU?$char_traits@D@std@@V?$allocator@D@2@@std@@PEAUPointerMappingBase@Archive@io@ion@@@std@@@std@@@std@@@std@@QEAA@PEAU?$_Tree_node@U?$pair@$$CBV?$basic_string@DU?$char_traits@D@std@@V?$allocator@D@2@@std@@PEAUPointerMappingBase@Archive@io@ion@@@std@@PEAX@1@PEBV?$_Tree_val@U?$_Tree_simple_types@U?$pair@$$CBV?$basic_string@DU?$char_traits@D@std@@V?$allocator@D@2@@std@@PEAUPointerMappingBase@Archive@io@ion@@@std@@@std@@@1@@Z 000000014000b880 f i BuildShader.obj
 0001:0000a8e0       ??0?$_Tree_unchecked_const_iterator@V?$_Tree_val@U?$_Tree_simple_types@U?$pair@$$CBV?$basic_string@DU?$char_traits@D@std@@V?$allocator@D@2@@std@@PEAUPointerMappingBase@Archive@io@ion@@@std@@@std@@@std@@U_Iterator_base12@2@@std@@QEAA@PEAU?$_Tree_node@U?$pair@$$CBV?$basic_string@DU?$char_traits@D@std@@V?$allocator@D@2@@std@@PEAUPointerMappingBase@Archive@io@ion@@@std@@PEAX@1@PEBV?$_Tree_val@U?$_Tree_simple_types@U?$pair@$$CBV?$basic_string@DU?$char_traits@D@std@@V?$allocator@D@2@@std@@PEAUPointerMappingBase@Archive@io@ion@@@std@@@std@@@1@@Z 000000014000b8e0 f i BuildShader.obj
 0001:0000a940       ??1?$_Alloc_construct_ptr@V?$allocator@U?$_Tree_node@U?$pair@$$CBV?$basic_string@DU?$char_traits@D@std@@V?$allocator@D@2@@std@@PEAUPointerMappingBase@Archive@io@ion@@@std@@PEAX@std@@@std@@@std@@QEAA@XZ 000000014000b940 f i BuildShader.obj
 0001:0000a9a0       ??1?$_Tree@V?$_Tmap_traits@V?$basic_string@DU?$char_traits@D@std@@V?$allocator@D@2@@std@@PEAUPointerMappingBase@Archive@io@ion@@U?$less@V?$basic_string@DU?$char_traits@D@std@@V?$allocator@D@2@@std@@@2@V?$allocator@U?$pair@$$CBV?$basic_string@DU?$char_traits@D@std@@V?$allocator@D@2@@std@@PEAUPointerMappingBase@Archive@io@ion@@@std@@@2@$0A@@std@@@std@@QEAA@XZ 000000014000b9a0 f i BuildShader.obj
 0001:0000aa30       ??1?$_Tree_iterator@V?$_Tree_val@U?$_Tree_simple_types@U?$pair@$$CBV?$basic_string@DU?$char_traits@D@std@@V?$allocator@D@2@@std@@PEAUPointerMappingBase@Archive@io@ion@@@std@@@std@@@std@@@std@@QEAA@XZ 000000014000ba30 f i BuildShader.obj
 0001:0000aa70       ??1?$_Tree_temp_node@V?$allocator@U?$_Tree_node@U?$pair@$$CBV?$basic_string@DU?$char_traits@D@std@@V?$allocator@D@2@@std@@PEAUPointerMappingBase@Archive@io@ion@@@std@@PEAX@std@@@std@@@std@@QEAA@XZ 000000014000ba70 f i BuildShader.obj
 0001:0000ab60       ??1?$_Tree_temp_node_alloc@V?$allocator@U?$_Tree_node@U?$pair@$$CBV?$basic_string@DU?$char_traits@D@std@@V?$allocator@D@2@@std@@PEAUPointerMappingBase@Archive@io@ion@@@std@@PEAX@std@@@std@@@std@@QEAA@XZ 000000014000bb60 f i BuildShader.obj
 0001:0000abb0       ??1?$vector@EV?$allocator@E@std@@@std@@QEAA@XZ 000000014000bbb0 f i BuildShader.obj
 0001:0000ac40       ??1?$vector@UBlock@Archive@io@ion@@V?$allocator@UBlock@Archive@io@ion@@@std@@@std@@QEAA@XZ 000000014000bc40 f i BuildShader.obj
 0001:0000acd0       ??1Archive@io@ion@@QEAA@XZ 000000014000bcd0 f i BuildShader.obj
 0001:0000ad30       ??1PointerMappingBase@Archive@io@ion@@QEAA@XZ 000000014000bd30 f i BuildShader.obj
 0001:0000ad60       ??8?$_Tree_const_iterator@V?$_Tree_val@U?$_Tree_simple_types@U?$pair@$$CBV?$basic_string@DU?$char_traits@D@std@@V?$allocator@D@2@@std@@PEAUPointerMappingBase@Archive@io@ion@@@std@@@std@@@std@@@std@@QEBA_NAEBV01@@Z 000000014000bd60 f i BuildShader.obj
 0001:0000ae90       ??A?$basic_string@DU?$char_traits@D@std@@V?$allocator@D@2@@std@@QEAAAEAD_K@Z 000000014000be90 f i BuildShader.obj
 0001:0000afb0       ??A?$vector@UShaderProgram@build@ion@@V?$allocator@UShaderProgram@build@ion@@@std@@@std@@QEBAAEBUShaderProgram@build@ion@@_K@Z 000000014000bfb0 f i BuildShader.obj
 0001:0000b080       ??D?$_Tree_const_iterator@V?$_Tree_val@U?$_Tree_simple_types@U?$pair@$$CBV?$basic_string@DU?$char_traits@D@std@@V?$allocator@D@2@@std@@PEAUPointerMappingBase@Archive@io@ion@@@std@@@std@@@std@@@std@@QEBAAEBU?$pair@$$CBV?$basic_string@DU?$char_traits@D@std@@V?$allocator@D@2@@std@@PEAUPointerMappingBase@Archive@io@ion@@@1@XZ 000000014000c080 f i BuildShader.obj
 0001:0000b1e0       ??_GShaderResource@render@ion@@UEAAPEAXI@Z 000000014000c1e0 f i BuildShader.obj
 0001:0000b1e0       ??_EShaderResource@render@ion@@UEAAPEAXI@Z 000000014000c1e0 f i BuildShader.obj
 0001:0000b220       ?Bind@ShaderResource@render@ion@@UEAAXXZ 000000014000c220 f i BuildShader.obj
 0001:0000b240       ?Compile@ShaderResource@render@ion@@UEAA_NXZ 000000014000c240 f i BuildShader.obj
 0001:0000b260       ?Construct@?$PointerMapping@VShader@render@ion@@VShaderResource@23@@Archive@io@ion@@UEAAPEAXXZ 000000014000c260 f i BuildShader.obj
 0001:0000b2d0       ?Construct@PointerMappingBase@Archive@io@ion@@UEAAPEAXXZ 000000014000c2d0 f i BuildShader.obj
 0001:0000b2f0       ?CreateShaderParamDelegate@ShaderResource@render@ion@@MEAAPEAVShaderParamDelegate@Shader@23@AEBV?$basic_string@DU?$char_traits@D@std@@V?$allocator@D@2@@std@@@Z 000000014000c2f0 f i BuildShader.obj
 0001:0000b320       ?Serialise@?$PointerMapping@VShader@render@ion@@VShaderResource@23@@Archive@io@ion@@UEAAXAEAV234@PEAX@Z 000000014000c320 f i BuildShader.obj
 0001:0000b360       ?Serialise@PointerMappingBase@Archive@io@ion@@UEAAXAEAV234@PEAX@Z 000000014000c360 f i BuildShader.obj
 0001:0000b390       ?Unbind@ShaderResource@render@ion@@UEAAXXZ 000000014000c390 f i BuildShader.obj
 0001:0000b3b0       ?_Allocate@?$_Alloc_construct_ptr@V?$allocator@U?$_Tree_node@U?$pair@$$CBV?$basic_string@DU?$char_traits@D@std@@V?$allocator@D@2@@std@@PEAUPointerMappingBase@Archive@io@ion@@@std@@PEAX@std@@@std@@@std@@QEAAXXZ 000000014000c3b0 f i BuildShader.obj
 0001:0000b440       ?_Check_grow_by_1@?$_Tree@V?$_Tmap_traits@V?$basic_string@DU?$char_traits@D@std@@V?$allocator@D@2@@std@@PEAUPointerMappingBase@Archive@io@ion@@U?$less@V?$basic_string@DU?$char_traits@D@std@@V?$allocator@D@2@@std@@@2@V?$allocator@U?$pair@$$CBV?$basic_string@DU?$char_traits@D@std@@V?$allocator@D@2@@std@@PEAUPointerMappingBase@Archive@io@ion@@@std@@@2@$0A@@std@@@std@@IEAAXXZ 000000014000c440 f i BuildShader.obj
 0001:0000b510       ?_Eos@?$basic_string@DU?$char_traits@D@std@@V?$allocator@D@2@@std@@AEAAX_K@Z 000000014000c510 f i BuildShader.obj
 0001:0000b570       ?_Insert_node@?$_Tree_val@U?$_Tree_simple_types@U?$pair@$$CBV?$basic_string@DU?$char_traits@D@std@@V?$allocator@D@2@@std@@PEAUPointerMappingBase@Archive@io@ion@@@std@@@std@@@std@@QEAAPEAU?$_Tree_node@U?$pair@$$CBV?$basic_string@DU?$char_traits@D@std@@V?$allocator@D@2@@std@@PEAUPointerMappingBase@Archive@io@ion@@@std@@PEAX@2@U?$_Tree_id@PEAU?$_Tree_node@U?$pair@$$CBV?$basic_string@DU?$char_traits@D@std@@V?$allocator@D@2@@std@@PEAUPointerMappingBase@Archive@io@ion@@@std@@PEAX@std@@@2@QEAU32@@Z 000000014000c570 f i BuildShader.obj
 0001:0000b870       ?_Lrotate@?$_Tree_val@U?$_Tree_simple_types@U?$pair@$$CBV?$basic_string@DU?$char_traits@D@std@@V?$allocator@D@2@@std@@PEAUPointerMappingBase@Archive@io@ion@@@std@@@std@@@std@@QEAAXPEAU?$_Tree_node@U?$pair@$$CBV?$basic_string@DU?$char_traits@D@std@@V?$allocator@D@2@@std@@PEAUPointerMappingBase@Archive@io@ion@@@std@@PEAX@2@@Z 000000014000c870 f i BuildShader.obj
 0001:0000b960       ?_Rrotate@?$_Tree_val@U?$_Tree_simple_types@U?$pair@$$CBV?$basic_string@DU?$char_traits@D@std@@V?$allocator@D@2@@std@@PEAUPointerMappingBase@Archive@io@ion@@@std@@@std@@@std@@QEAAXPEAU?$_Tree_node@U?$pair@$$CBV?$basic_string@DU?$char_traits@D@std@@V?$allocator@D@2@@std@@PEAUPointerMappingBase@Archive@io@ion@@@std@@PEAX@2@@Z 000000014000c960 f i BuildShader.obj
 0001:0000ba50       ?_Throw_tree_length_error@std@@YAXXZ 000000014000ca50 f i BuildShader.obj
 0001:0000ba80       ?_Tidy@?$vector@EV?$allocator@E@std@@@std@@AEAAXXZ 000000014000ca80 f i BuildShader.obj
 0001:0000bbb0       ?_Tidy@?$vector@UBlock@Archive@io@ion@@V?$allocator@UBlock@Archive@io@ion@@@std@@@std@@AEAAXXZ 000000014000cbb0 f i BuildShader.obj
 0001:0000bcf0       ?append@?$basic_string@DU?$char_traits@D@std@@V?$allocator@D@2@@std@@QEAAAEAV12@_KD@Z 000000014000ccf0 f i BuildShader.obj
 0001:0000bdf0       ?compare@?$basic_string@DU?$char_traits@D@std@@V?$allocator@D@2@@std@@QEBAHAEBV12@@Z 000000014000cdf0 f i BuildShader.obj
 0001:0000bfe0       ?Create@Texture@render@ion@@SAPEAV123@XZ 000000014000cfe0 f   BuildTexture.obj
 0001:0000c060       ?RegisterSerialiseType@Texture@render@ion@@SAXAEAVArchive@io@3@@Z 000000014000d060 f   BuildTexture.obj
 0001:0000c0d0       ?BuildTexture@build@ion@@YAHAEBV?$basic_string@DU?$char_traits@D@std@@V?$allocator@D@2@@std@@0W4TextureFiletype@12@@Z 000000014000d0d0 f   BuildTexture.obj
 0001:0000c420       ?MemoryReadPNG@build@ion@@YAXPEAUpng_struct_def@@PEAE_K@Z 000000014000d420 f   BuildTexture.obj
 0001:0000c480       ?ErrorHandlerPNG@build@ion@@YAXPEAUpng_struct_def@@PEBD@Z 000000014000d480 f   BuildTexture.obj
 0001:0000c4f0       ?ReadPNG@build@ion@@YAXAEAVFile@io@2@AEAV?$vector@EV?$allocator@E@std@@@std@@AEAI2AEAW4Format@Texture@render@2@AEAW4BitsPerPixel@892@@Z 000000014000d4f0 f   BuildTexture.obj
 0001:0000c820       ??$ConstructAndSerialiseObject@VTexture@render@ion@@@Archive@io@ion@@QEAAPEAVTexture@render@2@V?$basic_string@DU?$char_traits@D@std@@V?$allocator@D@2@@std@@@Z 000000014000d820 f i BuildTexture.obj
 0001:0000cab0       ??$RegisterPointerTypeStrict@VTexture@render@ion@@VTextureResource@23@@Archive@io@ion@@QEAAXAEBV?$basic_string@DU?$char_traits@D@std@@V?$allocator@D@2@@std@@@Z 000000014000dab0 f i BuildTexture.obj
 0001:0000cdb0       ??$Serialise@VTexture@render@ion@@@Archive@io@ion@@QEAAXAEAPEAVTexture@render@2@@Z 000000014000ddb0 f i BuildTexture.obj
 0001:0000d1d0       ??$Serialise@VTexture@render@ion@@@Archive@io@ion@@QEAAXAEAVTexture@render@2@@Z 000000014000e1d0 f i BuildTexture.obj
 0001:0000d200       ??$_Copy_memmove@PEAEPEAE@std@@YAPEAEPEAE00@Z 000000014000e200 f i BuildTexture.obj
 0001:0000d280       ??$_Resize@U_Value_init_tag@std@@@?$vector@EV?$allocator@E@std@@@std@@AEAAX_KAEBU_Value_init_tag@1@@Z 000000014000e280 f i BuildTexture.obj
 0001:0000d450       ??$_Resize_reallocate@U_Value_init_tag@std@@@?$vector@EV?$allocator@E@std@@@std@@AEAAX_KAEBU_Value_init_tag@1@@Z 000000014000e450 f i BuildTexture.obj
 0001:0000d700       ??$_Unfancy_maybe_null@E@std@@YAPEAEPEAE@Z 000000014000e700 f i BuildTexture.obj
 0001:0000d720       ??$_Uninitialized_move@PEAEV?$allocator@E@std@@@std@@YAPEAEQEAE0PEAEAEAV?$allocator@E@0@@Z 000000014000e720 f i BuildTexture.obj
 0001:0000d7a0       ??$_Uninitialized_value_construct_n@V?$allocator@E@std@@@std@@YAPEAEPEAE_KAEAV?$allocator@E@0@@Z 000000014000e7a0 f i BuildTexture.obj
 0001:0000d800       ??$_Zero_range@PEAE@std@@YAPEAEQEAE0@Z 000000014000e800 f i BuildTexture.obj
 0001:0000d860       ??0?$PointerMapping@VTexture@render@ion@@VTextureResource@23@@Archive@io@ion@@QEAA@AEBV?$basic_string@DU?$char_traits@D@std@@V?$allocator@D@2@@std@@@Z 000000014000e860 f i BuildTexture.obj
 0001:0000d990       ??0?$vector@EV?$allocator@E@std@@@std@@QEAA@XZ 000000014000e990 f i BuildTexture.obj
 0001:0000da20       ??1MemoryStream@io@ion@@QEAA@XZ 000000014000ea20 f i BuildTexture.obj
 0001:0000da40       ??_ETextureResource@render@ion@@UEAAPEAXI@Z 000000014000ea40 f i BuildTexture.obj
 0001:0000da40       ??_GTextureResource@render@ion@@UEAAPEAXI@Z 000000014000ea40 f i BuildTexture.obj
 0001:0000da80       ?Construct@?$PointerMapping@VTexture@render@ion@@VTextureResource@23@@Archive@io@ion@@UEAAPEAXXZ 000000014000ea80 f i BuildTexture.obj
 0001:0000daf0       ?GetPixels@TextureResource@render@ion@@UEBAXAEBV?$TVector2@H@3@0W4Format@Texture@23@W4BitsPerPixel@623@PEAE@Z 000000014000eaf0 f i BuildTexture.obj
 0001:0000db20       ?Load@Texture@render@ion@@MEAA_NXZ 000000014000eb20 f i BuildTexture.obj
 0001:0000db40       ?Load@Texture@render@ion@@UEAA_NIIW4Format@123@0W4BitsPerPixel@123@_N2PEBE@Z 000000014000eb40 f i BuildTexture.obj
 0001:0000db70       ?Load@TextureResource@render@ion@@UEAA_NAEBV?$basic_string@DU?$char_traits@D@std@@V?$allocator@D@2@@std@@@Z 000000014000eb70 f i BuildTexture.obj
 0001:0000dba0       ?LockPixelBuffer@TextureResource@render@ion@@UEAAPEAEXZ 000000014000eba0 f i BuildTexture.obj
 0001:0000dbc0       ?Serialise@?$PointerMapping@VTexture@render@ion@@VTextureResource@23@@Archive@io@ion@@UEAAXAEAV234@PEAX@Z 000000014000ebc0 f i BuildTexture.obj
 0001:0000dc00       ?SetColourPalette@TextureResource@render@ion@@UEAAXH@Z 000000014000ec00 f i BuildTexture.obj
 0001:0000dc20       ?SetMagnifyFilter@TextureResource@render@ion@@UEAAXW4Filter@Texture@23@@Z 000000014000ec20 f i BuildTexture.obj
 0001:0000dc40       ?SetMinifyFilter@TextureResource@render@ion@@UEAAXW4Filter@Texture@23@@Z 000000014000ec40 f i BuildTexture.obj
 0001:0000dc60       ?SetPixel@TextureResource@render@ion@@UEAAXAEBV?$TVector2@H@3@AEBVColour@3@@Z 000000014000ec60 f i BuildTexture.obj
 0001:0000dc90       ?SetPixels@TextureResource@render@ion@@UEAAXW4Format@Texture@23@_NPEBE@Z 000000014000ec90 f i BuildTexture.obj
 0001:0000dcc0       ?SetWrapping@TextureResource@render@ion@@UEAAXW4Wrapping@Texture@23@@Z 000000014000ecc0 f i BuildTexture.obj
 0001:0000dce0       ?Unload@Texture@render@ion@@MEAAXXZ 000000014000ece0 f i BuildTexture.obj
 0001:0000dd00       ?UnlockPixelBuffer@TextureResource@render@ion@@UEAAXXZ 000000014000ed00 f i BuildTexture.obj
 0001:0000dd20       ?_Calculate_growth@?$vector@EV?$allocator@E@std@@@std@@AEBA_K_K@Z 000000014000ed20 f i BuildTexture.obj
 0001:0000de50       ?_Change_array@?$vector@EV?$allocator@E@std@@@std@@AEAAXQEAE_K1@Z 000000014000ee50 f i BuildTexture.obj
 0001:0000dfb0       ?_Destroy@?$vector@EV?$allocator@E@std@@@std@@AEAAXPEAE0@Z 000000014000efb0 f i BuildTexture.obj
 0001:0000e000       ?_Getal@?$vector@EV?$allocator@E@std@@@std@@AEAAAEAV?$allocator@E@2@XZ 000000014000f000 f i BuildTexture.obj
 0001:0000e030       ?_Orphan_range@?$vector@EV?$allocator@E@std@@@std@@AEBAXPEAE0@Z 000000014000f030 f i BuildTexture.obj
 0001:0000e0f0       ?_Xlength@?$vector@EV?$allocator@E@std@@@std@@CAXXZ 000000014000f0f0 f i BuildTexture.obj
 0001:0000e120       ?deallocate@?$allocator@E@std@@QEAAXQEAE_K@Z 000000014000f120 f i BuildTexture.obj
 0001:0000e160       ?Swap@atomic@thread@ion@@YAIAEAII@Z 000000014000f160 f   core:AtomicWindows.obj
 0001:0000e190       ?Swap@atomic@thread@ion@@YA_KAEA_K_K@Z 000000014000f190 f   core:AtomicWindows.obj
 0001:0000e1d0       ?Add@atomic@thread@ion@@YAIAEAII@Z 000000014000f1d0 f   core:AtomicWindows.obj
 0001:0000e210       ?Add@atomic@thread@ion@@YA_KAEA_K_K@Z 000000014000f210 f   core:AtomicWindows.obj
 0001:0000e250       ?Increment@atomic@thread@ion@@YAIAEAI@Z 000000014000f250 f   core:AtomicWindows.obj
 0001:0000e290       ?Increment@atomic@thread@ion@@YA_KAEA_K@Z 000000014000f290 f   core:AtomicWindows.obj
 0001:0000e2d0       ?Decrement@atomic@thread@ion@@YAIAEAI@Z 000000014000f2d0 f   core:AtomicWindows.obj
 0001:0000e310       ?Decrement@atomic@thread@ion@@YA_KAEA_K@Z 000000014000f310 f   core:AtomicWindows.obj
 0001:0000e350       ??6LogStream@debug@ion@@QEAAAEAV012@PEBD@Z 000000014000f350 f   core:Debug.obj
 0001:0000e390       ??6LogStream@debug@ion@@QEAAAEAV012@AEBV?$basic_string@DU?$char_traits@D@std@@V?$allocator@D@2@@std@@@Z 000000014000f390 f   core:Debug.obj
 0001:0000e3d0       ??6LogStream@debug@ion@@QEAAAEAV012@E@Z 000000014000f3d0 f   core:Debug.obj
 0001:0000e410       ??6LogStream@debug@ion@@QEAAAEAV012@D@Z 000000014000f410 f   core:Debug.obj
 0001:0000e450       ??6LogStream@debug@ion@@QEAAAEAV012@G@Z 000000014000f450 f   core:Debug.obj
 0001:0000e490       ??6LogStream@debug@ion@@QEAAAEAV012@F@Z 000000014000f490 f   core:Debug.obj
 0001:0000e4d0       ??6LogStream@debug@ion@@QEAAAEAV012@I@Z 000000014000f4d0 f   core:Debug.obj
 0001:0000e510       ??6LogStream@debug@ion@@QEAAAEAV012@H@Z 000000014000f510 f   core:Debug.obj
 0001:0000e550       ??6LogStream@debug@ion@@QEAAAEAV012@_K@Z 000000014000f550 f   core:Debug.obj
 0001:0000e590       ??6LogStream@debug@ion@@QEAAAEAV012@_J@Z 000000014000f590 f   core:Debug.obj
 0001:0000e5d0       ??6LogStream@debug@ion@@QEAAAEAV012@M@Z 000000014000f5d0 f   core:Debug.obj
 0001:0000e620       ??6LogStream@debug@ion@@QEAAAEAV012@ULogTokenEnd@12@@Z 000000014000f620 f   core:Debug.obj
 0001:0000e880       ??$?6DU?$char_traits@D@std@@V?$allocator@D@1@@std@@YAAEAV?$basic_ostream@DU?$char_traits@D@std@@@0@AEAV10@AEBV?$basic_string@DU?$char_traits@D@std@@V?$allocator@D@2@@0@@Z 000000014000f880 f i core:Debug.obj
 0001:0000e940       ??$_Float_put_desired_precision@N@std@@YAH_JH@Z 000000014000f940 f i core:Debug.obj
 0001:0000e9f0       ??$_Float_put_desired_precision@O@std@@YAH_JH@Z 000000014000f9f0 f i core:Debug.obj
 0001:0000eaa0       ??$_Insert_string@DU?$char_traits@D@std@@_K@std@@YAAEAV?$basic_ostream@DU?$char_traits@D@std@@@0@AEAV10@QEBD_K@Z 000000014000faa0 f i core:Debug.obj
 0001:0000eed0       ??$_Maklocchr@D@std@@YADDPEADAEBU_Cvtvec@@@Z 000000014000fed0 f i core:Debug.obj
 0001:0000ef00       ??$_Maklocstr@D@std@@YAPEADPEBDPEADAEBU_Cvtvec@@@Z 000000014000ff00 f i core:Debug.obj
 0001:0000efe0       ??$_Reallocate_for@V<lambda_138c3d7c38c85abb84c7fc7bfe5747b7>@@D@?$basic_string@DU?$char_traits@D@std@@V?$allocator@D@2@@std@@AEAAAEAV01@_KV<lambda_138c3d7c38c85abb84c7fc7bfe5747b7>@@D@Z 000000014000ffe0 f i core:Debug.obj
 0001:0000f170       ??$_Reallocate_grow_by@V<lambda_b986da8d428e4af07c64af60eec09b61>@@_K_KD@?$basic_string@DU?$char_traits@D@std@@V?$allocator@D@2@@std@@AEAAAEAV01@_KV<lambda_b986da8d428e4af07c64af60eec09b61>@@_K2D@Z 0000000140010170 f i core:Debug.obj
 0001:0000f450       ??$use_facet@V?$num_put@DV?$ostreambuf_iterator@DU?$char_traits@D@std@@@std@@@std@@@std@@YAAEBV?$num_put@DV?$ostreambuf_iterator@DU?$char_traits@D@std@@@std@@@0@AEBVlocale@0@@Z 0000000140010450 f i core:Debug.obj
 0001:0000f5d0       ??$use_facet@V?$numpunct@D@std@@@std@@YAAEBV?$numpunct@D@0@AEBVlocale@0@@Z 00000001400105d0 f i core:Debug.obj
 0001:0000f750       ??0?$basic_iostream@DU?$char_traits@D@std@@@std@@QEAA@PEAV?$basic_streambuf@DU?$char_traits@D@std@@@1@@Z 0000000140010750 f i core:Debug.obj
 0001:0000f850       ??0?$basic_istream@DU?$char_traits@D@std@@@std@@QEAA@PEAV?$basic_streambuf@DU?$char_traits@D@std@@@1@_N@Z 0000000140010850 f i core:Debug.obj
 0001:0000f950       ??0?$basic_ostream@DU?$char_traits@D@std@@@std@@QEAA@W4_Uninitialized@1@_N@Z 0000000140010950 f i core:Debug.obj
 0001:0000fa60       ??0?$basic_streambuf@DU?$char_traits@D@std@@@std@@IEAA@XZ 0000000140010a60 f i core:Debug.obj
 0001:0000faf0       ??0?$basic_string@DU?$char_traits@D@std@@V?$allocator@D@2@@std@@QEAA@AEBV?$allocator@D@1@@Z 0000000140010af0 f i core:Debug.obj
 0001:0000fbb0       ??0?$basic_string@DU?$char_traits@D@std@@V?$allocator@D@2@@std@@QEAA@_KD@Z 0000000140010bb0 f i core:Debug.obj
 0001:0000fcc0       ??0?$basic_stringbuf@DU?$char_traits@D@std@@V?$allocator@D@2@@std@@QEAA@H@Z 0000000140010cc0 f i core:Debug.obj
 0001:0000fd80       ??0?$basic_stringstream@DU?$char_traits@D@std@@V?$allocator@D@2@@std@@QEAA@XZ 0000000140010d80 f i core:Debug.obj
 0001:0000fe90       ??0locale@std@@QEAA@AEBV01@@Z 0000000140010e90 f i core:Debug.obj
 0001:0000fee0       ??1?$_Tidy_guard@V?$numpunct@D@std@@@std@@QEAA@XZ 0000000140010ee0 f i core:Debug.obj
 0001:0000ff40       ??1?$basic_ios@DU?$char_traits@D@std@@@std@@UEAA@XZ 0000000140010f40 f i core:Debug.obj
 0001:0000ff90       ??1?$basic_iostream@DU?$char_traits@D@std@@@std@@UEAA@XZ 0000000140010f90 f i core:Debug.obj
 0001:000100a0       ??1?$basic_istream@DU?$char_traits@D@std@@@std@@UEAA@XZ 00000001400110a0 f i core:Debug.obj
 0001:00010100       ??1?$basic_streambuf@DU?$char_traits@D@std@@@std@@UEAA@XZ 0000000140011100 f i core:Debug.obj
 0001:000101a0       ??1?$basic_stringstream@DU?$char_traits@D@std@@V?$allocator@D@2@@std@@UEAA@XZ 00000001400111a0 f i core:Debug.obj
 0001:00010260       ??1?$numpunct@D@std@@MEAA@XZ 0000000140011260 f i core:Debug.obj
 0001:000102e0       ??1LogStream@debug@ion@@QEAA@XZ 00000001400112e0 f i core:Debug.obj
 0001:00010350       ??1facet@locale@std@@MEAA@XZ 0000000140011350 f i core:Debug.obj
 0001:00010390       ??4?$ostreambuf_iterator@DU?$char_traits@D@std@@@std@@QEAAAEAV01@D@Z 0000000140011390 f i core:Debug.obj
 0001:00010420       ??6?$basic_ostream@DU?$char_traits@D@std@@@std@@QEAAAEAV01@H@Z 0000000140011420 f i core:Debug.obj
 0001:00010720       ??6?$basic_ostream@DU?$char_traits@D@std@@@std@@QEAAAEAV01@M@Z 0000000140011720 f i core:Debug.obj
 0001:000109d0       ??6?$basic_ostream@DU?$char_traits@D@std@@@std@@QEAAAEAV01@_J@Z 00000001400119d0 f i core:Debug.obj
 0001:00010c80       ??A?$basic_string@DU?$char_traits@D@std@@V?$allocator@D@2@@std@@QEBAAEBD_K@Z 0000000140011c80 f i core:Debug.obj
 0001:00010da0       ??_D?$basic_istream@DU?$char_traits@D@std@@@std@@QEAAXXZ 0000000140011da0 f i core:Debug.obj
 0001:00010e40       ??_D?$basic_ostream@DU?$char_traits@D@std@@@std@@QEAAXXZ 0000000140011e40 f i core:Debug.obj
 0001:00010ed8       ??_E?$basic_iostream@DU?$char_traits@D@std@@@std@@$4PPPPPPPM@A@EAAPEAXI@Z 0000000140011ed8 f i core:Debug.obj
 0001:00010ee4       ??_E?$basic_istream@DU?$char_traits@D@std@@@std@@$4PPPPPPPM@A@EAAPEAXI@Z 0000000140011ee4 f i core:Debug.obj
 0001:00010ef0       ??_E?$basic_ostream@DU?$char_traits@D@std@@@std@@$4PPPPPPPM@A@EAAPEAXI@Z 0000000140011ef0 f i core:Debug.obj
 0001:00010efc       ??_E?$basic_stringstream@DU?$char_traits@D@std@@V?$allocator@D@2@@std@@$4PPPPPPPM@A@EAAPEAXI@Z 0000000140011efc f i core:Debug.obj
 0001:00010f10       ??_E?$basic_ios@DU?$char_traits@D@std@@@std@@UEAAPEAXI@Z 0000000140011f10 f i core:Debug.obj
 0001:00010f10       ??_G?$basic_ios@DU?$char_traits@D@std@@@std@@UEAAPEAXI@Z 0000000140011f10 f i core:Debug.obj
 0001:00010f70       ??_E?$basic_iostream@DU?$char_traits@D@std@@@std@@UEAAPEAXI@Z 0000000140011f70 f i core:Debug.obj
 0001:00010f70       ??_G?$basic_iostream@DU?$char_traits@D@std@@@std@@UEAAPEAXI@Z 0000000140011f70 f i core:Debug.obj
 0001:00011010       ??_E?$basic_istream@DU?$char_traits@D@std@@@std@@UEAAPEAXI@Z 0000000140012010 f i core:Debug.obj
 0001:00011010       ??_G?$basic_istream@DU?$char_traits@D@std@@@std@@UEAAPEAXI@Z 0000000140012010 f i core:Debug.obj
 0001:00011060       ??_G?$basic_ostream@DU?$char_traits@D@std@@@std@@UEAAPEAXI@Z 0000000140012060 f i core:Debug.obj
 0001:00011060       ??_E?$basic_ostream@DU?$char_traits@D@std@@@std@@UEAAPEAXI@Z 0000000140012060 f i core:Debug.obj
 0001:000110b0       ??_E?$basic_streambuf@DU?$char_traits@D@std@@@std@@UEAAPEAXI@Z 00000001400120b0 f i core:Debug.obj
 0001:000110b0       ??_G?$basic_streambuf@DU?$char_traits@D@std@@@std@@UEAAPEAXI@Z 00000001400120b0 f i core:Debug.obj
 0001:000110f0       ??_G?$basic_stringbuf@DU?$char_traits@D@std@@V?$allocator@D@2@@std@@UEAAPEAXI@Z 00000001400120f0 f i core:Debug.obj
 0001:000110f0       ??_E?$basic_stringbuf@DU?$char_traits@D@std@@V?$allocator@D@2@@std@@UEAAPEAXI@Z 00000001400120f0 f i core:Debug.obj
 0001:00011150       ??_G?$basic_stringstream@DU?$char_traits@D@std@@V?$allocator@D@2@@std@@UEAAPEAXI@Z 0000000140012150 f i core:Debug.obj
 0001:00011150       ??_E?$basic_stringstream@DU?$char_traits@D@std@@V?$allocator@D@2@@std@@UEAAPEAXI@Z 0000000140012150 f i core:Debug.obj
 0001:000111f0       ??_E?$num_put@DV?$ostreambuf_iterator@DU?$char_traits@D@std@@@std@@@std@@MEAAPEAXI@Z 00000001400121f0 f i core:Debug.obj
 0001:000111f0       ??_G?$num_put@DV?$ostreambuf_iterator@DU?$char_traits@D@std@@@std@@@std@@MEAAPEAXI@Z 00000001400121f0 f i core:Debug.obj
 0001:00011270       ??_G?$numpunct@D@std@@MEAAPEAXI@Z 0000000140012270 f i core:Debug.obj
 0001:00011270       ??_E?$numpunct@D@std@@MEAAPEAXI@Z 0000000140012270 f i core:Debug.obj
 0001:000112d0       ??_Eios_base@std@@UEAAPEAXI@Z 00000001400122d0 f i core:Debug.obj
 0001:000112d0       ??_Gios_base@std@@UEAAPEAXI@Z 00000001400122d0 f i core:Debug.obj
 0001:00011320       ?_Ffmt@?$num_put@DV?$ostreambuf_iterator@DU?$char_traits@D@std@@@std@@@std@@AEBAPEADPEADDH@Z 0000000140012320 f i core:Debug.obj
 0001:000114b0       ?_Fput@?$num_put@DV?$ostreambuf_iterator@DU?$char_traits@D@std@@@std@@@std@@AEBA?AV?$ostreambuf_iterator@DU?$char_traits@D@std@@@2@V32@AEAVios_base@2@DPEBD_K@Z 00000001400124b0 f i core:Debug.obj
 0001:00011ee0       ?_Getcat@?$num_put@DV?$ostreambuf_iterator@DU?$char_traits@D@std@@@std@@@std@@SA_KPEAPEBVfacet@locale@2@PEBV42@@Z 0000000140012ee0 f i core:Debug.obj
 0001:00012060       ?_Getcat@?$numpunct@D@std@@SA_KPEAPEBVfacet@locale@2@PEBV42@@Z 0000000140013060 f i core:Debug.obj
 0001:00012200       ?_Ifmt@?$num_put@DV?$ostreambuf_iterator@DU?$char_traits@D@std@@@std@@@std@@AEBAPEADPEADPEBDH@Z 0000000140013200 f i core:Debug.obj
 0001:000123a0       ?_Init@?$basic_streambuf@DU?$char_traits@D@std@@@std@@IEAAXXZ 00000001400133a0 f i core:Debug.obj
 0001:00012480       ?_Init@?$basic_stringbuf@DU?$char_traits@D@std@@V?$allocator@D@2@@std@@IEAAXPEBD_KH@Z 0000000140013480 f i core:Debug.obj
 0001:00012680       ?_Init@?$numpunct@D@std@@IEAAXAEBV_Locinfo@2@_N@Z 0000000140013680 f i core:Debug.obj
 0001:000128f0       ?_Init@ios_base@std@@IEAAXXZ 00000001400138f0 f i core:Debug.obj
 0001:000129d0       ?_Iput@?$num_put@DV?$ostreambuf_iterator@DU?$char_traits@D@std@@@std@@@std@@AEBA?AV?$ostreambuf_iterator@DU?$char_traits@D@std@@@2@V32@AEAVios_base@2@DPEAD_K@Z 00000001400139d0 f i core:Debug.obj
 0001:00013250       ?_Lock@?$basic_streambuf@DU?$char_traits@D@std@@@std@@UEAAXXZ 0000000140014250 f i core:Debug.obj
 0001:00013270       ?_Put@?$num_put@DV?$ostreambuf_iterator@DU?$char_traits@D@std@@@std@@@std@@AEBA?AV?$ostreambuf_iterator@DU?$char_traits@D@std@@@2@V32@PEBD_K@Z 0000000140014270 f i core:Debug.obj
 0001:000132f0       ?_Rep@?$num_put@DV?$ostreambuf_iterator@DU?$char_traits@D@std@@@std@@@std@@AEBA?AV?$ostreambuf_iterator@DU?$char_traits@D@std@@@2@V32@D_K@Z 00000001400142f0 f i core:Debug.obj
 0001:00013360       ?_Tidy@?$basic_stringbuf@DU?$char_traits@D@std@@V?$allocator@D@2@@std@@IEAAXXZ 0000000140014360 f i core:Debug.obj
 0001:000134b0       ?_Unlock@?$basic_streambuf@DU?$char_traits@D@std@@@std@@UEAAXXZ 00000001400144b0 f i core:Debug.obj
 0001:000134d0       ?assign@?$basic_string@DU?$char_traits@D@std@@V?$allocator@D@2@@std@@QEAAAEAV12@_KD@Z 00000001400144d0 f i core:Debug.obj
 0001:00013590       ?do_decimal_point@?$numpunct@D@std@@MEBADXZ 0000000140014590 f i core:Debug.obj
 0001:000135c0       ?do_falsename@?$numpunct@D@std@@MEBA?AV?$basic_string@DU?$char_traits@D@std@@V?$allocator@D@2@@2@XZ 00000001400145c0 f i core:Debug.obj
 0001:00013610       ?do_grouping@?$numpunct@D@std@@MEBA?AV?$basic_string@DU?$char_traits@D@std@@V?$allocator@D@2@@2@XZ 0000000140014610 f i core:Debug.obj
 0001:00013660       ?do_put@?$num_put@DV?$ostreambuf_iterator@DU?$char_traits@D@std@@@std@@@std@@MEBA?AV?$ostreambuf_iterator@DU?$char_traits@D@std@@@2@V32@AEAVios_base@2@DJ@Z 0000000140014660 f i core:Debug.obj
 0001:00013770       ?do_put@?$num_put@DV?$ostreambuf_iterator@DU?$char_traits@D@std@@@std@@@std@@MEBA?AV?$ostreambuf_iterator@DU?$char_traits@D@std@@@2@V32@AEAVios_base@2@DK@Z 0000000140014770 f i core:Debug.obj
 0001:00013880       ?do_put@?$num_put@DV?$ostreambuf_iterator@DU?$char_traits@D@std@@@std@@@std@@MEBA?AV?$ostreambuf_iterator@DU?$char_traits@D@std@@@2@V32@AEAVios_base@2@DN@Z 0000000140014880 f i core:Debug.obj
 0001:00013c00       ?do_put@?$num_put@DV?$ostreambuf_iterator@DU?$char_traits@D@std@@@std@@@std@@MEBA?AV?$ostreambuf_iterator@DU?$char_traits@D@std@@@2@V32@AEAVios_base@2@DO@Z 0000000140014c00 f i core:Debug.obj
 0001:00013f80       ?do_put@?$num_put@DV?$ostreambuf_iterator@DU?$char_traits@D@std@@@std@@@std@@MEBA?AV?$ostreambuf_iterator@DU?$char_traits@D@std@@@2@V32@AEAVios_base@2@DPEBX@Z 0000000140014f80 f i core:Debug.obj
 0001:00014060       ?do_put@?$num_put@DV?$ostreambuf_iterator@DU?$char_traits@D@std@@@std@@@std@@MEBA?AV?$ostreambuf_iterator@DU?$char_traits@D@std@@@2@V32@AEAVios_base@2@D_J@Z 0000000140015060 f i core:Debug.obj
 0001:00014170       ?do_put@?$num_put@DV?$ostreambuf_iterator@DU?$char_traits@D@std@@@std@@@std@@MEBA?AV?$ostreambuf_iterator@DU?$char_traits@D@std@@@2@V32@AEAVios_base@2@D_K@Z 0000000140015170 f i core:Debug.obj
 0001:00014280       ?do_put@?$num_put@DV?$ostreambuf_iterator@DU?$char_traits@D@std@@@std@@@std@@MEBA?AV?$ostreambuf_iterator@DU?$char_traits@D@std@@@2@V32@AEAVios_base@2@D_N@Z 0000000140015280 f i core:Debug.obj
 0001:00014890       ?do_thousands_sep@?$numpunct@D@std@@MEBADXZ 0000000140015890 f i core:Debug.obj
 0001:000148c0       ?do_truename@?$numpunct@D@std@@MEBA?AV?$basic_string@DU?$char_traits@D@std@@V?$allocator@D@2@@2@XZ 00000001400158c0 f i core:Debug.obj
 0001:00014910       ?imbue@?$basic_streambuf@DU?$char_traits@D@std@@@std@@MEAAXAEBVlocale@2@@Z 0000000140015910 f i core:Debug.obj
 0001:00014930       ?init@?$basic_ios@DU?$char_traits@D@std@@@std@@IEAAXPEAV?$basic_streambuf@DU?$char_traits@D@std@@@2@_N@Z 0000000140015930 f i core:Debug.obj
 0001:00014a00       ?insert@?$basic_string@DU?$char_traits@D@std@@V?$allocator@D@2@@std@@QEAAAEAV12@_K0D@Z 0000000140015a00 f i core:Debug.obj
 0001:00014b60       ?overflow@?$basic_streambuf@DU?$char_traits@D@std@@@std@@MEAAHH@Z 0000000140015b60 f i core:Debug.obj
 0001:00014b90       ?overflow@?$basic_stringbuf@DU?$char_traits@D@std@@V?$allocator@D@2@@std@@MEAAHH@Z 0000000140015b90 f i core:Debug.obj
 0001:00015060       ?pbackfail@?$basic_streambuf@DU?$char_traits@D@std@@@std@@MEAAHH@Z 0000000140016060 f i core:Debug.obj
 0001:00015090       ?pbackfail@?$basic_stringbuf@DU?$char_traits@D@std@@V?$allocator@D@2@@std@@MEAAHH@Z 0000000140016090 f i core:Debug.obj
 0001:000152a0       ?seekoff@?$basic_streambuf@DU?$char_traits@D@std@@@std@@MEAA?AV?$fpos@U_Mbstatet@@@2@_JHH@Z 00000001400162a0 f i core:Debug.obj
 0001:00015300       ?seekoff@?$basic_stringbuf@DU?$char_traits@D@std@@V?$allocator@D@2@@std@@MEAA?AV?$fpos@U_Mbstatet@@@2@_JHH@Z 0000000140016300 f i core:Debug.obj
 0001:000156f0       ?seekpos@?$basic_streambuf@DU?$char_traits@D@std@@@std@@MEAA?AV?$fpos@U_Mbstatet@@@2@V32@H@Z 00000001400166f0 f i core:Debug.obj
 0001:00015750       ?seekpos@?$basic_stringbuf@DU?$char_traits@D@std@@V?$allocator@D@2@@std@@MEAA?AV?$fpos@U_Mbstatet@@@2@V32@H@Z 0000000140016750 f i core:Debug.obj
 0001:000159d0       ?setbuf@?$basic_streambuf@DU?$char_traits@D@std@@@std@@MEAAPEAV12@PEAD_J@Z 00000001400169d0 f i core:Debug.obj
 0001:00015a00       ?showmanyc@?$basic_streambuf@DU?$char_traits@D@std@@@std@@MEAA_JXZ 0000000140016a00 f i core:Debug.obj
 0001:00015a20       ?str@?$basic_stringbuf@DU?$char_traits@D@std@@V?$allocator@D@2@@std@@QEAAXAEBV?$basic_string@DU?$char_traits@D@std@@V?$allocator@D@2@@2@@Z 0000000140016a20 f i core:Debug.obj
 0001:00015af0       ?str@?$basic_stringbuf@DU?$char_traits@D@std@@V?$allocator@D@2@@std@@QEBA?AV?$basic_string@DU?$char_traits@D@std@@V?$allocator@D@2@@2@XZ 0000000140016af0 f i core:Debug.obj
 0001:00015ce0       ?sync@?$basic_streambuf@DU?$char_traits@D@std@@@std@@MEAAHXZ 0000000140016ce0 f i core:Debug.obj
 0001:00015d00       ?uflow@?$basic_streambuf@DU?$char_traits@D@std@@@std@@MEAAHXZ 0000000140016d00 f i core:Debug.obj
 0001:00015de0       ?underflow@?$basic_streambuf@DU?$char_traits@D@std@@@std@@MEAAHXZ 0000000140016de0 f i core:Debug.obj
 0001:00015e10       ?underflow@?$basic_stringbuf@DU?$char_traits@D@std@@V?$allocator@D@2@@std@@MEAAHXZ 0000000140016e10 f i core:Debug.obj
 0001:00016010       ?xsgetn@?$basic_streambuf@DU?$char_traits@D@std@@@std@@MEAA_JPEAD_J@Z 0000000140017010 f i core:Debug.obj
 0001:000161e0       ?xsputn@?$basic_streambuf@DU?$char_traits@D@std@@@std@@MEAA_JPEBD_J@Z 00000001400171e0 f i core:Debug.obj
 0001:000163e0       __local_stdio_printf_options 00000001400173e0 f i core:Debug.obj
 0001:00016400       sprintf_s                  0000000140017400 f i core:Debug.obj
 0001:000164b0       ??0Tag@Archive@io@ion@@QEAA@XZ 00000001400174b0 f   core:Archive.obj
 0001:000164e0       ??0Tag@Archive@io@ion@@QEAA@PEBD@Z 00000001400174e0 f   core:Archive.obj
 0001:00016520       ??0Tag@Archive@io@ion@@QEAA@I@Z 0000000140017520 f   core:Archive.obj
 0001:00016560       ??0Tag@Archive@io@ion@@QEAA@AEBU0123@@Z 0000000140017560 f   core:Archive.obj
 0001:000165a0       ??4Tag@Archive@io@ion@@QEAAAEAU0123@I@Z 00000001400175a0 f   core:Archive.obj
 0001:000165e0       ??8Tag@Archive@io@ion@@QEBA_NAEBU0123@@Z 00000001400175e0 f   core:Archive.obj
 0001:00016630       ??9Tag@Archive@io@ion@@QEBA_NAEBU0123@@Z 0000000140017630 f   core:Archive.obj
 0001:00016680       ??0Archive@io@ion@@QEAA@AEAVStream@12@W4Direction@012@PEAVResourceManager@12@I@Z 0000000140017680 f   core:Archive.obj
 0001:00016760       ?SetContentType@Archive@io@ion@@QEAAXW4Content@123@@Z 0000000140017760 f   core:Archive.obj
 0001:00016790       ?GetContentType@Archive@io@ion@@QEBA?AW4Content@123@XZ 0000000140017790 f   core:Archive.obj
 0001:000167c0       ?GetDirection@Archive@io@ion@@QEBA?AW4Direction@123@XZ 00000001400177c0 f   core:Archive.obj
 0001:000167f0       ?GetVersion@Archive@io@ion@@QEBAIXZ 00000001400177f0 f   core:Archive.obj
 0001:00016820       ?GetResourceManager@Archive@io@ion@@QEBAPEAVResourceManager@23@XZ 0000000140017820 f   core:Archive.obj
 0001:00016850       ?PushBlock@Archive@io@ion@@QEAA_NAEBUTag@123@@Z 0000000140017850 f   core:Archive.obj
 0001:00016c20       ?PopBlock@Archive@io@ion@@QEAAXXZ 0000000140017c20 f   core:Archive.obj
 0001:00016d80       ?Serialise@Archive@io@ion@@QEAAXAEAVMemoryStream@23@@Z 0000000140017d80 f   core:Archive.obj
 0001:00016ec0       ?Serialise@Archive@io@ion@@QEAAXPEAX_K@Z 0000000140017ec0 f   core:Archive.obj
 0001:00016fb0       ?Serialise@Archive@io@ion@@QEAAXAEAE@Z 0000000140017fb0 f   core:Archive.obj
 0001:00016ff0       ?Serialise@Archive@io@ion@@QEAAXAEAD@Z 0000000140017ff0 f   core:Archive.obj
 0001:00017030       ?Serialise@Archive@io@ion@@QEAAXAEAG@Z 0000000140018030 f   core:Archive.obj
 0001:00017070       ?Serialise@Archive@io@ion@@QEAAXAEAF@Z 0000000140018070 f   core:Archive.obj
 0001:000170b0       ?Serialise@Archive@io@ion@@QEAAXAEAI@Z 00000001400180b0 f   core:Archive.obj
 0001:000170f0       ?Serialise@Archive@io@ion@@QEAAXAEAH@Z 00000001400180f0 f   core:Archive.obj
 0001:00017130       ?Serialise@Archive@io@ion@@QEAAXAEA_K@Z 0000000140018130 f   core:Archive.obj
 0001:00017170       ?Serialise@Archive@io@ion@@QEAAXAEA_J@Z 0000000140018170 f   core:Archive.obj
 0001:000171b0       ?Serialise@Archive@io@ion@@QEAAXAEAM@Z 00000001400181b0 f   core:Archive.obj
 0001:000171f0       ?Serialise@Archive@io@ion@@QEAAXAEA_N@Z 00000001400181f0 f   core:Archive.obj
 0001:000172a0       ?Serialise@Archive@io@ion@@QEAAXAEAV?$vector@EV?$allocator@E@std@@@std@@@Z 00000001400182a0 f   core:Archive.obj
 0001:000172e0       ?Serialise@Archive@io@ion@@QEAAXAEAV?$vector@DV?$allocator@D@std@@@std@@@Z 00000001400182e0 f   core:Archive.obj
 0001:00017320       ?Serialise@Archive@io@ion@@QEAAXAEAV?$vector@GV?$allocator@G@std@@@std@@@Z 0000000140018320 f   core:Archive.obj
 0001:00017360       ?Serialise@Archive@io@ion@@QEAAXAEAV?$vector@FV?$allocator@F@std@@@std@@@Z 0000000140018360 f   core:Archive.obj
 0001:000173a0       ?Serialise@Archive@io@ion@@QEAAXAEAV?$vector@IV?$allocator@I@std@@@std@@@Z 00000001400183a0 f   core:Archive.obj
 0001:000173e0       ?Serialise@Archive@io@ion@@QEAAXAEAV?$vector@HV?$allocator@H@std@@@std@@@Z 00000001400183e0 f   core:Archive.obj
 0001:00017420       ?Serialise@Archive@io@ion@@QEAAXAEAV?$vector@_KV?$allocator@_K@std@@@std@@@Z 0000000140018420 f   core:Archive.obj
 0001:00017460       ?Serialise@Archive@io@ion@@QEAAXAEAV?$vector@_JV?$allocator@_J@std@@@std@@@Z 0000000140018460 f   core:Archive.obj
 0001:000174a0       ?Serialise@Archive@io@ion@@QEAAXAEAV?$vector@MV?$allocator@M@std@@@std@@@Z 00000001400184a0 f   core:Archive.obj
 0001:000174e0       ?Serialise@Archive@io@ion@@QEAAXAEAV?$basic_string@DU?$char_traits@D@std@@V?$allocator@D@2@@std@@@Z 00000001400184e0 f   core:Archive.obj
 0001:00017780       ?Serialise@Header@Block@Archive@io@ion@@QEAAXAEAV345@@Z 0000000140018780 f   core:Archive.obj
 0001:000177d0       ??$Min@_K@maths@ion@@YA_KAEB_K0@Z 00000001400187d0 f i core:Archive.obj
 0001:00017830       ??$Serialise@H@Archive@io@ion@@QEAAXAEAHAEBUTag@012@@Z 0000000140018830 f i core:Archive.obj
 0001:00017890       ??$Serialise@UHeader@Block@Archive@io@ion@@@Archive@io@ion@@QEAAXAEAUHeader@Block@012@@Z 0000000140018890 f i core:Archive.obj
 0001:000178c0       ??$SerialisePODVector@D@Archive@io@ion@@QEAAXAEAV?$vector@DV?$allocator@D@std@@@std@@@Z 00000001400188c0 f i core:Archive.obj
 0001:00017a00       ??$SerialisePODVector@E@Archive@io@ion@@QEAAXAEAV?$vector@EV?$allocator@E@std@@@std@@@Z 0000000140018a00 f i core:Archive.obj
 0001:00017b40       ??$SerialisePODVector@F@Archive@io@ion@@QEAAXAEAV?$vector@FV?$allocator@F@std@@@std@@@Z 0000000140018b40 f i core:Archive.obj
 0001:00017c90       ??$SerialisePODVector@G@Archive@io@ion@@QEAAXAEAV?$vector@GV?$allocator@G@std@@@std@@@Z 0000000140018c90 f i core:Archive.obj
 0001:00017de0       ??$SerialisePODVector@H@Archive@io@ion@@QEAAXAEAV?$vector@HV?$allocator@H@std@@@std@@@Z 0000000140018de0 f i core:Archive.obj
 0001:00017f30       ??$SerialisePODVector@I@Archive@io@ion@@QEAAXAEAV?$vector@IV?$allocator@I@std@@@std@@@Z 0000000140018f30 f i core:Archive.obj
 0001:00018080       ??$SerialisePODVector@M@Archive@io@ion@@QEAAXAEAV?$vector@MV?$allocator@M@std@@@std@@@Z 0000000140019080 f i core:Archive.obj
 0001:000181d0       ??$SerialisePODVector@_J@Archive@io@ion@@QEAAXAEAV?$vector@_JV?$allocator@_J@std@@@std@@@Z 00000001400191d0 f i core:Archive.obj
 0001:00018320       ??$SerialisePODVector@_K@Archive@io@ion@@QEAAXAEAV?$vector@_KV?$allocator@_K@std@@@std@@@Z 0000000140019320 f i core:Archive.obj
 0001:00018470       ??$_Buyheadnode@V?$allocator@U?$_Tree_node@U?$pair@$$CBV?$basic_string@DU?$char_traits@D@std@@V?$allocator@D@2@@std@@PEAUPointerMappingBase@Archive@io@ion@@@std@@PEAX@std@@@std@@@?$_Tree_node@U?$pair@$$CBV?$basic_string@DU?$char_traits@D@std@@V?$allocator@D@2@@std@@PEAUPointerMappingBase@Archive@io@ion@@@std@@PEAX@std@@SAPEAU01@AEAV?$allocator@U?$_Tree_node@U?$pair@$$CBV?$basic_string@DU?$char_traits@D@std@@V?$allocator@D@2@@std@@PEAUPointerMappingBase@Archive@io@ion@@@std@@PEAX@std@@@1@@Z 0000000140019470 f i core:Archive.obj
 0001:00018530       ??$_Construct_in_place@PEAU?$_Tree_node@U?$pair@$$CBV?$basic_string@DU?$char_traits@D@std@@V?$allocator@D@2@@std@@PEAUPointerMappingBase@Archive@io@ion@@@std@@PEAX@std@@AEBQEAU12@@std@@YAXAEAPEAU?$_Tree_node@U?$pair@$$CBV?$basic_string@DU?$char_traits@D@std@@V?$allocator@D@2@@std@@PEAUPointerMappingBase@Archive@io@ion@@@std@@PEAX@0@AEBQEAU10@@Z 0000000140019530 f i core:Archive.obj
 0001:00018580       ??$_Copy_memmove@PEADPEAD@std@@YAPEADPEAD00@Z 0000000140019580 f i core:Archive.obj
 0001:00018600       ??$_Copy_memmove@PEAFPEAF@std@@YAPEAFPEAF00@Z 0000000140019600 f i core:Archive.obj
 0001:00018680       ??$_Copy_memmove@PEAGPEAG@std@@YAPEAGPEAG00@Z 0000000140019680 f i core:Archive.obj
 0001:00018700       ??$_Copy_memmove@PEAHPEAH@std@@YAPEAHPEAH00@Z 0000000140019700 f i core:Archive.obj
 0001:00018780       ??$_Copy_memmove@PEAIPEAI@std@@YAPEAIPEAI00@Z 0000000140019780 f i core:Archive.obj
 0001:00018800       ??$_Copy_memmove@PEAMPEAM@std@@YAPEAMPEAM00@Z 0000000140019800 f i core:Archive.obj
 0001:00018880       ??$_Copy_memmove@PEA_JPEA_J@std@@YAPEA_JPEA_J00@Z 0000000140019880 f i core:Archive.obj
 0001:00018900       ??$_Copy_memmove@PEA_KPEA_K@std@@YAPEA_KPEA_K00@Z 0000000140019900 f i core:Archive.obj
 0001:00018980       ??$_Destroy_range@V?$allocator@D@std@@@std@@YAXPEADQEADAEAV?$allocator@D@0@@Z 0000000140019980 f i core:Archive.obj
 0001:000189b0       ??$_Destroy_range@V?$allocator@F@std@@@std@@YAXPEAFQEAFAEAV?$allocator@F@0@@Z 00000001400199b0 f i core:Archive.obj
 0001:000189e0       ??$_Destroy_range@V?$allocator@G@std@@@std@@YAXPEAGQEAGAEAV?$allocator@G@0@@Z 00000001400199e0 f i core:Archive.obj
 0001:00018a10       ??$_Destroy_range@V?$allocator@H@std@@@std@@YAXPEAHQEAHAEAV?$allocator@H@0@@Z 0000000140019a10 f i core:Archive.obj
 0001:00018a40       ??$_Destroy_range@V?$allocator@I@std@@@std@@YAXPEAIQEAIAEAV?$allocator@I@0@@Z 0000000140019a40 f i core:Archive.obj
 0001:00018a70       ??$_Destroy_range@V?$allocator@M@std@@@std@@YAXPEAMQEAMAEAV?$allocator@M@0@@Z 0000000140019a70 f i core:Archive.obj
 0001:00018aa0       ??$_Destroy_range@V?$allocator@_J@std@@@std@@YAXPEA_JQEA_JAEAV?$allocator@_J@0@@Z 0000000140019aa0 f i core:Archive.obj
 0001:00018ad0       ??$_Destroy_range@V?$allocator@_K@std@@@std@@YAXPEA_KQEA_KAEAV?$allocator@_K@0@@Z 0000000140019ad0 f i core:Archive.obj
 0001:00018b00       ??$_Emplace_back@AEAUBlock@Archive@io@ion@@@?$_Uninitialized_backout_al@V?$allocator@UBlock@Archive@io@ion@@@std@@@std@@QEAAXAEAUBlock@Archive@io@ion@@@Z 0000000140019b00 f i core:Archive.obj
 0001:00018b90       ??$_Emplace_back@UBlock@Archive@io@ion@@@?$_Uninitialized_backout_al@V?$allocator@UBlock@Archive@io@ion@@@std@@@std@@QEAAX$$QEAUBlock@Archive@io@ion@@@Z 0000000140019b90 f i core:Archive.obj
 0001:00018c20       ??$_Emplace_back_with_unused_capacity@AEBUBlock@Archive@io@ion@@@?$vector@UBlock@Archive@io@ion@@V?$allocator@UBlock@Archive@io@ion@@@std@@@std@@AEAAXAEBUBlock@Archive@io@ion@@@Z 0000000140019c20 f i core:Archive.obj
 0001:00018d00       ??$_Emplace_reallocate@AEBUBlock@Archive@io@ion@@@?$vector@UBlock@Archive@io@ion@@V?$allocator@UBlock@Archive@io@ion@@@std@@@std@@QEAAPEAUBlock@Archive@io@ion@@QEAU2345@AEBU2345@@Z 0000000140019d00 f i core:Archive.obj
 0001:00019120       ??$_Reallocate_grow_by@V<lambda_319d5e083f45f90dcdce5dce53cbb275>@@D@?$basic_string@DU?$char_traits@D@std@@V?$allocator@D@2@@std@@AEAAAEAV01@_KV<lambda_319d5e083f45f90dcdce5dce53cbb275>@@D@Z 000000014001a120 f i core:Archive.obj
 0001:00019380       ??$_Reallocate_grow_by@V<lambda_9013ee9e23efe4882b67eff5b0ecf103>@@$$V@?$basic_string@DU?$char_traits@D@std@@V?$allocator@D@2@@std@@AEAAAEAV01@_KV<lambda_9013ee9e23efe4882b67eff5b0ecf103>@@@Z 000000014001a380 f i core:Archive.obj
 0001:00019550       ??$_Resize@U_Value_init_tag@std@@@?$vector@DV?$allocator@D@std@@@std@@AEAAX_KAEBU_Value_init_tag@1@@Z 000000014001a550 f i core:Archive.obj
 0001:00019720       ??$_Resize@U_Value_init_tag@std@@@?$vector@FV?$allocator@F@std@@@std@@AEAAX_KAEBU_Value_init_tag@1@@Z 000000014001a720 f i core:Archive.obj
 0001:00019900       ??$_Resize@U_Value_init_tag@std@@@?$vector@GV?$allocator@G@std@@@std@@AEAAX_KAEBU_Value_init_tag@1@@Z 000000014001a900 f i core:Archive.obj
 0001:00019ae0       ??$_Resize@U_Value_init_tag@std@@@?$vector@HV?$allocator@H@std@@@std@@AEAAX_KAEBU_Value_init_tag@1@@Z 000000014001aae0 f i core:Archive.obj
 0001:00019cc0       ??$_Resize@U_Value_init_tag@std@@@?$vector@IV?$allocator@I@std@@@std@@AEAAX_KAEBU_Value_init_tag@1@@Z 000000014001acc0 f i core:Archive.obj
 0001:00019ea0       ??$_Resize@U_Value_init_tag@std@@@?$vector@MV?$allocator@M@std@@@std@@AEAAX_KAEBU_Value_init_tag@1@@Z 000000014001aea0 f i core:Archive.obj
 0001:0001a080       ??$_Resize@U_Value_init_tag@std@@@?$vector@_JV?$allocator@_J@std@@@std@@AEAAX_KAEBU_Value_init_tag@1@@Z 000000014001b080 f i core:Archive.obj
 0001:0001a260       ??$_Resize@U_Value_init_tag@std@@@?$vector@_KV?$allocator@_K@std@@@std@@AEAAX_KAEBU_Value_init_tag@1@@Z 000000014001b260 f i core:Archive.obj
 0001:0001a440       ??$_Resize_reallocate@U_Value_init_tag@std@@@?$vector@DV?$allocator@D@std@@@std@@AEAAX_KAEBU_Value_init_tag@1@@Z 000000014001b440 f i core:Archive.obj
 0001:0001a6f0       ??$_Resize_reallocate@U_Value_init_tag@std@@@?$vector@FV?$allocator@F@std@@@std@@AEAAX_KAEBU_Value_init_tag@1@@Z 000000014001b6f0 f i core:Archive.obj
 0001:0001a9e0       ??$_Resize_reallocate@U_Value_init_tag@std@@@?$vector@GV?$allocator@G@std@@@std@@AEAAX_KAEBU_Value_init_tag@1@@Z 000000014001b9e0 f i core:Archive.obj
 0001:0001acd0       ??$_Resize_reallocate@U_Value_init_tag@std@@@?$vector@HV?$allocator@H@std@@@std@@AEAAX_KAEBU_Value_init_tag@1@@Z 000000014001bcd0 f i core:Archive.obj
 0001:0001afc0       ??$_Resize_reallocate@U_Value_init_tag@std@@@?$vector@IV?$allocator@I@std@@@std@@AEAAX_KAEBU_Value_init_tag@1@@Z 000000014001bfc0 f i core:Archive.obj
 0001:0001b2b0       ??$_Resize_reallocate@U_Value_init_tag@std@@@?$vector@MV?$allocator@M@std@@@std@@AEAAX_KAEBU_Value_init_tag@1@@Z 000000014001c2b0 f i core:Archive.obj
 0001:0001b5a0       ??$_Resize_reallocate@U_Value_init_tag@std@@@?$vector@_JV?$allocator@_J@std@@@std@@AEAAX_KAEBU_Value_init_tag@1@@Z 000000014001c5a0 f i core:Archive.obj
 0001:0001b890       ??$_Resize_reallocate@U_Value_init_tag@std@@@?$vector@_KV?$allocator@_K@std@@@std@@AEAAX_KAEBU_Value_init_tag@1@@Z 000000014001c890 f i core:Archive.obj
 0001:0001bb80       ??$_Uninitialized_copy@PEAEV?$allocator@E@std@@@std@@YAPEAEQEAE0PEAEAEAV?$allocator@E@0@@Z 000000014001cb80 f i core:Archive.obj
 0001:0001bc00       ??$_Uninitialized_copy@PEAUBlock@Archive@io@ion@@V?$allocator@UBlock@Archive@io@ion@@@std@@@std@@YAPEAUBlock@Archive@io@ion@@QEAU1234@0PEAU1234@AEAV?$allocator@UBlock@Archive@io@ion@@@0@@Z 000000014001cc00 f i core:Archive.obj
 0001:0001bcc0       ??$_Uninitialized_move@PEADV?$allocator@D@std@@@std@@YAPEADQEAD0PEADAEAV?$allocator@D@0@@Z 000000014001ccc0 f i core:Archive.obj
 0001:0001bd40       ??$_Uninitialized_move@PEAFV?$allocator@F@std@@@std@@YAPEAFQEAF0PEAFAEAV?$allocator@F@0@@Z 000000014001cd40 f i core:Archive.obj
 0001:0001bdc0       ??$_Uninitialized_move@PEAGV?$allocator@G@std@@@std@@YAPEAGQEAG0PEAGAEAV?$allocator@G@0@@Z 000000014001cdc0 f i core:Archive.obj
 0001:0001be40       ??$_Uninitialized_move@PEAHV?$allocator@H@std@@@std@@YAPEAHQEAH0PEAHAEAV?$allocator@H@0@@Z 000000014001ce40 f i core:Archive.obj
 0001:0001bec0       ??$_Uninitialized_move@PEAIV?$allocator@I@std@@@std@@YAPEAIQEAI0PEAIAEAV?$allocator@I@0@@Z 000000014001cec0 f i core:Archive.obj
 0001:0001bf40       ??$_Uninitialized_move@PEAMV?$allocator@M@std@@@std@@YAPEAMQEAM0PEAMAEAV?$allocator@M@0@@Z 000000014001cf40 f i core:Archive.obj
 0001:0001bfc0       ??$_Uninitialized_move@PEAUBlock@Archive@io@ion@@V?$allocator@UBlock@Archive@io@ion@@@std@@@std@@YAPEAUBlock@Archive@io@ion@@QEAU1234@0PEAU1234@AEAV?$allocator@UBlock@Archive@io@ion@@@0@@Z 000000014001cfc0 f i core:Archive.obj
 0001:0001c090       ??$_Uninitialized_move@PEA_JV?$allocator@_J@std@@@std@@YAPEA_JQEA_J0PEA_JAEAV?$allocator@_J@0@@Z 000000014001d090 f i core:Archive.obj
 0001:0001c110       ??$_Uninitialized_move@PEA_KV?$allocator@_K@std@@@std@@YAPEA_KQEA_K0PEA_KAEAV?$allocator@_K@0@@Z 000000014001d110 f i core:Archive.obj
 0001:0001c190       ??$_Uninitialized_value_construct_n@V?$allocator@D@std@@@std@@YAPEADPEAD_KAEAV?$allocator@D@0@@Z 000000014001d190 f i core:Archive.obj
 0001:0001c1f0       ??$_Uninitialized_value_construct_n@V?$allocator@F@std@@@std@@YAPEAFPEAF_KAEAV?$allocator@F@0@@Z 000000014001d1f0 f i core:Archive.obj
 0001:0001c250       ??$_Uninitialized_value_construct_n@V?$allocator@G@std@@@std@@YAPEAGPEAG_KAEAV?$allocator@G@0@@Z 000000014001d250 f i core:Archive.obj
 0001:0001c2b0       ??$_Uninitialized_value_construct_n@V?$allocator@H@std@@@std@@YAPEAHPEAH_KAEAV?$allocator@H@0@@Z 000000014001d2b0 f i core:Archive.obj
 0001:0001c310       ??$_Uninitialized_value_construct_n@V?$allocator@I@std@@@std@@YAPEAIPEAI_KAEAV?$allocator@I@0@@Z 000000014001d310 f i core:Archive.obj
 0001:0001c370       ??$_Uninitialized_value_construct_n@V?$allocator@M@std@@@std@@YAPEAMPEAM_KAEAV?$allocator@M@0@@Z 000000014001d370 f i core:Archive.obj
 0001:0001c3d0       ??$_Uninitialized_value_construct_n@V?$allocator@_J@std@@@std@@YAPEA_JPEA_J_KAEAV?$allocator@_J@0@@Z 000000014001d3d0 f i core:Archive.obj
 0001:0001c430       ??$_Uninitialized_value_construct_n@V?$allocator@_K@std@@@std@@YAPEA_KPEA_K_KAEAV?$allocator@_K@0@@Z 000000014001d430 f i core:Archive.obj
 0001:0001c490       ??$_Zero_range@PEAD@std@@YAPEADQEAD0@Z 000000014001d490 f i core:Archive.obj
 0001:0001c4f0       ??$_Zero_range@PEAF@std@@YAPEAFQEAF0@Z 000000014001d4f0 f i core:Archive.obj
 0001:0001c550       ??$_Zero_range@PEAG@std@@YAPEAGQEAG0@Z 000000014001d550 f i core:Archive.obj
 0001:0001c5b0       ??$_Zero_range@PEAH@std@@YAPEAHQEAH0@Z 000000014001d5b0 f i core:Archive.obj
 0001:0001c610       ??$_Zero_range@PEAI@std@@YAPEAIQEAI0@Z 000000014001d610 f i core:Archive.obj
 0001:0001c670       ??$_Zero_range@PEAM@std@@YAPEAMQEAM0@Z 000000014001d670 f i core:Archive.obj
 0001:0001c6d0       ??$_Zero_range@PEA_J@std@@YAPEA_JQEA_J0@Z 000000014001d6d0 f i core:Archive.obj
 0001:0001c730       ??$_Zero_range@PEA_K@std@@YAPEA_KQEA_K0@Z 000000014001d730 f i core:Archive.obj
 0001:0001c790       ??$emplace_back@AEBUBlock@Archive@io@ion@@@?$vector@UBlock@Archive@io@ion@@V?$allocator@UBlock@Archive@io@ion@@@std@@@std@@QEAAXAEBUBlock@Archive@io@ion@@@Z 000000014001d790 f i core:Archive.obj
 0001:0001c820       ??0?$_Tree@V?$_Tmap_traits@V?$basic_string@DU?$char_traits@D@std@@V?$allocator@D@2@@std@@PEAUPointerMappingBase@Archive@io@ion@@U?$less@V?$basic_string@DU?$char_traits@D@std@@V?$allocator@D@2@@std@@@2@V?$allocator@U?$pair@$$CBV?$basic_string@DU?$char_traits@D@std@@V?$allocator@D@2@@std@@PEAUPointerMappingBase@Archive@io@ion@@@std@@@2@$0A@@std@@@std@@QEAA@AEBU?$less@V?$basic_string@DU?$char_traits@D@std@@V?$allocator@D@2@@std@@@1@@Z 000000014001d820 f i core:Archive.obj
 0001:0001c8b0       ??0?$vector@EV?$allocator@E@std@@@std@@QEAA@AEBV01@@Z 000000014001d8b0 f i core:Archive.obj
 0001:0001ca90       ??0?$vector@UBlock@Archive@io@ion@@V?$allocator@UBlock@Archive@io@ion@@@std@@@std@@QEAA@XZ 000000014001da90 f i core:Archive.obj
 0001:0001cb20       ??0Block@Archive@io@ion@@QEAA@$$QEAU0123@@Z 000000014001db20 f i core:Archive.obj
 0001:0001cc00       ??0Block@Archive@io@ion@@QEAA@AEBU0123@@Z 000000014001dc00 f i core:Archive.obj
 0001:0001cce0       ??0Block@Archive@io@ion@@QEAA@XZ 000000014001dce0 f i core:Archive.obj
 0001:0001cd60       ??1?$_Tidy_guard@V?$vector@EV?$allocator@E@std@@@std@@@std@@QEAA@XZ 000000014001dd60 f i core:Archive.obj
 0001:0001cda0       ??1?$_Uninitialized_backout_al@V?$allocator@UBlock@Archive@io@ion@@@std@@@std@@QEAA@XZ 000000014001dda0 f i core:Archive.obj
 0001:0001cde0       ??1?$map@V?$basic_string@DU?$char_traits@D@std@@V?$allocator@D@2@@std@@PEAUPointerMappingBase@Archive@io@ion@@U?$less@V?$basic_string@DU?$char_traits@D@std@@V?$allocator@D@2@@std@@@2@V?$allocator@U?$pair@$$CBV?$basic_string@DU?$char_traits@D@std@@V?$allocator@D@2@@std@@PEAUPointerMappingBase@Archive@io@ion@@@std@@@2@@std@@QEAA@XZ 000000014001dde0 f i core:Archive.obj
 0001:0001ce00       ??1Block@Archive@io@ion@@QEAA@XZ 000000014001de00 f i core:Archive.obj
 0001:0001ce20       ??A?$vector@DV?$allocator@D@std@@@std@@QEAAAEAD_K@Z 000000014001de20 f i core:Archive.obj
 0001:0001cef0       ??A?$vector@EV?$allocator@E@std@@@std@@QEAAAEAE_K@Z 000000014001def0 f i core:Archive.obj
 0001:0001cfc0       ??A?$vector@FV?$allocator@F@std@@@std@@QEAAAEAF_K@Z 000000014001dfc0 f i core:Archive.obj
 0001:0001d090       ??A?$vector@GV?$allocator@G@std@@@std@@QEAAAEAG_K@Z 000000014001e090 f i core:Archive.obj
 0001:0001d160       ??A?$vector@HV?$allocator@H@std@@@std@@QEAAAEAH_K@Z 000000014001e160 f i core:Archive.obj
 0001:0001d230       ??A?$vector@IV?$allocator@I@std@@@std@@QEAAAEAI_K@Z 000000014001e230 f i core:Archive.obj
 0001:0001d300       ??A?$vector@MV?$allocator@M@std@@@std@@QEAAAEAM_K@Z 000000014001e300 f i core:Archive.obj
 0001:0001d3d0       ??A?$vector@_JV?$allocator@_J@std@@@std@@QEAAAEA_J_K@Z 000000014001e3d0 f i core:Archive.obj
 0001:0001d4a0       ??A?$vector@_KV?$allocator@_K@std@@@std@@QEAAAEA_K_K@Z 000000014001e4a0 f i core:Archive.obj
 0001:0001d570       ?_Alloc_sentinel_and_proxy@?$_Tree@V?$_Tmap_traits@V?$basic_string@DU?$char_traits@D@std@@V?$allocator@D@2@@std@@PEAUPointerMappingBase@Archive@io@ion@@U?$less@V?$basic_string@DU?$char_traits@D@std@@V?$allocator@D@2@@std@@@2@V?$allocator@U?$pair@$$CBV?$basic_string@DU?$char_traits@D@std@@V?$allocator@D@2@@std@@PEAUPointerMappingBase@Archive@io@ion@@@std@@@2@$0A@@std@@@std@@IEAAXXZ 000000014001e570 f i core:Archive.obj
 0001:0001d630       ?_Become_small@?$basic_string@DU?$char_traits@D@std@@V?$allocator@D@2@@std@@AEAAXXZ 000000014001e630 f i core:Archive.obj
 0001:0001d710       ?_Buy_raw@?$vector@EV?$allocator@E@std@@@std@@AEAAX_K@Z 000000014001e710 f i core:Archive.obj
 0001:0001d7c0       ?_Calculate_growth@?$vector@DV?$allocator@D@std@@@std@@AEBA_K_K@Z 000000014001e7c0 f i core:Archive.obj
 0001:0001d8f0       ?_Calculate_growth@?$vector@FV?$allocator@F@std@@@std@@AEBA_K_K@Z 000000014001e8f0 f i core:Archive.obj
 0001:0001da30       ?_Calculate_growth@?$vector@GV?$allocator@G@std@@@std@@AEBA_K_K@Z 000000014001ea30 f i core:Archive.obj
 0001:0001db70       ?_Calculate_growth@?$vector@HV?$allocator@H@std@@@std@@AEBA_K_K@Z 000000014001eb70 f i core:Archive.obj
 0001:0001dcb0       ?_Calculate_growth@?$vector@IV?$allocator@I@std@@@std@@AEBA_K_K@Z 000000014001ecb0 f i core:Archive.obj
 0001:0001ddf0       ?_Calculate_growth@?$vector@MV?$allocator@M@std@@@std@@AEBA_K_K@Z 000000014001edf0 f i core:Archive.obj
 0001:0001df30       ?_Calculate_growth@?$vector@UBlock@Archive@io@ion@@V?$allocator@UBlock@Archive@io@ion@@@std@@@std@@AEBA_K_K@Z 000000014001ef30 f i core:Archive.obj
 0001:0001e070       ?_Calculate_growth@?$vector@_JV?$allocator@_J@std@@@std@@AEBA_K_K@Z 000000014001f070 f i core:Archive.obj
 0001:0001e1b0       ?_Calculate_growth@?$vector@_KV?$allocator@_K@std@@@std@@AEBA_K_K@Z 000000014001f1b0 f i core:Archive.obj
 0001:0001e2f0       ?_Change_array@?$vector@DV?$allocator@D@std@@@std@@AEAAXQEAD_K1@Z 000000014001f2f0 f i core:Archive.obj
 0001:0001e450       ?_Change_array@?$vector@FV?$allocator@F@std@@@std@@AEAAXQEAF_K1@Z 000000014001f450 f i core:Archive.obj
 0001:0001e5b0       ?_Change_array@?$vector@GV?$allocator@G@std@@@std@@AEAAXQEAG_K1@Z 000000014001f5b0 f i core:Archive.obj
 0001:0001e710       ?_Change_array@?$vector@HV?$allocator@H@std@@@std@@AEAAXQEAH_K1@Z 000000014001f710 f i core:Archive.obj
 0001:0001e880       ?_Change_array@?$vector@IV?$allocator@I@std@@@std@@AEAAXQEAI_K1@Z 000000014001f880 f i core:Archive.obj
 0001:0001e9f0       ?_Change_array@?$vector@MV?$allocator@M@std@@@std@@AEAAXQEAM_K1@Z 000000014001f9f0 f i core:Archive.obj
 0001:0001eb60       ?_Change_array@?$vector@UBlock@Archive@io@ion@@V?$allocator@UBlock@Archive@io@ion@@@std@@@std@@AEAAXQEAUBlock@Archive@io@ion@@_K1@Z 000000014001fb60 f i core:Archive.obj
 0001:0001ecd0       ?_Change_array@?$vector@_JV?$allocator@_J@std@@@std@@AEAAXQEA_J_K1@Z 000000014001fcd0 f i core:Archive.obj
 0001:0001ee40       ?_Change_array@?$vector@_KV?$allocator@_K@std@@@std@@AEAAXQEA_K_K1@Z 000000014001fe40 f i core:Archive.obj
 0001:0001efb0       ?_Destroy@?$vector@DV?$allocator@D@std@@@std@@AEAAXPEAD0@Z 000000014001ffb0 f i core:Archive.obj
 0001:0001f000       ?_Destroy@?$vector@FV?$allocator@F@std@@@std@@AEAAXPEAF0@Z 0000000140020000 f i core:Archive.obj
 0001:0001f050       ?_Destroy@?$vector@GV?$allocator@G@std@@@std@@AEAAXPEAG0@Z 0000000140020050 f i core:Archive.obj
 0001:0001f0a0       ?_Destroy@?$vector@HV?$allocator@H@std@@@std@@AEAAXPEAH0@Z 00000001400200a0 f i core:Archive.obj
 0001:0001f0f0       ?_Destroy@?$vector@IV?$allocator@I@std@@@std@@AEAAXPEAI0@Z 00000001400200f0 f i core:Archive.obj
 0001:0001f140       ?_Destroy@?$vector@MV?$allocator@M@std@@@std@@AEAAXPEAM0@Z 0000000140020140 f i core:Archive.obj
 0001:0001f190       ?_Destroy@?$vector@UBlock@Archive@io@ion@@V?$allocator@UBlock@Archive@io@ion@@@std@@@std@@AEAAXPEAUBlock@Archive@io@ion@@0@Z 0000000140020190 f i core:Archive.obj
 0001:0001f1e0       ?_Destroy@?$vector@_JV?$allocator@_J@std@@@std@@AEAAXPEA_J0@Z 00000001400201e0 f i core:Archive.obj
 0001:0001f230       ?_Destroy@?$vector@_KV?$allocator@_K@std@@@std@@AEAAXPEA_K0@Z 0000000140020230 f i core:Archive.obj
 0001:0001f280       ?_Getal@?$vector@DV?$allocator@D@std@@@std@@AEAAAEAV?$allocator@D@2@XZ 0000000140020280 f i core:Archive.obj
 0001:0001f2b0       ?_Getal@?$vector@FV?$allocator@F@std@@@std@@AEAAAEAV?$allocator@F@2@XZ 00000001400202b0 f i core:Archive.obj
 0001:0001f2e0       ?_Getal@?$vector@GV?$allocator@G@std@@@std@@AEAAAEAV?$allocator@G@2@XZ 00000001400202e0 f i core:Archive.obj
 0001:0001f310       ?_Getal@?$vector@HV?$allocator@H@std@@@std@@AEAAAEAV?$allocator@H@2@XZ 0000000140020310 f i core:Archive.obj
 0001:0001f340       ?_Getal@?$vector@IV?$allocator@I@std@@@std@@AEAAAEAV?$allocator@I@2@XZ 0000000140020340 f i core:Archive.obj
 0001:0001f370       ?_Getal@?$vector@MV?$allocator@M@std@@@std@@AEAAAEAV?$allocator@M@2@XZ 0000000140020370 f i core:Archive.obj
 0001:0001f3a0       ?_Getal@?$vector@_JV?$allocator@_J@std@@@std@@AEAAAEAV?$allocator@_J@2@XZ 00000001400203a0 f i core:Archive.obj
 0001:0001f3d0       ?_Getal@?$vector@_KV?$allocator@_K@std@@@std@@AEAAAEAV?$allocator@_K@2@XZ 00000001400203d0 f i core:Archive.obj
 0001:0001f400       ?_Orphan_range@?$vector@DV?$allocator@D@std@@@std@@AEBAXPEAD0@Z 0000000140020400 f i core:Archive.obj
 0001:0001f4c0       ?_Orphan_range@?$vector@FV?$allocator@F@std@@@std@@AEBAXPEAF0@Z 00000001400204c0 f i core:Archive.obj
 0001:0001f580       ?_Orphan_range@?$vector@GV?$allocator@G@std@@@std@@AEBAXPEAG0@Z 0000000140020580 f i core:Archive.obj
 0001:0001f640       ?_Orphan_range@?$vector@HV?$allocator@H@std@@@std@@AEBAXPEAH0@Z 0000000140020640 f i core:Archive.obj
 0001:0001f700       ?_Orphan_range@?$vector@IV?$allocator@I@std@@@std@@AEBAXPEAI0@Z 0000000140020700 f i core:Archive.obj
 0001:0001f7c0       ?_Orphan_range@?$vector@MV?$allocator@M@std@@@std@@AEBAXPEAM0@Z 00000001400207c0 f i core:Archive.obj
 0001:0001f880       ?_Orphan_range@?$vector@UBlock@Archive@io@ion@@V?$allocator@UBlock@Archive@io@ion@@@std@@@std@@AEBAXPEAUBlock@Archive@io@ion@@0@Z 0000000140020880 f i core:Archive.obj
 0001:0001f940       ?_Orphan_range@?$vector@_JV?$allocator@_J@std@@@std@@AEBAXPEA_J0@Z 0000000140020940 f i core:Archive.obj
 0001:0001fa00       ?_Orphan_range@?$vector@_KV?$allocator@_K@std@@@std@@AEBAXPEA_K0@Z 0000000140020a00 f i core:Archive.obj
 0001:0001fac0       ?_Xlength@?$vector@DV?$allocator@D@std@@@std@@CAXXZ 0000000140020ac0 f i core:Archive.obj
 0001:0001faf0       ?_Xlength@?$vector@FV?$allocator@F@std@@@std@@CAXXZ 0000000140020af0 f i core:Archive.obj
 0001:0001fb20       ?_Xlength@?$vector@GV?$allocator@G@std@@@std@@CAXXZ 0000000140020b20 f i core:Archive.obj
 0001:0001fb50       ?_Xlength@?$vector@HV?$allocator@H@std@@@std@@CAXXZ 0000000140020b50 f i core:Archive.obj
 0001:0001fb80       ?_Xlength@?$vector@IV?$allocator@I@std@@@std@@CAXXZ 0000000140020b80 f i core:Archive.obj
 0001:0001fbb0       ?_Xlength@?$vector@MV?$allocator@M@std@@@std@@CAXXZ 0000000140020bb0 f i core:Archive.obj
 0001:0001fbe0       ?_Xlength@?$vector@UBlock@Archive@io@ion@@V?$allocator@UBlock@Archive@io@ion@@@std@@@std@@CAXXZ 0000000140020be0 f i core:Archive.obj
 0001:0001fc10       ?_Xlength@?$vector@_JV?$allocator@_J@std@@@std@@CAXXZ 0000000140020c10 f i core:Archive.obj
 0001:0001fc40       ?_Xlength@?$vector@_KV?$allocator@_K@std@@@std@@CAXXZ 0000000140020c40 f i core:Archive.obj
 0001:0001fc70       ?back@?$vector@UBlock@Archive@io@ion@@V?$allocator@UBlock@Archive@io@ion@@@std@@@std@@QEAAAEAUBlock@Archive@io@ion@@XZ 0000000140020c70 f i core:Archive.obj
 0001:0001fd30       ?clear@?$vector@DV?$allocator@D@std@@@std@@QEAAXXZ 0000000140020d30 f i core:Archive.obj
 0001:0001fdd0       ?clear@?$vector@EV?$allocator@E@std@@@std@@QEAAXXZ 0000000140020dd0 f i core:Archive.obj
 0001:0001fe70       ?clear@?$vector@FV?$allocator@F@std@@@std@@QEAAXXZ 0000000140020e70 f i core:Archive.obj
 0001:0001ff10       ?clear@?$vector@GV?$allocator@G@std@@@std@@QEAAXXZ 0000000140020f10 f i core:Archive.obj
 0001:0001ffb0       ?clear@?$vector@HV?$allocator@H@std@@@std@@QEAAXXZ 0000000140020fb0 f i core:Archive.obj
 0001:00020050       ?clear@?$vector@IV?$allocator@I@std@@@std@@QEAAXXZ 0000000140021050 f i core:Archive.obj
 0001:000200f0       ?clear@?$vector@MV?$allocator@M@std@@@std@@QEAAXXZ 00000001400210f0 f i core:Archive.obj
 0001:00020190       ?clear@?$vector@_JV?$allocator@_J@std@@@std@@QEAAXXZ 0000000140021190 f i core:Archive.obj
 0001:00020230       ?clear@?$vector@_KV?$allocator@_K@std@@@std@@QEAAXXZ 0000000140021230 f i core:Archive.obj
 0001:000202d0       ?deallocate@?$allocator@D@std@@QEAAXQEAD_K@Z 00000001400212d0 f i core:Archive.obj
 0001:00020310       ?deallocate@?$allocator@F@std@@QEAAXQEAF_K@Z 0000000140021310 f i core:Archive.obj
 0001:00020350       ?deallocate@?$allocator@G@std@@QEAAXQEAG_K@Z 0000000140021350 f i core:Archive.obj
 0001:00020390       ?deallocate@?$allocator@H@std@@QEAAXQEAH_K@Z 0000000140021390 f i core:Archive.obj
 0001:000203d0       ?deallocate@?$allocator@I@std@@QEAAXQEAI_K@Z 00000001400213d0 f i core:Archive.obj
 0001:00020410       ?deallocate@?$allocator@M@std@@QEAAXQEAM_K@Z 0000000140021410 f i core:Archive.obj
 0001:00020450       ?deallocate@?$allocator@UBlock@Archive@io@ion@@@std@@QEAAXQEAUBlock@Archive@io@ion@@_K@Z 0000000140021450 f i core:Archive.obj
 0001:00020490       ?deallocate@?$allocator@_J@std@@QEAAXQEA_J_K@Z 0000000140021490 f i core:Archive.obj
 0001:000204d0       ?deallocate@?$allocator@_K@std@@QEAAXQEA_K_K@Z 00000001400214d0 f i core:Archive.obj
 0001:00020510       ?pop_back@?$vector@UBlock@Archive@io@ion@@V?$allocator@UBlock@Archive@io@ion@@@std@@@std@@QEAAXXZ 0000000140021510 f i core:Archive.obj
 0001:00020660       ?push_back@?$basic_string@DU?$char_traits@D@std@@V?$allocator@D@2@@std@@QEAAXD@Z 0000000140021660 f i core:Archive.obj
 0001:00020730       ?reserve@?$basic_string@DU?$char_traits@D@std@@V?$allocator@D@2@@std@@QEAAX_K@Z 0000000140021730 f i core:Archive.obj
 0001:00020820       ?FileExists@io@ion@@YA_NAEBV?$basic_string@DU?$char_traits@D@std@@V?$allocator@D@2@@std@@@Z 0000000140021820 f   core:File.obj
 0001:00020870       ?GetFileSize@io@ion@@YA_JAEBV?$basic_string@DU?$char_traits@D@std@@V?$allocator@D@2@@std@@@Z 0000000140021870 f   core:File.obj
 0001:000208a0       ??0File@io@ion@@QEAA@XZ    00000001400218a0 f   core:File.obj
 0001:00020970       ??0File@io@ion@@QEAA@AEBV?$basic_string@DU?$char_traits@D@std@@V?$allocator@D@2@@std@@W4OpenMode@012@@Z 0000000140021970 f   core:File.obj
 0001:00020a60       ??1File@io@ion@@UEAA@XZ    0000000140021a60 f   core:File.obj
 0001:00020b20       ?Open@File@io@ion@@UEAA_NAEBV?$basic_string@DU?$char_traits@D@std@@V?$allocator@D@2@@std@@W4OpenMode@123@@Z 0000000140021b20 f   core:File.obj
 0001:00020b90       ?Open@File@io@ion@@UEAA_NAEBV?$basic_string@DU?$char_traits@D@std@@V?$allocator@D@2@@std@@PEAVFileDevice@23@W4OpenMode@123@@Z 0000000140021b90 f   core:File.obj
 0001:00020ef0       ?Close@File@io@ion@@UEAAXXZ 0000000140021ef0 f   core:File.obj
 0001:00020f80       ?GetSize@File@io@ion@@UEBA_JXZ 0000000140021f80 f   core:File.obj
 0001:00020fb0       ?GetPosition@File@io@ion@@UEBA_JXZ 0000000140021fb0 f   core:File.obj
 0001:00020fe0       ?Read@File@io@ion@@UEAA_JPEAX_J@Z 0000000140021fe0 f   core:File.obj
 0001:000211f0       ?Write@File@io@ion@@UEAA_JPEBX_J@Z 00000001400221f0 f   core:File.obj
 0001:00021310       ?Seek@File@io@ion@@UEAA_J_JW4SeekMode@23@@Z 0000000140022310 f   core:File.obj
 0001:00021510       ?Flush@File@io@ion@@QEAAXXZ 0000000140022510 f   core:File.obj
 0001:00021550       ?IsOpen@File@io@ion@@QEBA_NXZ 0000000140022550 f   core:File.obj
 0001:00021580       ?GetOpenMode@File@io@ion@@QEBA?AW4OpenMode@123@XZ 0000000140022580 f   core:File.obj
 0001:000215b0       ?GetFilename@File@io@ion@@QEBAAEBV?$basic_string@DU?$char_traits@D@std@@V?$allocator@D@2@@std@@XZ 00000001400225b0 f   core:File.obj
 0001:000215e0       ?FillBuffer@File@io@ion@@IEAAX_J@Z 00000001400225e0 f   core:File.obj
 0001:00021780       ??$use_facet@V?$codecvt@DDU_Mbstatet@@@std@@@std@@YAAEBV?$codecvt@DDU_Mbstatet@@@0@AEBVlocale@0@@Z 0000000140022780 f i core:File.obj
 0001:00021900       ??0?$basic_fstream@DU?$char_traits@D@std@@@std@@QEAA@XZ 0000000140022900 f i core:File.obj
 0001:00021a30       ??0sentry@?$basic_istream@DU?$char_traits@D@std@@@std@@QEAA@AEAV12@_N@Z 0000000140022a30 f i core:File.obj
 0001:00021ad0       ??1?$basic_filebuf@DU?$char_traits@D@std@@@std@@UEAA@XZ 0000000140022ad0 f i core:File.obj
 0001:00021b40       ??1?$basic_fstream@DU?$char_traits@D@std@@@std@@UEAA@XZ 0000000140022b40 f i core:File.obj
 0001:00021be0       ??1_Sentry_base@?$basic_istream@DU?$char_traits@D@std@@@std@@QEAA@XZ 0000000140022be0 f i core:File.obj
 0001:00021c40       ??1sentry@?$basic_istream@DU?$char_traits@D@std@@@std@@QEAA@XZ 0000000140022c40 f i core:File.obj
 0001:00021c90       ??_D?$basic_fstream@DU?$char_traits@D@std@@@std@@QEAAXXZ 0000000140022c90 f i core:File.obj
 0001:00021cec       ??_E?$basic_fstream@DU?$char_traits@D@std@@@std@@$4PPPPPPPM@A@EAAPEAXI@Z 0000000140022cec f i core:File.obj
 0001:00021d00       ??_G?$basic_filebuf@DU?$char_traits@D@std@@@std@@UEAAPEAXI@Z 0000000140022d00 f i core:File.obj
 0001:00021d00       ??_E?$basic_filebuf@DU?$char_traits@D@std@@@std@@UEAAPEAXI@Z 0000000140022d00 f i core:File.obj
 0001:00021d40       ??_E?$basic_fstream@DU?$char_traits@D@std@@@std@@UEAAPEAXI@Z 0000000140022d40 f i core:File.obj
 0001:00021d40       ??_G?$basic_fstream@DU?$char_traits@D@std@@@std@@UEAAPEAXI@Z 0000000140022d40 f i core:File.obj
 0001:00021de0       ??_G?$codecvt@DDU_Mbstatet@@@std@@MEAAPEAXI@Z 0000000140022de0 f i core:File.obj
 0001:00021de0       ??_E?$codecvt@DDU_Mbstatet@@@std@@MEAAPEAXI@Z 0000000140022de0 f i core:File.obj
 0001:00021e70       ??_EFile@io@ion@@UEAAPEAXI@Z 0000000140022e70 f i core:File.obj
 0001:00021e70       ??_GFile@io@ion@@UEAAPEAXI@Z 0000000140022e70 f i core:File.obj
 0001:00021eb0       ??_Gcodecvt_base@std@@UEAAPEAXI@Z 0000000140022eb0 f i core:File.obj
 0001:00021eb0       ??_Ecodecvt_base@std@@UEAAPEAXI@Z 0000000140022eb0 f i core:File.obj
 0001:00021f30       ?_Endwrite@?$basic_filebuf@DU?$char_traits@D@std@@@std@@IEAA_NXZ 0000000140022f30 f i core:File.obj
 0001:00022110       ?_Erase_noexcept@?$basic_string@DU?$char_traits@D@std@@V?$allocator@D@2@@std@@AEAAAEAV12@_K_K@Z 0000000140023110 f i core:File.obj
 0001:000222b0       ?_Getcat@?$codecvt@DDU_Mbstatet@@@std@@SA_KPEAPEBVfacet@locale@2@PEBV42@@Z 00000001400232b0 f i core:File.obj
 0001:00022440       ?_Gninc@?$basic_streambuf@DU?$char_traits@D@std@@@std@@IEAAPEADXZ 0000000140023440 f i core:File.obj
 0001:000224b0       ?_Init@?$basic_filebuf@DU?$char_traits@D@std@@@std@@IEAAXPEAU_iobuf@@W4_Initfl@12@@Z 00000001400234b0 f i core:File.obj
 0001:00022650       ?_Ipfx@?$basic_istream@DU?$char_traits@D@std@@@std@@QEAA_N_N@Z 0000000140023650 f i core:File.obj
 0001:00022a20       ?_Lock@?$basic_filebuf@DU?$char_traits@D@std@@@std@@UEAAXXZ 0000000140023a20 f i core:File.obj
 0001:00022a60       ?_Reset_back@?$basic_filebuf@DU?$char_traits@D@std@@@std@@AEAAXXZ 0000000140023a60 f i core:File.obj
 0001:00022b10       ?_Set_back@?$basic_filebuf@DU?$char_traits@D@std@@@std@@AEAAXXZ 0000000140023b10 f i core:File.obj
 0001:00022be0       ?_Unlock@?$basic_filebuf@DU?$char_traits@D@std@@@std@@UEAAXXZ 0000000140023be0 f i core:File.obj
 0001:00022c20       ?close@?$basic_filebuf@DU?$char_traits@D@std@@@std@@QEAAPEAV12@XZ 0000000140023c20 f i core:File.obj
 0001:00022cb0       ?close@?$basic_fstream@DU?$char_traits@D@std@@@std@@QEAAXXZ 0000000140023cb0 f i core:File.obj
 0001:00022d40       ?do_always_noconv@?$codecvt@DDU_Mbstatet@@@std@@MEBA_NXZ 0000000140023d40 f i core:File.obj
 0001:00022d60       ?do_always_noconv@codecvt_base@std@@MEBA_NXZ 0000000140023d60 f i core:File.obj
 0001:00022d80       ?do_encoding@codecvt_base@std@@MEBAHXZ 0000000140023d80 f i core:File.obj
 0001:00022da0       ?do_in@?$codecvt@DDU_Mbstatet@@@std@@MEBAHAEAU_Mbstatet@@PEBD1AEAPEBDPEAD3AEAPEAD@Z 0000000140023da0 f i core:File.obj
 0001:00022df0       ?do_length@?$codecvt@DDU_Mbstatet@@@std@@MEBAHAEAU_Mbstatet@@PEBD1_K@Z 0000000140023df0 f i core:File.obj
 0001:00022ed0       ?do_max_length@codecvt_base@std@@MEBAHXZ 0000000140023ed0 f i core:File.obj
 0001:00022ef0       ?do_out@?$codecvt@DDU_Mbstatet@@@std@@MEBAHAEAU_Mbstatet@@PEBD1AEAPEBDPEAD3AEAPEAD@Z 0000000140023ef0 f i core:File.obj
 0001:00022f40       ?do_unshift@?$codecvt@DDU_Mbstatet@@@std@@MEBAHAEAU_Mbstatet@@PEAD1AEAPEAD@Z 0000000140023f40 f i core:File.obj
 0001:00022f80       ?front@?$basic_string@DU?$char_traits@D@std@@V?$allocator@D@2@@std@@QEAAAEADXZ 0000000140023f80 f i core:File.obj
 0001:000230a0       ?imbue@?$basic_filebuf@DU?$char_traits@D@std@@@std@@MEAAXAEBVlocale@2@@Z 00000001400240a0 f i core:File.obj
 0001:00023120       ?open@?$basic_filebuf@DU?$char_traits@D@std@@@std@@QEAAPEAV12@PEBDHH@Z 0000000140024120 f i core:File.obj
 0001:00023260       ?open@?$basic_fstream@DU?$char_traits@D@std@@@std@@QEAAXPEBDHH@Z 0000000140024260 f i core:File.obj
 0001:00023370       ?overflow@?$basic_filebuf@DU?$char_traits@D@std@@@std@@MEAAHH@Z 0000000140024370 f i core:File.obj
 0001:00023800       ?pbackfail@?$basic_filebuf@DU?$char_traits@D@std@@@std@@MEAAHH@Z 0000000140024800 f i core:File.obj
 0001:00023b20       ?read@?$basic_istream@DU?$char_traits@D@std@@@std@@QEAAAEAV12@PEAD_J@Z 0000000140024b20 f i core:File.obj
 0001:00023cb0       ?sbumpc@?$basic_streambuf@DU?$char_traits@D@std@@@std@@QEAAHXZ 0000000140024cb0 f i core:File.obj
 0001:00023d40       ?seekg@?$basic_istream@DU?$char_traits@D@std@@@std@@QEAAAEAV12@_JH@Z 0000000140024d40 f i core:File.obj
 0001:00023f40       ?seekoff@?$basic_filebuf@DU?$char_traits@D@std@@@std@@MEAA?AV?$fpos@U_Mbstatet@@@2@_JHH@Z 0000000140024f40 f i core:File.obj
 0001:000240a0       ?seekpos@?$basic_filebuf@DU?$char_traits@D@std@@@std@@MEAA?AV?$fpos@U_Mbstatet@@@2@V32@H@Z 00000001400250a0 f i core:File.obj
 0001:000241c0       ?setbuf@?$basic_filebuf@DU?$char_traits@D@std@@@std@@MEAAPEAV?$basic_streambuf@DU?$char_traits@D@std@@@2@PEAD_J@Z 00000001400251c0 f i core:File.obj
 0001:00024270       ?sgetc@?$basic_streambuf@DU?$char_traits@D@std@@@std@@QEAAHXZ 0000000140025270 f i core:File.obj
 0001:00024300       ?snextc@?$basic_streambuf@DU?$char_traits@D@std@@@std@@QEAAHXZ 0000000140025300 f i core:File.obj
 0001:00024410       ?sync@?$basic_filebuf@DU?$char_traits@D@std@@@std@@MEAAHXZ 0000000140025410 f i core:File.obj
 0001:000244b0       ?tellg@?$basic_istream@DU?$char_traits@D@std@@@std@@QEAA?AV?$fpos@U_Mbstatet@@@2@XZ 00000001400254b0 f i core:File.obj
 0001:000245c0       ?tellp@?$basic_ostream@DU?$char_traits@D@std@@@std@@QEAA?AV?$fpos@U_Mbstatet@@@2@XZ 00000001400255c0 f i core:File.obj
 0001:000246d0       ?uflow@?$basic_filebuf@DU?$char_traits@D@std@@@std@@MEAAHXZ 00000001400256d0 f i core:File.obj
 0001:00024d90       ?underflow@?$basic_filebuf@DU?$char_traits@D@std@@@std@@MEAAHXZ 0000000140025d90 f i core:File.obj
 0001:00024e90       ?write@?$basic_ostream@DU?$char_traits@D@std@@@std@@QEAAAEAV12@PEBD_J@Z 0000000140025e90 f i core:File.obj
 0001:00024ff0       ?xsgetn@?$basic_filebuf@DU?$char_traits@D@std@@@std@@MEAA_JPEAD_J@Z 0000000140025ff0 f i core:File.obj
 0001:000252b0       ?xsputn@?$basic_filebuf@DU?$char_traits@D@std@@@std@@MEAA_JPEBD_J@Z 00000001400262b0 f i core:File.obj
 0001:00025450       ?ToUpper@string@ion@@YA?AV?$basic_string@DU?$char_traits@D@std@@V?$allocator@D@2@@std@@AEBV34@@Z 0000000140026450 f   core:String.obj
 0001:000255b0       ?ToUpper@string@ion@@YA?AV?$basic_string@_WU?$char_traits@_W@std@@V?$allocator@_W@2@@std@@AEBV34@@Z 00000001400265b0 f   core:String.obj
 0001:00025710       ?ToLower@string@ion@@YA?AV?$basic_string@DU?$char_traits@D@std@@V?$allocator@D@2@@std@@AEBV34@@Z 0000000140026710 f   core:String.obj
 0001:00025870       ?ToLower@string@ion@@YA?AV?$basic_string@_WU?$char_traits@_W@std@@V?$allocator@_W@2@@std@@AEBV34@@Z 0000000140026870 f   core:String.obj
 0001:000259d0       ?TrimWhitespaceStart@string@ion@@YA?AV?$basic_string@DU?$char_traits@D@std@@V?$allocator@D@2@@std@@AEBV34@@Z 00000001400269d0 f   core:String.obj
 0001:00025c90       ?TrimWhitespaceEnd@string@ion@@YA?AV?$basic_string@DU?$char_traits@D@std@@V?$allocator@D@2@@std@@AEBV34@@Z 0000000140026c90 f   core:String.obj
 0001:00026010       ?FindFirstWhitespace@string@ion@@YA_KAEBV?$basic_string@DU?$char_traits@D@std@@V?$allocator@D@2@@std@@@Z 0000000140027010 f   core:String.obj
 0001:00026260       ?RemoveSubstring@string@ion@@YA?AV?$basic_string@DU?$char_traits@D@std@@V?$allocator@D@2@@std@@AEBV34@0@Z 0000000140027260 f   core:String.obj
 0001:00026350       ?Strip@string@ion@@YA?AV?$basic_string@DU?$char_traits@D@std@@V?$allocator@D@2@@std@@AEBV34@AEBV?$vector@DV?$allocator@D@std@@@4@@Z 0000000140027350 f   core:String.obj
 0001:00026590       ?WStringToString@string@ion@@YA?AV?$basic_string@DU?$char_traits@D@std@@V?$allocator@D@2@@std@@AEBV?$basic_string@_WU?$char_traits@_W@std@@V?$allocator@_W@2@@4@@Z 0000000140027590 f   core:String.obj
 0001:00026630       ?StringToWString@string@ion@@YA?AV?$basic_string@_WU?$char_traits@_W@std@@V?$allocator@_W@2@@std@@AEBV?$basic_string@DU?$char_traits@D@std@@V?$allocator@D@2@@4@@Z 0000000140027630 f   core:String.obj
 0001:000266d0       ?StringToNative@string@ion@@YA?AV?$basic_string@_WU?$char_traits@_W@std@@V?$allocator@_W@2@@std@@AEBV?$basic_string@DU?$char_traits@D@std@@V?$allocator@D@2@@4@@Z 00000001400276d0 f   core:String.obj
 0001:00026720       ?NativeToString@string@ion@@YA?AV?$basic_string@DU?$char_traits@D@std@@V?$allocator@D@2@@std@@AEBV?$basic_string@_WU?$char_traits@_W@std@@V?$allocator@_W@2@@4@@Z 0000000140027720 f   core:String.obj
 0001:00026770       ?Tokenise@string@ion@@YAHAEBV?$basic_string@DU?$char_traits@D@std@@V?$allocator@D@2@@std@@AEAV?$vector@V?$basic_string@DU?$char_traits@D@std@@V?$allocator@D@2@@std@@V?$allocator@V?$basic_string@DU?$char_traits@D@std@@V?$allocator@D@2@@std@@@2@@4@0@Z 0000000140027770 f   core:String.obj
 0001:00026a80       ?Tokenise@string@ion@@YAHAEBV?$basic_string@DU?$char_traits@D@std@@V?$allocator@D@2@@std@@AEAV?$vector@V?$basic_string@DU?$char_traits@D@std@@V?$allocator@D@2@@std@@V?$allocator@V?$basic_string@DU?$char_traits@D@std@@V?$allocator@D@2@@std@@@2@@4@AEBV?$vector@DV?$allocator@D@std@@@4@@Z 0000000140027a80 f   core:String.obj
 0001:00026c90       ?TokeniseByWhitespace@string@ion@@YAHAEBV?$basic_string@DU?$char_traits@D@std@@V?$allocator@D@2@@std@@AEAV?$vector@V?$basic_string@DU?$char_traits@D@std@@V?$allocator@D@2@@std@@V?$allocator@V?$basic_string@DU?$char_traits@D@std@@V?$allocator@D@2@@std@@@2@@4@@Z 0000000140027c90 f   core:String.obj
 0001:00026e90       ?CompareNoCase@string@ion@@YA_NAEBV?$basic_string@DU?$char_traits@D@std@@V?$allocator@D@2@@std@@0@Z 0000000140027e90 f   core:String.obj
 0001:00026f30       ?CompareNoCase@string@ion@@YA_NAEBV?$basic_string@_WU?$char_traits@_W@std@@V?$allocator@_W@2@@std@@0@Z 0000000140027f30 f   core:String.obj
 0001:00026fd0       ?StartsWith@string@ion@@YA_NAEBV?$basic_string@DU?$char_traits@D@std@@V?$allocator@D@2@@std@@0@Z 0000000140027fd0 f   core:String.obj
 0001:00027030       ?EndsWith@string@ion@@YA_NAEBV?$basic_string@DU?$char_traits@D@std@@V?$allocator@D@2@@std@@0@Z 0000000140028030 f   core:String.obj
 0001:000270f0       ?AddNumericPostfix@string@ion@@YA?AV?$basic_string@DU?$char_traits@D@std@@V?$allocator@D@2@@std@@AEBV34@H@Z 00000001400280f0 f   core:String.obj
 0001:00027500       ?GetFileExtension@string@ion@@YA?AV?$basic_string@DU?$char_traits@D@std@@V?$allocator@D@2@@std@@V34@@Z 0000000140028500 f   core:String.obj
 0001:00027620       ??$?0PEAD$0A@@?$basic_string@DU?$char_traits@D@std@@V?$allocator@D@2@@std@@QEAA@PEAD0AEBV?$allocator@D@1@@Z 0000000140028620 f i core:String.obj
 0001:000277a0       ??$?0V?$codecvt_utf8_utf16@_W$0BAPPPP@$0A@@std@@@locale@std@@QEAA@AEBV01@PEBV?$codecvt_utf8_utf16@_W$0BAPPPP@$0A@@1@@Z 00000001400287a0 f i core:String.obj
 0001:00027850       ??$?8DU?$char_traits@D@std@@V?$allocator@D@1@@std@@YA_NAEBV?$basic_string@DU?$char_traits@D@std@@V?$allocator@D@2@@0@0@Z 0000000140028850 f i core:String.obj
 0001:00027880       ??$?8_WU?$char_traits@_W@std@@V?$allocator@_W@1@@std@@YA_NAEBV?$basic_string@_WU?$char_traits@_W@std@@V?$allocator@_W@2@@0@0@Z 0000000140028880 f i core:String.obj
 0001:000278b0       ??$?HDU?$char_traits@D@std@@V?$allocator@D@1@@std@@YA?AV?$basic_string@DU?$char_traits@D@std@@V?$allocator@D@2@@0@AEBV10@$$QEAV10@@Z 00000001400288b0 f i core:String.obj
 0001:00027920       ??$Find@D@stl@utils@ion@@YA_NAEBV?$vector@DV?$allocator@D@std@@@std@@AEBD@Z 0000000140028920 f i core:String.obj
 0001:00027a90       ??$_Codecvt_do_length@V?$codecvt_utf8_utf16@_W$0BAPPPP@$0A@@std@@DU_Mbstatet@@@std@@YAHAEBV?$codecvt_utf8_utf16@_W$0BAPPPP@$0A@@0@AEAU_Mbstatet@@PEBD2_K@Z 0000000140028a90 f i core:String.obj
 0001:00027c90       ??$_Construct_in_place@PEA_WAEBQEA_W@std@@YAXAEAPEA_WAEBQEA_W@Z 0000000140028c90 f i core:String.obj
 0001:00027ce0       ??$_Destroy_in_place@PEA_W@std@@YAXAEAPEA_W@Z 0000000140028ce0 f i core:String.obj
 0001:00027d00       ??$_Destroy_range@V?$allocator@V?$basic_string@DU?$char_traits@D@std@@V?$allocator@D@2@@std@@@std@@@std@@YAXPEAV?$basic_string@DU?$char_traits@D@std@@V?$allocator@D@2@@0@QEAV10@AEAV?$allocator@V?$basic_string@DU?$char_traits@D@std@@V?$allocator@D@2@@std@@@0@@Z 0000000140028d00 f i core:String.obj
 0001:00027d70       ??$_Emplace_back@V?$basic_string@DU?$char_traits@D@std@@V?$allocator@D@2@@std@@@?$_Uninitialized_backout_al@V?$allocator@V?$basic_string@DU?$char_traits@D@std@@V?$allocator@D@2@@std@@@std@@@std@@QEAAX$$QEAV?$basic_string@DU?$char_traits@D@std@@V?$allocator@D@2@@1@@Z 0000000140028d70 f i core:String.obj
 0001:00027e00       ??$_Emplace_back_with_unused_capacity@V?$basic_string@DU?$char_traits@D@std@@V?$allocator@D@2@@std@@@?$vector@V?$basic_string@DU?$char_traits@D@std@@V?$allocator@D@2@@std@@V?$allocator@V?$basic_string@DU?$char_traits@D@std@@V?$allocator@D@2@@std@@@2@@std@@AEAAX$$QEAV?$basic_string@DU?$char_traits@D@std@@V?$allocator@D@2@@1@@Z 0000000140028e00 f i core:String.obj
 0001:00027ee0       ??$_Emplace_reallocate@V?$basic_string@DU?$char_traits@D@std@@V?$allocator@D@2@@std@@@?$vector@V?$basic_string@DU?$char_traits@D@std@@V?$allocator@D@2@@std@@V?$allocator@V?$basic_string@DU?$char_traits@D@std@@V?$allocator@D@2@@std@@@2@@std@@QEAAPEAV?$basic_string@DU?$char_traits@D@std@@V?$allocator@D@2@@1@QEAV21@$$QEAV21@@Z 0000000140028ee0 f i core:String.obj
 0001:00028300       ??$_Find_unchecked1@PEBDD@std@@YAPEBDPEBDQEBDAEBDU?$integral_constant@_N$00@0@@Z 0000000140029300 f i core:String.obj
 0001:000283e0       ??$_Find_unchecked@PEBDD@std@@YAPEBDQEBD0AEBD@Z 00000001400293e0 f i core:String.obj
 0001:00028440       ??$_Get_unwrapped_n@AEAV?$_String_iterator@V?$_String_val@U?$_Simple_types@_W@std@@@std@@@std@@_J@std@@YAPEA_WAEAV?$_String_iterator@V?$_String_val@U?$_Simple_types@_W@std@@@std@@@0@_J@Z 0000000140029440 f i core:String.obj
 0001:00028540       ??$_Integral_to_string@DH@std@@YA?AV?$basic_string@DU?$char_traits@D@std@@V?$allocator@D@2@@0@H@Z 0000000140029540 f i core:String.obj
 0001:00028610       ??$_Reallocate_grow_by@V<lambda_1dfe18491bcca09701d8ccb01d0b0af4>@@PEB_W_K@?$basic_string@_WU?$char_traits@_W@std@@V?$allocator@_W@2@@std@@AEAAAEAV01@_KV<lambda_1dfe18491bcca09701d8ccb01d0b0af4>@@PEB_W_K@Z 0000000140029610 f i core:String.obj
 0001:00028900       ??$_Reallocate_grow_by@V<lambda_25953b27f3c43b57ba59f021c7f225c5>@@_W@?$basic_string@_WU?$char_traits@_W@std@@V?$allocator@_W@2@@std@@AEAAAEAV01@_KV<lambda_25953b27f3c43b57ba59f021c7f225c5>@@_W@Z 0000000140029900 f i core:String.obj
 0001:00028bc0       ??$_Reallocate_grow_by@V<lambda_a3050a43f3157934f354774ab3dd2e02>@@_K_W@?$basic_string@_WU?$char_traits@_W@std@@V?$allocator@_W@2@@std@@AEAAAEAV01@_KV<lambda_a3050a43f3157934f354774ab3dd2e02>@@_K_W@Z 0000000140029bc0 f i core:String.obj
 0001:00028f30       ??$_Reallocate_grow_by@V<lambda_f3a66ab6a0570788f31503db83886f49>@@_KPEBD_K@?$basic_string@DU?$char_traits@D@std@@V?$allocator@D@2@@std@@AEAAAEAV01@_KV<lambda_f3a66ab6a0570788f31503db83886f49>@@_KPEBD2@Z 0000000140029f30 f i core:String.obj
 0001:00029230       ??$_Refancy@PEA_W$0A@@std@@YAPEA_WPEA_W@Z 000000014002a230 f i core:String.obj
 0001:00029250       ??$_Refancy@PEB_W$0A@@std@@YAPEB_WPEB_W@Z 000000014002a250 f i core:String.obj
 0001:00029270       ??$_Traits_find@U?$char_traits@D@std@@@std@@YA_KQEBD_K101@Z 000000014002a270 f i core:String.obj
 0001:00029390       ??$_Traits_rfind@U?$char_traits@D@std@@@std@@YA_KQEBD_K101@Z 000000014002a390 f i core:String.obj
 0001:00029540       ??$_UIntegral_to_buff@DI@std@@YAPEADPEADI@Z 000000014002a540 f i core:String.obj
 0001:000295b0       ??$_Uninitialized_move@PEAV?$basic_string@DU?$char_traits@D@std@@V?$allocator@D@2@@std@@V?$allocator@V?$basic_string@DU?$char_traits@D@std@@V?$allocator@D@2@@std@@@2@@std@@YAPEAV?$basic_string@DU?$char_traits@D@std@@V?$allocator@D@2@@0@QEAV10@0PEAV10@AEAV?$allocator@V?$basic_string@DU?$char_traits@D@std@@V?$allocator@D@2@@std@@@0@@Z 000000014002a5b0 f i core:String.obj
 0001:00029680       ??$_Verify_range@_W@std@@YAXQEB_W0@Z 000000014002a680 f i core:String.obj
 0001:00029720       ??$distance@V?$_String_const_iterator@V?$_String_val@U?$_Simple_types@D@std@@@std@@@std@@@std@@YA_JV?$_String_const_iterator@V?$_String_val@U?$_Simple_types@D@std@@@std@@@0@0@Z 000000014002a720 f i core:String.obj
 0001:00029800       ??$emplace_back@V?$basic_string@DU?$char_traits@D@std@@V?$allocator@D@2@@std@@@?$vector@V?$basic_string@DU?$char_traits@D@std@@V?$allocator@D@2@@std@@V?$allocator@V?$basic_string@DU?$char_traits@D@std@@V?$allocator@D@2@@std@@@2@@std@@QEAAX$$QEAV?$basic_string@DU?$char_traits@D@std@@V?$allocator@D@2@@1@@Z 000000014002a800 f i core:String.obj
 0001:00029890       ??$find@V?$_Vector_const_iterator@V?$_Vector_val@U?$_Simple_types@D@std@@@std@@@std@@D@std@@YA?AV?$_Vector_const_iterator@V?$_Vector_val@U?$_Simple_types@D@std@@@std@@@0@V10@V10@AEBD@Z 000000014002a890 f i core:String.obj
 0001:00029a10       ??$find_if@V?$_String_const_iterator@V?$_String_val@U?$_Simple_types@D@std@@@std@@@std@@P6AHH@Z@std@@YA?AV?$_String_const_iterator@V?$_String_val@U?$_Simple_types@D@std@@@std@@@0@V10@V10@P6AHH@Z@Z 000000014002aa10 f i core:String.obj
 0001:00029bc0       ??$find_if@V?$_String_iterator@V?$_String_val@U?$_Simple_types@D@std@@@std@@@std@@V?$unary_negate@V?$pointer_to_unary_function@HHP6AHH@Z@std@@@2@@std@@YA?AV?$_String_iterator@V?$_String_val@U?$_Simple_types@D@std@@@std@@@0@V10@V10@V?$unary_negate@V?$pointer_to_unary_function@HHP6AHH@Z@std@@@0@@Z 000000014002abc0 f i core:String.obj
 0001:00029da0       ??$find_if@V?$reverse_iterator@V?$_String_iterator@V?$_String_val@U?$_Simple_types@D@std@@@std@@@std@@@std@@V?$unary_negate@V?$pointer_to_unary_function@HHP6AHH@Z@std@@@2@@std@@YA?AV?$reverse_iterator@V?$_String_iterator@V?$_String_val@U?$_Simple_types@D@std@@@std@@@std@@@0@V10@V10@V?$unary_negate@V?$pointer_to_unary_function@HHP6AHH@Z@std@@@0@@Z 000000014002ada0 f i core:String.obj
 0001:0002a060       ??$ptr_fun@HH@std@@YA?AV?$pointer_to_unary_function@HHP6AHH@Z@0@P6AHH@Z@Z 000000014002b060 f i core:String.obj
 0001:0002a0a0       ??$transform@V?$_String_iterator@V?$_String_val@U?$_Simple_types@_W@std@@@std@@@std@@V12@P6AHH@Z@std@@YA?AV?$_String_iterator@V?$_String_val@U?$_Simple_types@_W@std@@@std@@@0@V10@0V10@P6AHH@Z@Z 000000014002b0a0 f i core:String.obj
 0001:0002a2c0       ??0?$_String_iterator@V?$_String_val@U?$_Simple_types@D@std@@@std@@@std@@QEAA@AEBV01@@Z 000000014002b2c0 f i core:String.obj
 0001:0002a320       ??0?$basic_string@_WU?$char_traits@_W@std@@V?$allocator@_W@2@@std@@QEAA@$$QEAV01@@Z 000000014002b320 f i core:String.obj
 0001:0002a3f0       ??0?$basic_string@_WU?$char_traits@_W@std@@V?$allocator@_W@2@@std@@QEAA@AEBV01@@Z 000000014002b3f0 f i core:String.obj
 0001:0002a4e0       ??0?$basic_string@_WU?$char_traits@_W@std@@V?$allocator@_W@2@@std@@QEAA@XZ 000000014002b4e0 f i core:String.obj
 0001:0002a5a0       ??0?$codecvt@_WDU_Mbstatet@@@std@@QEAA@_K@Z 000000014002b5a0 f i core:String.obj
 0001:0002a6d0       ??0?$reverse_iterator@V?$_String_iterator@V?$_String_val@U?$_Simple_types@D@std@@@std@@@std@@@std@@QEAA@V?$_String_iterator@V?$_String_val@U?$_Simple_types@D@std@@@std@@@1@@Z 000000014002b6d0 f i core:String.obj
 0001:0002a770       ??0?$wstring_convert@V?$codecvt_utf8_utf16@_W$0BAPPPP@$0A@@std@@_WV?$allocator@_W@2@V?$allocator@D@2@@std@@QEAA@XZ 000000014002b770 f i core:String.obj
 0001:0002a860       ??0range_error@std@@QEAA@AEBV01@@Z 000000014002b860 f i core:String.obj
 0001:0002a8a0       ??0range_error@std@@QEAA@PEBD@Z 000000014002b8a0 f i core:String.obj
 0001:0002a900       ??1?$_Compressed_pair@V?$allocator@_W@std@@V?$_String_val@U?$_Simple_types@_W@std@@@2@$00@std@@QEAA@XZ 000000014002b900 f i core:String.obj
 0001:0002a910       ??1?$_String_const_iterator@V?$_String_val@U?$_Simple_types@D@std@@@std@@@std@@QEAA@XZ 000000014002b910 f i core:String.obj
 0001:0002a950       ??1?$_String_iterator@V?$_String_val@U?$_Simple_types@_W@std@@@std@@@std@@QEAA@XZ 000000014002b950 f i core:String.obj
 0001:0002a990       ??1?$_Uninitialized_backout_al@V?$allocator@V?$basic_string@DU?$char_traits@D@std@@V?$allocator@D@2@@std@@@std@@@std@@QEAA@XZ 000000014002b990 f i core:String.obj
 0001:0002a9d0       ??1?$_Vector_const_iterator@V?$_Vector_val@U?$_Simple_types@D@std@@@std@@@std@@QEAA@XZ 000000014002b9d0 f i core:String.obj
 0001:0002aa10       ??1?$basic_string@_WU?$char_traits@_W@std@@V?$allocator@_W@2@@std@@QEAA@XZ 000000014002ba10 f i core:String.obj
 0001:0002aa80       ??1?$reverse_iterator@V?$_String_iterator@V?$_String_val@U?$_Simple_types@D@std@@@std@@@std@@@std@@QEAA@XZ 000000014002ba80 f i core:String.obj
 0001:0002aac0       ??1?$wstring_convert@V?$codecvt_utf8_utf16@_W$0BAPPPP@$0A@@std@@_WV?$allocator@_W@2@V?$allocator@D@2@@std@@UEAA@XZ 000000014002bac0 f i core:String.obj
 0001:0002ab20       ??1codecvt_base@std@@UEAA@XZ 000000014002bb20 f i core:String.obj
 0001:0002ab70       ??1range_error@std@@UEAA@XZ 000000014002bb70 f i core:String.obj
 0001:0002aba0       ??4?$_Yarn@D@std@@QEAAAEAV01@PEBD@Z 000000014002bba0 f i core:String.obj
 0001:0002aca0       ??4locale@std@@QEAAAEBV01@AEBV01@@Z 000000014002bca0 f i core:String.obj
 0001:0002ad50       ??A?$basic_string@_WU?$char_traits@_W@std@@V?$allocator@_W@2@@std@@QEAAAEA_W_K@Z 000000014002bd50 f i core:String.obj
 0001:0002ae70       ??H?$_String_iterator@V?$_String_val@U?$_Simple_types@D@std@@@std@@@std@@QEBA?AV01@_J@Z 000000014002be70 f i core:String.obj
 0001:0002af50       ??_E?$codecvt@_WDU_Mbstatet@@@std@@MEAAPEAXI@Z 000000014002bf50 f i core:String.obj
 0001:0002af50       ??_G?$codecvt@_WDU_Mbstatet@@@std@@MEAAPEAXI@Z 000000014002bf50 f i core:String.obj
 0001:0002afe0       ??_G?$codecvt_utf8_utf16@_W$0BAPPPP@$0A@@std@@UEAAPEAXI@Z 000000014002bfe0 f i core:String.obj
 0001:0002afe0       ??_E?$codecvt_utf8_utf16@_W$0BAPPPP@$0A@@std@@UEAAPEAXI@Z 000000014002bfe0 f i core:String.obj
 0001:0002b080       ??_E?$wstring_convert@V?$codecvt_utf8_utf16@_W$0BAPPPP@$0A@@std@@_WV?$allocator@_W@2@V?$allocator@D@2@@std@@UEAAPEAXI@Z 000000014002c080 f i core:String.obj
 0001:0002b080       ??_G?$wstring_convert@V?$codecvt_utf8_utf16@_W$0BAPPPP@$0A@@std@@_WV?$allocator@_W@2@V?$allocator@D@2@@std@@UEAAPEAXI@Z 000000014002c080 f i core:String.obj
 0001:0002b0c0       ??_Grange_error@std@@UEAAPEAXI@Z 000000014002c0c0 f i core:String.obj
 0001:0002b0c0       ??_Erange_error@std@@UEAAPEAXI@Z 000000014002c0c0 f i core:String.obj
 0001:0002b120       ?_Calculate_growth@?$basic_string@_WU?$char_traits@_W@std@@V?$allocator@_W@2@@std@@CA_K_K00@Z 000000014002c120 f i core:String.obj
 0001:0002b1f0       ?_Calculate_growth@?$vector@V?$basic_string@DU?$char_traits@D@std@@V?$allocator@D@2@@std@@V?$allocator@V?$basic_string@DU?$char_traits@D@std@@V?$allocator@D@2@@std@@@2@@std@@AEBA_K_K@Z 000000014002c1f0 f i core:String.obj
 0001:0002b330       ?_Change_array@?$vector@V?$basic_string@DU?$char_traits@D@std@@V?$allocator@D@2@@std@@V?$allocator@V?$basic_string@DU?$char_traits@D@std@@V?$allocator@D@2@@std@@@2@@std@@AEAAXQEAV?$basic_string@DU?$char_traits@D@std@@V?$allocator@D@2@@2@_K1@Z 000000014002c330 f i core:String.obj
 0001:0002b4a0       ?_Compat@?$_String_const_iterator@V?$_String_val@U?$_Simple_types@D@std@@@std@@@std@@QEBAXAEBV12@@Z 000000014002c4a0 f i core:String.obj
 0001:0002b5a0       ?_Compat@?$_Vector_const_iterator@V?$_Vector_val@U?$_Simple_types@D@std@@@std@@@std@@QEBAXAEBV12@@Z 000000014002c5a0 f i core:String.obj
 0001:0002b6a0       ?_Construct_lv_contents@?$basic_string@_WU?$char_traits@_W@std@@V?$allocator@_W@2@@std@@AEAAXAEBV12@@Z 000000014002c6a0 f i core:String.obj
 0001:0002b8c0       ?_Destroy@?$vector@V?$basic_string@DU?$char_traits@D@std@@V?$allocator@D@2@@std@@V?$allocator@V?$basic_string@DU?$char_traits@D@std@@V?$allocator@D@2@@std@@@2@@std@@AEAAXPEAV?$basic_string@DU?$char_traits@D@std@@V?$allocator@D@2@@2@0@Z 000000014002c8c0 f i core:String.obj
 0001:0002b910       ?_Equal@?$basic_string@DU?$char_traits@D@std@@V?$allocator@D@2@@std@@QEBA_NAEBV12@@Z 000000014002c910 f i core:String.obj
 0001:0002ba90       ?_Equal@?$basic_string@_WU?$char_traits@_W@std@@V?$allocator@_W@2@@std@@QEBA_NAEBV12@@Z 000000014002ca90 f i core:String.obj
 0001:0002bcb0       ?_Init@?$wstring_convert@V?$codecvt_utf8_utf16@_W$0BAPPPP@$0A@@std@@_WV?$allocator@_W@2@V?$allocator@D@2@@std@@AEAAXPEBV?$codecvt_utf8_utf16@_W$0BAPPPP@$0A@@2@@Z 000000014002ccb0 f i core:String.obj
 0001:0002bd60       ?_Myptr@?$_String_val@U?$_Simple_types@_W@std@@@std@@QEAAPEA_WXZ 000000014002cd60 f i core:String.obj
 0001:0002bde0       ?_Myptr@?$_String_val@U?$_Simple_types@_W@std@@@std@@QEBAPEB_WXZ 000000014002cde0 f i core:String.obj
 0001:0002be60       ?_Orphan_range@?$vector@V?$basic_string@DU?$char_traits@D@std@@V?$allocator@D@2@@std@@V?$allocator@V?$basic_string@DU?$char_traits@D@std@@V?$allocator@D@2@@std@@@2@@std@@AEBAXPEAV?$basic_string@DU?$char_traits@D@std@@V?$allocator@D@2@@2@0@Z 000000014002ce60 f i core:String.obj
 0001:0002bf20       ?_Take_contents@?$basic_string@_WU?$char_traits@_W@std@@V?$allocator@_W@2@@std@@AEAAXAEAV12@U?$integral_constant@_N$00@2@@Z 000000014002cf20 f i core:String.obj
 0001:0002c020       ?_Throw_range_error@std@@YAXQEBD@Z 000000014002d020 f i core:String.obj
 0001:0002c060       ?_Tidy_deallocate@?$basic_string@_WU?$char_traits@_W@std@@V?$allocator@_W@2@@std@@AEAAXXZ 000000014002d060 f i core:String.obj
 0001:0002c150       ?_Verify_offset@?$_String_const_iterator@V?$_String_val@U?$_Simple_types@_W@std@@@std@@@std@@QEBAX_J@Z 000000014002d150 f i core:String.obj
 0001:0002c490       ?_Verify_range@std@@YAXAEBV?$_String_const_iterator@V?$_String_val@U?$_Simple_types@_W@std@@@std@@@1@0@Z 000000014002d490 f i core:String.obj
 0001:0002c620       ?_Verify_range@std@@YAXAEBV?$_Vector_const_iterator@V?$_Vector_val@U?$_Simple_types@D@std@@@std@@@1@0@Z 000000014002d620 f i core:String.obj
 0001:0002c7b0       ?_Xlength@?$vector@V?$basic_string@DU?$char_traits@D@std@@V?$allocator@D@2@@std@@V?$allocator@V?$basic_string@DU?$char_traits@D@std@@V?$allocator@D@2@@std@@@2@@std@@CAXXZ 000000014002d7b0 f i core:String.obj
 0001:0002c7e0       ?append@?$basic_string@_WU?$char_traits@_W@std@@V?$allocator@_W@2@@std@@QEAAAEAV12@QEB_W_K@Z 000000014002d7e0 f i core:String.obj
 0001:0002c8f0       ?append@?$basic_string@_WU?$char_traits@_W@std@@V?$allocator@_W@2@@std@@QEAAAEAV12@_K_W@Z 000000014002d8f0 f i core:String.obj
 0001:0002ca30       ?begin@?$basic_string@DU?$char_traits@D@std@@V?$allocator@D@2@@std@@QEBA?AV?$_String_const_iterator@V?$_String_val@U?$_Simple_types@D@std@@@std@@@2@XZ 000000014002da30 f i core:String.obj
 0001:0002cb10       ?begin@?$basic_string@_WU?$char_traits@_W@std@@V?$allocator@_W@2@@std@@QEAA?AV?$_String_iterator@V?$_String_val@U?$_Simple_types@_W@std@@@std@@@2@XZ 000000014002db10 f i core:String.obj
 0001:0002cbf0       ?begin@?$vector@DV?$allocator@D@std@@@std@@QEBA?AV?$_Vector_const_iterator@V?$_Vector_val@U?$_Simple_types@D@std@@@std@@@2@XZ 000000014002dbf0 f i core:String.obj
 0001:0002cc70       ?compare@?$basic_string@DU?$char_traits@D@std@@V?$allocator@D@2@@std@@QEBAH_K0AEBV12@@Z 000000014002dc70 f i core:String.obj
 0001:0002ceb0       ?deallocate@?$allocator@V?$basic_string@DU?$char_traits@D@std@@V?$allocator@D@2@@std@@@std@@QEAAXQEAV?$basic_string@DU?$char_traits@D@std@@V?$allocator@D@2@@2@_K@Z 000000014002deb0 f i core:String.obj
 0001:0002cef0       ?do_always_noconv@?$codecvt@_WDU_Mbstatet@@@std@@MEBA_NXZ 000000014002def0 f i core:String.obj
 0001:0002cf10       ?do_always_noconv@?$codecvt_utf8_utf16@_W$0BAPPPP@$0A@@std@@MEBA_NXZ 000000014002df10 f i core:String.obj
 0001:0002cf30       ?do_encoding@?$codecvt@_WDU_Mbstatet@@@std@@MEBAHXZ 000000014002df30 f i core:String.obj
 0001:0002cf70       ?do_encoding@?$codecvt_utf8_utf16@_W$0BAPPPP@$0A@@std@@MEBAHXZ 000000014002df70 f i core:String.obj
 0001:0002cf90       ?do_in@?$codecvt@_WDU_Mbstatet@@@std@@MEBAHAEAU_Mbstatet@@PEBD1AEAPEBDPEA_W3AEAPEA_W@Z 000000014002df90 f i core:String.obj
 0001:0002d0f0       ?do_in@?$codecvt_utf8_utf16@_W$0BAPPPP@$0A@@std@@MEBAHAEAU_Mbstatet@@PEBD1AEAPEBDPEA_W3AEAPEA_W@Z 000000014002e0f0 f i core:String.obj
 0001:0002d5b0       ?do_length@?$codecvt@_WDU_Mbstatet@@@std@@MEBAHAEAU_Mbstatet@@PEBD1_K@Z 000000014002e5b0 f i core:String.obj
 0001:0002d720       ?do_length@?$codecvt_utf8_utf16@_W$0BAPPPP@$0A@@std@@MEBAHAEAU_Mbstatet@@PEBD1_K@Z 000000014002e720 f i core:String.obj
 0001:0002d770       ?do_max_length@?$codecvt@_WDU_Mbstatet@@@std@@MEBAHXZ 000000014002e770 f i core:String.obj
 0001:0002d7a0       ?do_max_length@?$codecvt_utf8_utf16@_W$0BAPPPP@$0A@@std@@MEBAHXZ 000000014002e7a0 f i core:String.obj
 0001:0002d7e0       ?do_out@?$codecvt@_WDU_Mbstatet@@@std@@MEBAHAEAU_Mbstatet@@PEB_W1AEAPEB_WPEAD3AEAPEAD@Z 000000014002e7e0 f i core:String.obj
 0001:0002da50       ?do_out@?$codecvt_utf8_utf16@_W$0BAPPPP@$0A@@std@@MEBAHAEAU_Mbstatet@@PEB_W1AEAPEB_WPEAD3AEAPEAD@Z 000000014002ea50 f i core:String.obj
 0001:0002de30       ?do_unshift@?$codecvt@_WDU_Mbstatet@@@std@@MEBAHAEAU_Mbstatet@@PEAD1AEAPEAD@Z 000000014002ee30 f i core:String.obj
 0001:0002df70       ?do_unshift@?$codecvt_utf8_utf16@_W$0BAPPPP@$0A@@std@@MEBAHAEAU_Mbstatet@@PEAD1AEAPEAD@Z 000000014002ef70 f i core:String.obj
 0001:0002dfb0       ?end@?$basic_string@DU?$char_traits@D@std@@V?$allocator@D@2@@std@@QEBA?AV?$_String_const_iterator@V?$_String_val@U?$_Simple_types@D@std@@@std@@@2@XZ 000000014002efb0 f i core:String.obj
 0001:0002e0a0       ?end@?$basic_string@_WU?$char_traits@_W@std@@V?$allocator@_W@2@@std@@QEAA?AV?$_String_iterator@V?$_String_val@U?$_Simple_types@_W@std@@@std@@@2@XZ 000000014002f0a0 f i core:String.obj
 0001:0002e1a0       ?end@?$vector@DV?$allocator@D@std@@@std@@QEBA?AV?$_Vector_const_iterator@V?$_Vector_val@U?$_Simple_types@D@std@@@std@@@2@XZ 000000014002f1a0 f i core:String.obj
 0001:0002e220       ?erase@?$basic_string@DU?$char_traits@D@std@@V?$allocator@D@2@@std@@QEAA?AV?$_String_iterator@V?$_String_val@U?$_Simple_types@D@std@@@std@@@2@V?$_String_const_iterator@V?$_String_val@U?$_Simple_types@D@std@@@std@@@2@0@Z 000000014002f220 f i core:String.obj
 0001:0002e4b0       ?find@?$basic_string@DU?$char_traits@D@std@@V?$allocator@D@2@@std@@QEBA_KAEBV12@_K@Z 000000014002f4b0 f i core:String.obj
 0001:0002e5f0       ?find_first_of@?$basic_string@DU?$char_traits@D@std@@V?$allocator@D@2@@std@@QEBA_KD_K@Z 000000014002f5f0 f i core:String.obj
 0001:0002e730       ?from_bytes@?$wstring_convert@V?$codecvt_utf8_utf16@_W$0BAPPPP@$0A@@std@@_WV?$allocator@_W@2@V?$allocator@D@2@@std@@QEAA?AV?$basic_string@_WU?$char_traits@_W@std@@V?$allocator@_W@2@@2@AEBV?$basic_string@DU?$char_traits@D@std@@V?$allocator@D@2@@2@@Z 000000014002f730 f i core:String.obj
 0001:0002e820       ?from_bytes@?$wstring_convert@V?$codecvt_utf8_utf16@_W$0BAPPPP@$0A@@std@@_WV?$allocator@_W@2@V?$allocator@D@2@@std@@QEAA?AV?$basic_string@_WU?$char_traits@_W@std@@V?$allocator@_W@2@@2@PEBD0@Z 000000014002f820 f i core:String.obj
 0001:0002ebf0       ?insert@?$basic_string@DU?$char_traits@D@std@@V?$allocator@D@2@@std@@QEAAAEAV12@_KAEBV12@@Z 000000014002fbf0 f i core:String.obj
 0001:0002ec40       ?insert@?$basic_string@DU?$char_traits@D@std@@V?$allocator@D@2@@std@@QEAAAEAV12@_KQEBD0@Z 000000014002fc40 f i core:String.obj
 0001:0002ee80       ?max_size@?$basic_string@_WU?$char_traits@_W@std@@V?$allocator@_W@2@@std@@QEBA_KXZ 000000014002fe80 f i core:String.obj
 0001:0002ef80       ?push_back@?$basic_string@_WU?$char_traits@_W@std@@V?$allocator@_W@2@@std@@QEAAX_W@Z 000000014002ff80 f i core:String.obj
 0001:0002f040       ?rfind@?$basic_string@DU?$char_traits@D@std@@V?$allocator@D@2@@std@@QEBA_KAEBV12@_K@Z 0000000140030040 f i core:String.obj
 0001:0002f180       ?to_bytes@?$wstring_convert@V?$codecvt_utf8_utf16@_W$0BAPPPP@$0A@@std@@_WV?$allocator@_W@2@V?$allocator@D@2@@std@@QEAA?AV?$basic_string@DU?$char_traits@D@std@@V?$allocator@D@2@@2@AEBV?$basic_string@_WU?$char_traits@_W@std@@V?$allocator@_W@2@@2@@Z 0000000140030180 f i core:String.obj
 0001:0002f270       ?to_bytes@?$wstring_convert@V?$codecvt_utf8_utf16@_W$0BAPPPP@$0A@@std@@_WV?$allocator@_W@2@V?$allocator@D@2@@std@@QEAA?AV?$basic_string@DU?$char_traits@D@std@@V?$allocator@D@2@@2@PEB_W0@Z 0000000140030270 f i core:String.obj
 0001:0002f640       ??0MemoryStream@io@ion@@QEAA@XZ 0000000140030640 f   core:Stream.obj
 0001:0002f6b0       ??0MemoryStream@io@ion@@QEAA@AEBV?$vector@EV?$allocator@E@std@@@std@@@Z 00000001400306b0 f   core:Stream.obj
 0001:0002f770       ??0MemoryStream@io@ion@@QEAA@PEBX_J@Z 0000000140030770 f   core:Stream.obj
 0001:0002f820       ?GetSize@MemoryStream@io@ion@@UEBA_JXZ 0000000140030820 f   core:Stream.obj
 0001:0002f870       ?GetPosition@MemoryStream@io@ion@@UEBA_JXZ 0000000140030870 f   core:Stream.obj
 0001:0002f8a0       ?Read@MemoryStream@io@ion@@UEAA_JPEAX_J@Z 00000001400308a0 f   core:Stream.obj
 0001:0002f9e0       ?Write@MemoryStream@io@ion@@UEAA_JPEBX_J@Z 00000001400309e0 f   core:Stream.obj
 0001:0002fab0       ?Seek@MemoryStream@io@ion@@UEAA_J_JW4SeekMode@23@@Z 0000000140030ab0 f   core:Stream.obj
 0001:0002fb30       ??4MemoryStream@io@ion@@QEAAAEAV012@AEBV012@@Z 0000000140030b30 f   core:Stream.obj
 0001:0002fbc0       ??$_Assign_range@PEAE@?$vector@EV?$allocator@E@std@@@std@@AEAAXPEAE0Uforward_iterator_tag@1@@Z 0000000140030bc0 f i core:Stream.obj
 0001:0002fcb0       ??$_Pocca@V?$allocator@E@std@@@std@@YAXAEAV?$allocator@E@0@AEBV10@@Z 0000000140030cb0 f i core:Stream.obj
 0001:0002fcd0       ??$_Refancy@PEAE$0A@@std@@YAPEAEPEAE@Z 0000000140030cd0 f i core:Stream.obj
 0001:0002fcf0       ??$_Verify_range@E@std@@YAXQEBE0@Z 0000000140030cf0 f i core:Stream.obj
 0001:0002fd90       ?_Clear_and_reserve_geometric@?$vector@EV?$allocator@E@std@@@std@@AEAAX_K@Z 0000000140030d90 f i core:Stream.obj
 0001:0002ffb0       ?_Copy_assign@?$vector@EV?$allocator@E@std@@@std@@AEAAXAEBV12@U?$integral_constant@_N$0A@@2@@Z 0000000140030fb0 f i core:Stream.obj
 0001:00030070       ?AllocAligned@memory@ion@@YAPEAEI_K@Z 0000000140031070 f   core:MemoryWindows.obj
 0001:000300b0       ?FreeAligned@memory@ion@@YAXPEAE@Z 00000001400310b0 f   core:MemoryWindows.obj
 0001:000300e0       ?MemSet@memory@ion@@YAXPEAXHI@Z 00000001400310e0 f   core:MemoryWindows.obj
 0001:00030130       ?MemCopy@memory@ion@@YAXPEAXPEBXI@Z 0000000140031130 f   core:MemoryWindows.obj
 0001:00030170       ?Log@debug@ion@@YAXPEBD@Z  0000000140031170 f   core:DebugWindows.obj
 0001:000301b0       ?Flush@debug@ion@@YAXXZ    00000001400311b0 f   core:DebugWindows.obj
 0001:000301e0       ?Error@debug@ion@@YAXPEBD@Z 00000001400311e0 f   core:DebugWindows.obj
 0001:00030220       ?Popup@debug@ion@@YAXPEBD0@Z 0000000140031220 f   core:DebugWindows.obj
 0001:00030260       ?Break@debug@ion@@YAXXZ    0000000140031260 f   core:DebugWindows.obj
 0001:00030280       ?PrintMemoryUsage@debug@ion@@YAXXZ 0000000140031280 f   core:DebugWindows.obj
 0001:000302b0       ?GetRAMUsed@debug@ion@@YAIXZ 00000001400312b0 f   core:DebugWindows.obj
 0001:000302d0       ??$flush@DU?$char_traits@D@std@@@std@@YAAEAV?$basic_ostream@DU?$char_traits@D@std@@@0@AEAV10@@Z 00000001400312d0 f i core:DebugWindows.obj
 0001:00030300       printf                     0000000140031300 f i core:DebugWindows.obj
 0001:00030390       ?Hash@ion@@YAIPEBD@Z       0000000140031390 f   core:Hash.obj
 0001:00030400       ?Hash@ion@@YAIPEBEH@Z      0000000140031400 f   core:Hash.obj
 0001:00030480       ?Hash64@ion@@YA_KPEBEH@Z   0000000140031480 f   core:Hash.obj
 0001:00030520       ?GetFileExists@FileDevice@io@ion@@QEBA_NAEBV?$basic_string@DU?$char_traits@D@std@@V?$allocator@D@2@@std@@@Z 0000000140031520 f   core:FileDeviceWindows.obj
 0001:00030690       ?GetDirectoryExists@FileDevice@io@ion@@QEBA_NAEBV?$basic_string@DU?$char_traits@D@std@@V?$allocator@D@2@@std@@@Z 0000000140031690 f   core:FileDeviceWindows.obj
 0001:000307e0       ?GetFileSize@FileDevice@io@ion@@QEBA_JAEBV?$basic_string@DU?$char_traits@D@std@@V?$allocator@D@2@@std@@@Z 00000001400317e0 f   core:FileDeviceWindows.obj
 0001:00030950       ?GetPathSeparator@FileDevice@io@ion@@QEBA?AV?$basic_string@DU?$char_traits@D@std@@V?$allocator@D@2@@std@@XZ 0000000140031950 f   core:FileDeviceWindows.obj
 0001:000309a0       ?CreateDirectory@FileDevice@io@ion@@QEAAXAEBV?$basic_string@DU?$char_traits@D@std@@V?$allocator@D@2@@std@@@Z 00000001400319a0 f   core:FileDeviceWindows.obj
 0001:00030bc0       ?ReadDirectory@FileDevice@io@ion@@QEAAXAEBV?$basic_string@DU?$char_traits@D@std@@V?$allocator@D@2@@std@@AEAV?$vector@UDirectoryItem@FileDevice@io@ion@@V?$allocator@UDirectoryItem@FileDevice@io@ion@@@std@@@5@@Z 0000000140031bc0 f   core:FileDeviceWindows.obj
 0001:00031030       ?DeleteFile@FileDevice@io@ion@@QEAA_NAEBV?$basic_string@DU?$char_traits@D@std@@V?$allocator@D@2@@std@@@Z 0000000140032030 f   core:FileDeviceWindows.obj
 0001:00031140       ??$_Destroy_range@V?$allocator@UDirectoryItem@FileDevice@io@ion@@@std@@@std@@YAXPEAUDirectoryItem@FileDevice@io@ion@@QEAU1234@AEAV?$allocator@UDirectoryItem@FileDevice@io@ion@@@0@@Z 0000000140032140 f i core:FileDeviceWindows.obj
 0001:000311c0       ??$_Emplace_back@UDirectoryItem@FileDevice@io@ion@@@?$_Uninitialized_backout_al@V?$allocator@UDirectoryItem@FileDevice@io@ion@@@std@@@std@@QEAAX$$QEAUDirectoryItem@FileDevice@io@ion@@@Z 00000001400321c0 f i core:FileDeviceWindows.obj
 0001:00031270       ??$_Emplace_back_with_unused_capacity@AEBUDirectoryItem@FileDevice@io@ion@@@?$vector@UDirectoryItem@FileDevice@io@ion@@V?$allocator@UDirectoryItem@FileDevice@io@ion@@@std@@@std@@AEAAXAEBUDirectoryItem@FileDevice@io@ion@@@Z 0000000140032270 f i core:FileDeviceWindows.obj
 0001:00031370       ??$_Emplace_reallocate@AEBUDirectoryItem@FileDevice@io@ion@@@?$vector@UDirectoryItem@FileDevice@io@ion@@V?$allocator@UDirectoryItem@FileDevice@io@ion@@@std@@@std@@QEAAPEAUDirectoryItem@FileDevice@io@ion@@QEAU2345@AEBU2345@@Z 0000000140032370 f i core:FileDeviceWindows.obj
 0001:000317c0       ??$_Pocma@V?$allocator@_W@std@@@std@@YAXAEAV?$allocator@_W@0@0@Z 00000001400327c0 f i core:FileDeviceWindows.obj
 0001:000317e0       ??$_Reallocate_for@V<lambda_3fa8b2c8193a0f3144fc4b1b8f243931>@@PEB_W@?$basic_string@_WU?$char_traits@_W@std@@V?$allocator@_W@2@@std@@AEAAAEAV01@_KV<lambda_3fa8b2c8193a0f3144fc4b1b8f243931>@@PEB_W@Z 00000001400327e0 f i core:FileDeviceWindows.obj
 0001:000319c0       ??$_Uninitialized_move@PEAUDirectoryItem@FileDevice@io@ion@@V?$allocator@UDirectoryItem@FileDevice@io@ion@@@std@@@std@@YAPEAUDirectoryItem@FileDevice@io@ion@@QEAU1234@0PEAU1234@AEAV?$allocator@UDirectoryItem@FileDevice@io@ion@@@0@@Z 00000001400329c0 f i core:FileDeviceWindows.obj
 0001:00031a90       ??$emplace_back@AEBUDirectoryItem@FileDevice@io@ion@@@?$vector@UDirectoryItem@FileDevice@io@ion@@V?$allocator@UDirectoryItem@FileDevice@io@ion@@@std@@@std@@QEAAXAEBUDirectoryItem@FileDevice@io@ion@@@Z 0000000140032a90 f i core:FileDeviceWindows.obj
 0001:00031b20       ??0?$basic_string@_WU?$char_traits@_W@std@@V?$allocator@_W@2@@std@@QEAA@QEB_W@Z 0000000140032b20 f i core:FileDeviceWindows.obj
 0001:00031c90       ??0?$vector@V?$basic_string@DU?$char_traits@D@std@@V?$allocator@D@2@@std@@V?$allocator@V?$basic_string@DU?$char_traits@D@std@@V?$allocator@D@2@@std@@@2@@std@@QEAA@XZ 0000000140032c90 f i core:FileDeviceWindows.obj
 0001:00031d20       ??1?$_Uninitialized_backout_al@V?$allocator@UDirectoryItem@FileDevice@io@ion@@@std@@@std@@QEAA@XZ 0000000140032d20 f i core:FileDeviceWindows.obj
 0001:00031d60       ??1?$vector@V?$basic_string@DU?$char_traits@D@std@@V?$allocator@D@2@@std@@V?$allocator@V?$basic_string@DU?$char_traits@D@std@@V?$allocator@D@2@@std@@@2@@std@@QEAA@XZ 0000000140032d60 f i core:FileDeviceWindows.obj
 0001:00031df0       ??1DirectoryItem@FileDevice@io@ion@@QEAA@XZ 0000000140032df0 f i core:FileDeviceWindows.obj
 0001:00031e10       ??A?$vector@V?$basic_string@DU?$char_traits@D@std@@V?$allocator@D@2@@std@@V?$allocator@V?$basic_string@DU?$char_traits@D@std@@V?$allocator@D@2@@std@@@2@@std@@QEAAAEAV?$basic_string@DU?$char_traits@D@std@@V?$allocator@D@2@@1@_K@Z 0000000140032e10 f i core:FileDeviceWindows.obj
 0001:00031ef0       ?_Calculate_growth@?$basic_string@_WU?$char_traits@_W@std@@V?$allocator@_W@2@@std@@AEBA_K_K@Z 0000000140032ef0 f i core:FileDeviceWindows.obj
 0001:00031ff0       ?_Calculate_growth@?$vector@UDirectoryItem@FileDevice@io@ion@@V?$allocator@UDirectoryItem@FileDevice@io@ion@@@std@@@std@@AEBA_K_K@Z 0000000140032ff0 f i core:FileDeviceWindows.obj
 0001:00032130       ?_Change_array@?$vector@UDirectoryItem@FileDevice@io@ion@@V?$allocator@UDirectoryItem@FileDevice@io@ion@@@std@@@std@@AEAAXQEAUDirectoryItem@FileDevice@io@ion@@_K1@Z 0000000140033130 f i core:FileDeviceWindows.obj
 0001:000322a0       ?_Destroy@?$vector@UDirectoryItem@FileDevice@io@ion@@V?$allocator@UDirectoryItem@FileDevice@io@ion@@@std@@@std@@AEAAXPEAUDirectoryItem@FileDevice@io@ion@@0@Z 00000001400332a0 f i core:FileDeviceWindows.obj
 0001:000322f0       ?_Move_assign@?$basic_string@_WU?$char_traits@_W@std@@V?$allocator@_W@2@@std@@AEAAXAEAV12@U_Equal_allocators@2@@Z 00000001400332f0 f i core:FileDeviceWindows.obj
 0001:00032380       ?_Orphan_range@?$vector@UDirectoryItem@FileDevice@io@ion@@V?$allocator@UDirectoryItem@FileDevice@io@ion@@@std@@@std@@AEBAXPEAUDirectoryItem@FileDevice@io@ion@@0@Z 0000000140033380 f i core:FileDeviceWindows.obj
 0001:00032440       ?_Tidy@?$vector@V?$basic_string@DU?$char_traits@D@std@@V?$allocator@D@2@@std@@V?$allocator@V?$basic_string@DU?$char_traits@D@std@@V?$allocator@D@2@@std@@@2@@std@@AEAAXXZ 0000000140033440 f i core:FileDeviceWindows.obj
 0001:00032580       ?_Xlength@?$vector@UDirectoryItem@FileDevice@io@ion@@V?$allocator@UDirectoryItem@FileDevice@io@ion@@@std@@@std@@CAXXZ 0000000140033580 f i core:FileDeviceWindows.obj
 0001:000325b0       ?append@?$basic_string@_WU?$char_traits@_W@std@@V?$allocator@_W@2@@std@@QEAAAEAV12@AEBV12@@Z 00000001400335b0 f i core:FileDeviceWindows.obj
 0001:00032600       ?assign@?$basic_string@_WU?$char_traits@_W@std@@V?$allocator@_W@2@@std@@QEAAAEAV12@QEB_W_K@Z 0000000140033600 f i core:FileDeviceWindows.obj
 0001:000326c0       ?deallocate@?$allocator@UDirectoryItem@FileDevice@io@ion@@@std@@QEAAXQEAUDirectoryItem@FileDevice@io@ion@@_K@Z 00000001400336c0 f i core:FileDeviceWindows.obj
 0001:00032700       ??0FileDevice@io@ion@@QEAA@AEBV?$basic_string@DU?$char_traits@D@std@@V?$allocator@D@2@@std@@0W4DeviceType@012@W4AccessType@012@@Z 0000000140033700 f   core:FileDevice.obj
 0001:00032870       ?GetDeviceType@FileDevice@io@ion@@QEBA?AW4DeviceType@123@XZ 0000000140033870 f   core:FileDevice.obj
 0001:000328a0       ?GetAccessType@FileDevice@io@ion@@QEBA?AW4AccessType@123@XZ 00000001400338a0 f   core:FileDevice.obj
 0001:000328d0       ?GetLabel@FileDevice@io@ion@@QEBAAEBV?$basic_string@DU?$char_traits@D@std@@V?$allocator@D@2@@std@@XZ 00000001400338d0 f   core:FileDevice.obj
 0001:00032900       ?GetMountPoint@FileDevice@io@ion@@QEBAAEBV?$basic_string@DU?$char_traits@D@std@@V?$allocator@D@2@@std@@XZ 0000000140033900 f   core:FileDevice.obj
 0001:00032930       ?SetDirectory@FileDevice@io@ion@@QEAAXAEBV?$basic_string@DU?$char_traits@D@std@@V?$allocator@D@2@@std@@@Z 0000000140033930 f   core:FileDevice.obj
 0001:00032c70       ?GetDirectory@FileDevice@io@ion@@QEBAAEBV?$basic_string@DU?$char_traits@D@std@@V?$allocator@D@2@@std@@XZ 0000000140033c70 f   core:FileDevice.obj
 0001:00032ca0       ?Copyfile@FileDevice@io@ion@@QEAA_NAEBV?$basic_string@DU?$char_traits@D@std@@V?$allocator@D@2@@std@@V45@@Z 0000000140033ca0 f   core:FileDevice.obj
 0001:00032ee0       ?GetFullPath@FileDevice@io@ion@@QEBA?AV?$basic_string@DU?$char_traits@D@std@@V?$allocator@D@2@@std@@AEBV45@@Z 0000000140033ee0 f   core:FileDevice.obj
 0001:000331c0       ?NormalisePath@FileDevice@io@ion@@QEBA?AV?$basic_string@DU?$char_traits@D@std@@V?$allocator@D@2@@std@@AEBV45@@Z 00000001400341c0 f   core:FileDevice.obj
 0001:00033460       ?CombinePath@FileDevice@io@ion@@QEBA?AV?$basic_string@DU?$char_traits@D@std@@V?$allocator@D@2@@std@@AEBV45@0@Z 0000000140034460 f   core:FileDevice.obj
 0001:00033590       ?TokenisePath@FileDevice@io@ion@@QEBAXAEBV?$basic_string@DU?$char_traits@D@std@@V?$allocator@D@2@@std@@AEAV?$vector@V?$basic_string@DU?$char_traits@D@std@@V?$allocator@D@2@@std@@V?$allocator@V?$basic_string@DU?$char_traits@D@std@@V?$allocator@D@2@@std@@@2@@5@@Z 0000000140034590 f   core:FileDevice.obj
 0001:00033640       ?GetDefault@FileDevice@io@ion@@SAPEAV123@XZ 0000000140034640 f   core:FileDevice.obj
 0001:00033670       ?SetDefault@FileDevice@io@ion@@SAXPEAV123@@Z 0000000140034670 f   core:FileDevice.obj
 0001:000336a0       ??$?HDU?$char_traits@D@std@@V?$allocator@D@1@@std@@YA?AV?$basic_string@DU?$char_traits@D@std@@V?$allocator@D@2@@0@$$QEAV10@0@Z 00000001400346a0 f i core:FileDevice.obj
 0001:00033790       ??$?HDU?$char_traits@D@std@@V?$allocator@D@1@@std@@YA?AV?$basic_string@DU?$char_traits@D@std@@V?$allocator@D@2@@0@$$QEAV10@AEBV10@@Z 0000000140034790 f i core:FileDevice.obj
 0001:00033800       ??$?HDU?$char_traits@D@std@@V?$allocator@D@1@@std@@YA?AV?$basic_string@DU?$char_traits@D@std@@V?$allocator@D@2@@0@AEBV10@0@Z 0000000140034800 f i core:FileDevice.obj
 0001:00033a10       ??$Min@_J@maths@ion@@YA_JAEB_J0@Z 0000000140034a10 f i core:FileDevice.obj
 0001:00033a70       ??0?$_String_val@U?$_Simple_types@D@std@@@std@@QEAA@XZ 0000000140034a70 f i core:FileDevice.obj
 0001:00033ac0       ??0?$basic_string@DU?$char_traits@D@std@@V?$allocator@D@2@@std@@QEAA@U_String_constructor_concat_tag@1@AEAV01@1@Z 0000000140034ac0 f i core:FileDevice.obj
 0001:000342f0       ??0?$basic_string@DU?$char_traits@D@std@@V?$allocator@D@2@@std@@QEAA@U_String_constructor_concat_tag@1@AEBV01@QEBD_K23@Z 00000001400352f0 f i core:FileDevice.obj
 0001:00034610       ??0FileSystem@io@ion@@QEAA@XZ 0000000140035610 f   core:FileSystem.obj
 0001:00034650       ??1FileSystem@io@ion@@UEAA@XZ 0000000140035650 f   core:FileSystem.obj
 0001:00034710       ?FindFileDevice@FileSystem@io@ion@@SAPEAVFileDevice@23@W4DeviceType@423@W4AccessType@423@@Z 0000000140035710 f   core:FileSystem.obj
 0001:000347f0       ?FindFileDevice@FileSystem@io@ion@@SAPEAVFileDevice@23@AEBV?$basic_string@DU?$char_traits@D@std@@V?$allocator@D@2@@std@@@Z 00000001400357f0 f   core:FileSystem.obj
 0001:00034920       ?SetDefaultFileDevice@FileSystem@io@ion@@QEAAXPEAVFileDevice@23@@Z 0000000140035920 f   core:FileSystem.obj
 0001:00034960       ?GetDefaultFileDevice@FileSystem@io@ion@@QEAAPEAVFileDevice@23@XZ 0000000140035960 f   core:FileSystem.obj
 0001:00034990       ??$_Destroy_range@V?$allocator@PEAVFileDevice@io@ion@@@std@@@std@@YAXPEAPEAVFileDevice@io@ion@@QEAPEAV123@AEAV?$allocator@PEAVFileDevice@io@ion@@@0@@Z 0000000140035990 f i core:FileSystem.obj
 0001:000349c0       ??0?$vector@PEAVFileDevice@io@ion@@V?$allocator@PEAVFileDevice@io@ion@@@std@@@std@@QEAA@XZ 00000001400359c0 f i core:FileSystem.obj
 0001:00034a50       ??1?$vector@PEAVFileDevice@io@ion@@V?$allocator@PEAVFileDevice@io@ion@@@std@@@std@@QEAA@XZ 0000000140035a50 f i core:FileSystem.obj
 0001:00034ae0       ??A?$vector@PEAVFileDevice@io@ion@@V?$allocator@PEAVFileDevice@io@ion@@@std@@@std@@QEAAAEAPEAVFileDevice@io@ion@@_K@Z 0000000140035ae0 f i core:FileSystem.obj
 0001:00034bb0       ??_GFileDevice@io@ion@@QEAAPEAXI@Z 0000000140035bb0 f i core:FileSystem.obj
 0001:00034c10       ??_GFileSystem@io@ion@@UEAAPEAXI@Z 0000000140035c10 f i core:FileSystem.obj
 0001:00034c10       ??_EFileSystem@io@ion@@UEAAPEAXI@Z 0000000140035c10 f i core:FileSystem.obj
 0001:00034c50       ?_Tidy@?$vector@PEAVFileDevice@io@ion@@V?$allocator@PEAVFileDevice@io@ion@@@std@@@std@@AEAAXXZ 0000000140035c50 f i core:FileSystem.obj
 0001:00034d80       ?InstallDefaultCrashHandler@debug@ion@@YAXXZ 0000000140035d80 f   core:CrashHandlerWindows.obj
 0001:00034db0       ?PrintCallstack@debug@ion@@YAXXZ 0000000140035db0 f   core:CrashHandlerWindows.obj
 0001:00034dd0       ?Win32GenerateMiniDump@debug@ion@@YAXPEAU_EXCEPTION_POINTERS@@@Z 0000000140035dd0 f   core:CrashHandlerWindows.obj
 0001:00034fe0       ?Win32CrashHandler@debug@ion@@YAJPEAU_EXCEPTION_POINTERS@@@Z 0000000140035fe0 f   core:CrashHandlerWindows.obj
 0001:00035010       ?GetUserDataDirectory@FileSystem@io@ion@@QEAA?AV?$basic_string@DU?$char_traits@D@std@@V?$allocator@D@2@@std@@XZ 0000000140036010 f   core:FileSystemWindows.obj
 0001:00035150       ?EnumerateDevices@FileSystem@io@ion@@AEAAXXZ 0000000140036150 f   core:FileSystemWindows.obj
 0001:00035710       ??$?0V?$_String_iterator@V?$_String_val@U?$_Simple_types@_W@std@@@std@@@std@@$0A@@?$basic_string@DU?$char_traits@D@std@@V?$allocator@D@2@@std@@QEAA@V?$_String_iterator@V?$_String_val@U?$_Simple_types@_W@std@@@std@@@1@0AEBV?$allocator@D@1@@Z 0000000140036710 f i core:FileSystemWindows.obj
 0001:00035940       ??$_Construct@PEA_W@?$basic_string@DU?$char_traits@D@std@@V?$allocator@D@2@@std@@QEAAXPEA_WQEA_WUinput_iterator_tag@1@@Z 0000000140036940 f i core:FileSystemWindows.obj
 0001:000359c0       ??$_Copy_memmove@PEAPEAVFileDevice@io@ion@@PEAPEAV123@@std@@YAPEAPEAVFileDevice@io@ion@@PEAPEAV123@00@Z 00000001400369c0 f i core:FileSystemWindows.obj
 0001:00035a40       ??$_Emplace_back_with_unused_capacity@AEBQEAVFileDevice@io@ion@@@?$vector@PEAVFileDevice@io@ion@@V?$allocator@PEAVFileDevice@io@ion@@@std@@@std@@AEAAXAEBQEAVFileDevice@io@ion@@@Z 0000000140036a40 f i core:FileSystemWindows.obj
 0001:00035b20       ??$_Emplace_reallocate@AEBQEAVFileDevice@io@ion@@@?$vector@PEAVFileDevice@io@ion@@V?$allocator@PEAVFileDevice@io@ion@@@std@@@std@@QEAAPEAPEAVFileDevice@io@ion@@QEAPEAV234@AEBQEAV234@@Z 0000000140036b20 f i core:FileSystemWindows.obj
 0001:00035f30       ??$_Uninitialized_move@PEAPEAVFileDevice@io@ion@@V?$allocator@PEAVFileDevice@io@ion@@@std@@@std@@YAPEAPEAVFileDevice@io@ion@@QEAPEAV123@0PEAPEAV123@AEAV?$allocator@PEAVFileDevice@io@ion@@@0@@Z 0000000140036f30 f i core:FileSystemWindows.obj
 0001:00035fb0       ??$emplace_back@AEBQEAVFileDevice@io@ion@@@?$vector@PEAVFileDevice@io@ion@@V?$allocator@PEAVFileDevice@io@ion@@@std@@@std@@QEAAXAEBQEAVFileDevice@io@ion@@@Z 0000000140036fb0 f i core:FileSystemWindows.obj
 0001:00036040       ??0?$basic_string@_WU?$char_traits@_W@std@@V?$allocator@_W@2@@std@@QEAA@AEBV01@_K1AEBV?$allocator@_W@1@@Z 0000000140037040 f i core:FileSystemWindows.obj
 0001:00036160       ??1?$_Tidy_deallocate_guard@V?$basic_string@DU?$char_traits@D@std@@V?$allocator@D@2@@std@@@std@@QEAA@XZ 0000000140037160 f i core:FileSystemWindows.obj
 0001:000361a0       ?_Calculate_growth@?$vector@PEAVFileDevice@io@ion@@V?$allocator@PEAVFileDevice@io@ion@@@std@@@std@@AEBA_K_K@Z 00000001400371a0 f i core:FileSystemWindows.obj
 0001:000362e0       ?_Change_array@?$vector@PEAVFileDevice@io@ion@@V?$allocator@PEAVFileDevice@io@ion@@@std@@@std@@AEAAXQEAPEAVFileDevice@io@ion@@_K1@Z 00000001400372e0 f i core:FileSystemWindows.obj
 0001:00036450       ?_Destroy@?$vector@PEAVFileDevice@io@ion@@V?$allocator@PEAVFileDevice@io@ion@@@std@@@std@@AEAAXPEAPEAVFileDevice@io@ion@@0@Z 0000000140037450 f i core:FileSystemWindows.obj
 0001:000364a0       ?_Orphan_range@?$vector@PEAVFileDevice@io@ion@@V?$allocator@PEAVFileDevice@io@ion@@@std@@@std@@AEBAXPEAPEAVFileDevice@io@ion@@0@Z 00000001400374a0 f i core:FileSystemWindows.obj
 0001:00036560       ?_Xlength@?$vector@PEAVFileDevice@io@ion@@V?$allocator@PEAVFileDevice@io@ion@@@std@@@std@@CAXXZ 0000000140037560 f i core:FileSystemWindows.obj
 0001:00036590       ?_Xran@?$_String_val@U?$_Simple_types@_W@std@@@std@@SAXXZ 0000000140037590 f i core:FileSystemWindows.obj
 0001:000365c0       ?assign@?$basic_string@_WU?$char_traits@_W@std@@V?$allocator@_W@2@@std@@QEAAAEAV12@AEBV12@_K_K@Z 00000001400375c0 f i core:FileSystemWindows.obj
 0001:00036710       ?deallocate@?$allocator@PEAVFileDevice@io@ion@@@std@@QEAAXQEAPEAVFileDevice@io@ion@@_K@Z 0000000140037710 f i core:FileSystemWindows.obj
 0001:00036750       png_create_read_struct     0000000140037750 f   png:pngread.obj
 0001:000367c0       png_create_read_struct_2   00000001400377c0 f   png:pngread.obj
 0001:000368b0       png_read_info              00000001400378b0 f   png:pngread.obj
 0001:00036d90       png_start_read_image       0000000140037d90 f   png:pngread.obj
 0001:00036df0       png_read_update_info       0000000140037df0 f   png:pngread.obj
 0001:00036e60       png_read_rows              0000000140037e60 f   png:pngread.obj
 0001:00036ff0       png_read_row               0000000140037ff0 f   png:pngread.obj
 0001:000377d0       png_read_image             00000001400387d0 f   png:pngread.obj
 0001:00037910       png_read_end               0000000140038910 f   png:pngread.obj
 0001:00037e00       png_destroy_read_struct    0000000140038e00 f   png:pngread.obj
 0001:00037e90       png_set_read_status_fn     0000000140038e90 f   png:pngread.obj
 0001:00037ed0       png_read_png               0000000140038ed0 f   png:pngread.obj
 0001:000381e0       png_image_begin_read_from_file 00000001400391e0 f   png:pngread.obj
 0001:00038300       png_image_begin_read_from_stdio 0000000140039300 f   png:pngread.obj
 0001:000383c0       png_image_begin_read_from_memory 00000001400393c0 f   png:pngread.obj
 0001:000384d0       png_image_finish_read      00000001400394d0 f   png:pngread.obj
 0001:0003e150       png_access_version_number  000000014003f150 f   png:png.obj
 0001:0003e170       png_set_sig_bytes          000000014003f170 f   png:png.obj
 0001:0003e1e0       png_sig_cmp                000000014003f1e0 f   png:png.obj
 0001:0003e2d0       png_reset_zstream          000000014003f2d0 f   png:png.obj
 0001:0003e320       png_create_info_struct     000000014003f320 f   png:png.obj
 0001:0003e380       png_info_init_3            000000014003f380 f   png:png.obj
 0001:0003e420       png_convert_to_rfc1123     000000014003f420 f   png:png.obj
 0001:0003e490       png_convert_to_rfc1123_buffer 000000014003f490 f   png:png.obj
 0001:0003e7c0       png_build_grayscale_palette 000000014003f7c0 f   png:png.obj
 0001:0003e900       png_destroy_info_struct    000000014003f900 f   png:png.obj
 0001:0003e9a0       png_init_io                000000014003f9a0 f   png:png.obj
 0001:0003e9e0       png_get_io_ptr             000000014003f9e0 f   png:png.obj
 0001:0003ea20       png_free_data              000000014003fa20 f   png:png.obj
 0001:0003f240       png_data_freer             0000000140040240 f   png:png.obj
 0001:0003f2e0       png_handle_as_unknown      00000001400402e0 f   png:png.obj
 0001:0003f3a0       png_get_copyright          00000001400403a0 f   png:png.obj
 0001:0003f3d0       png_get_header_ver         00000001400403d0 f   png:png.obj
 0001:0003f400       png_get_header_version     0000000140040400 f   png:png.obj
 0001:0003f430       png_get_libpng_ver         0000000140040430 f   png:png.obj
 0001:0003f460       png_save_int_32            0000000140040460 f   png:png.obj
 0001:0003f4a0       png_image_free             00000001400404a0 f   png:png.obj
 0001:0003f500       png_set_option             0000000140040500 f   png:png.obj
 0001:0003f5f0       png_zstream_error          00000001400405f0 f   png:png.obj
 0001:0003f760       png_fixed                  0000000140040760 f   png:png.obj
 0001:0003f7f0       png_user_version_check     00000001400407f0 f   png:png.obj
 0001:0003f9f0       png_create_png_struct      00000001400409f0 f   png:png.obj
 0001:0003fbc0       png_zalloc                 0000000140040bc0 f   png:png.obj
 0001:0003fc60       png_zfree                  0000000140040c60 f   png:png.obj
 0001:0003fca0       png_reset_crc              0000000140040ca0 f   png:png.obj
 0001:0003fce0       png_calculate_crc          0000000140040ce0 f   png:png.obj
 0001:0003fe00       png_chunk_unknown_handling 0000000140040e00 f   png:png.obj
 0001:0003fec0       png_colorspace_set_gamma   0000000140040ec0 f   png:png.obj
 0001:0003ffc0       png_colorspace_sync_info   0000000140040fc0 f   png:png.obj
 0001:000400e0       png_colorspace_sync        00000001400410e0 f   png:png.obj
 0001:00040140       png_colorspace_set_chromaticities 0000000140041140 f   png:png.obj
 0001:00040250       png_colorspace_set_endpoints 0000000140041250 f   png:png.obj
 0001:00040380       png_colorspace_set_sRGB    0000000140041380 f   png:png.obj
 0001:00040590       png_colorspace_set_ICC     0000000140041590 f   png:png.obj
 0001:00040670       png_icc_check_length       0000000140041670 f   png:png.obj
 0001:00040720       png_icc_check_header       0000000140041720 f   png:png.obj
 0001:00040ca0       png_icc_check_tag_table    0000000140041ca0 f   png:png.obj
 0001:00040e90       png_icc_set_sRGB           0000000140041e90 f   png:png.obj
 0001:00040f20       png_colorspace_set_rgb_coefficients 0000000140041f20 f   png:png.obj
 0001:000411b0       png_check_IHDR             00000001400421b0 f   png:png.obj
 0001:000414c0       png_ascii_from_fp          00000001400424c0 f   png:png.obj
 0001:00041cc0       png_ascii_from_fixed       0000000140042cc0 f   png:png.obj
 0001:00041ec0       png_check_fp_number        0000000140042ec0 f   png:png.obj
 0001:000421f0       png_check_fp_string        00000001400431f0 f   png:png.obj
 0001:00042270       png_muldiv                 0000000140043270 f   png:png.obj
 0001:00042360       png_muldiv_warn            0000000140043360 f   png:png.obj
 0001:000423d0       png_reciprocal             00000001400433d0 f   png:png.obj
 0001:00042450       png_reciprocal2            0000000140043450 f   png:png.obj
 0001:00042500       png_gamma_significant      0000000140043500 f   png:png.obj
 0001:00042550       png_gamma_correct          0000000140043550 f   png:png.obj
 0001:000425b0       png_gamma_16bit_correct    00000001400435b0 f   png:png.obj
 0001:00042640       png_gamma_8bit_correct     0000000140043640 f   png:png.obj
 0001:000426d0       png_destroy_gamma_table    00000001400436d0 f   png:png.obj
 0001:00042950       png_build_gamma_table      0000000140043950 f   png:png.obj
 0001:00042d10       png_image_error            0000000140043d10 f   png:png.obj
 0001:00044e80       png_set_longjmp_fn         0000000140045e80 f   png:pngerror.obj
 0001:00044fc0       png_longjmp                0000000140045fc0 f   png:pngerror.obj
 0001:00045030       png_set_error_fn           0000000140046030 f   png:pngerror.obj
 0001:000450a0       png_get_error_ptr          00000001400460a0 f   png:pngerror.obj
 0001:000450e0       png_error                  00000001400460e0 f   png:pngerror.obj
 0001:00045140       png_chunk_error            0000000140046140 f   png:pngerror.obj
 0001:000451c0       png_warning                00000001400461c0 f   png:pngerror.obj
 0001:00045290       png_chunk_warning          0000000140046290 f   png:pngerror.obj
 0001:00045330       png_benign_error           0000000140046330 f   png:pngerror.obj
 0001:000453f0       png_chunk_benign_error     00000001400463f0 f   png:pngerror.obj
 0001:00045450       png_free_jmpbuf            0000000140046450 f   png:pngerror.obj
 0001:00045590       png_fixed_error            0000000140046590 f   png:pngerror.obj
 0001:00045670       png_safecat                0000000140046670 f   png:pngerror.obj
 0001:00045730       png_format_number          0000000140046730 f   png:pngerror.obj
 0001:00045970       png_warning_parameter      0000000140046970 f   png:pngerror.obj
 0001:000459e0       png_warning_parameter_unsigned 00000001400469e0 f   png:pngerror.obj
 0001:00045a60       png_warning_parameter_signed 0000000140046a60 f   png:pngerror.obj
 0001:00045b40       png_formatted_warning      0000000140046b40 f   png:pngerror.obj
 0001:00045d80       png_app_warning            0000000140046d80 f   png:pngerror.obj
 0001:00045de0       png_app_error              0000000140046de0 f   png:pngerror.obj
 0001:00045e40       png_chunk_report           0000000140046e40 f   png:pngerror.obj
 0001:00045ef0       png_safe_error             0000000140046ef0 f   png:pngerror.obj
 0001:00045ff0       png_safe_warning           0000000140046ff0 f   png:pngerror.obj
 0001:00046070       png_safe_execute           0000000140047070 f   png:pngerror.obj
 0001:00046460       fprintf                    0000000140047460 f i png:pngerror.obj
 0001:000464e0       png_set_read_fn            00000001400474e0 f   png:pngrio.obj
 0001:000465a0       png_default_read_data      00000001400475a0 f   png:pngrio.obj
 0001:00046620       png_read_data              0000000140047620 f   png:pngrio.obj
 0001:00046680       png_get_compression_buffer_size 0000000140047680 f   png:pngget.obj
 0001:000466e0       png_get_rgb_to_gray_status 00000001400476e0 f   png:pngget.obj
 0001:00046730       png_get_user_chunk_ptr     0000000140047730 f   png:pngget.obj
 0001:00046780       png_get_valid              0000000140047780 f   png:pngget.obj
 0001:000467d0       png_get_rowbytes           00000001400477d0 f   png:pngget.obj
 0001:00046820       png_get_rows               0000000140047820 f   png:pngget.obj
 0001:00046870       png_get_channels           0000000140047870 f   png:pngget.obj
 0001:000468c0       png_get_image_width        00000001400478c0 f   png:pngget.obj
 0001:00046900       png_get_image_height       0000000140047900 f   png:pngget.obj
 0001:00046950       png_get_bit_depth          0000000140047950 f   png:pngget.obj
 0001:000469a0       png_get_color_type         00000001400479a0 f   png:pngget.obj
 0001:000469f0       png_get_filter_type        00000001400479f0 f   png:pngget.obj
 0001:00046a40       png_get_interlace_type     0000000140047a40 f   png:pngget.obj
 0001:00046a90       png_get_compression_type   0000000140047a90 f   png:pngget.obj
 0001:00046ae0       png_get_pixels_per_meter   0000000140047ae0 f   png:pngget.obj
 0001:00046b60       png_get_x_pixels_per_meter 0000000140047b60 f   png:pngget.obj
 0001:00046bd0       png_get_y_pixels_per_meter 0000000140047bd0 f   png:pngget.obj
 0001:00046c40       png_get_pixel_aspect_ratio 0000000140047c40 f   png:pngget.obj
 0001:00046cc0       png_get_pixel_aspect_ratio_fixed 0000000140047cc0 f   png:pngget.obj
 0001:00046d80       png_get_x_offset_pixels    0000000140047d80 f   png:pngget.obj
 0001:00046df0       png_get_y_offset_pixels    0000000140047df0 f   png:pngget.obj
 0001:00046e60       png_get_x_offset_microns   0000000140047e60 f   png:pngget.obj
 0001:00046ed0       png_get_y_offset_microns   0000000140047ed0 f   png:pngget.obj
 0001:00046f40       png_get_signature          0000000140047f40 f   png:pngget.obj
 0001:00046f90       png_get_bKGD               0000000140047f90 f   png:pngget.obj
 0001:00047000       png_get_cHRM               0000000140048000 f   png:pngget.obj
 0001:000471c0       png_get_cHRM_XYZ           00000001400481c0 f   png:pngget.obj
 0001:000473b0       png_get_cHRM_fixed         00000001400483b0 f   png:pngget.obj
 0001:000474d0       png_get_cHRM_XYZ_fixed     00000001400484d0 f   png:pngget.obj
 0001:00047610       png_get_eXIf               0000000140048610 f   png:pngget.obj
 0001:00047650       png_get_eXIf_1             0000000140048650 f   png:pngget.obj
 0001:000476e0       png_get_gAMA               00000001400486e0 f   png:pngget.obj
 0001:00047760       png_get_gAMA_fixed         0000000140048760 f   png:pngget.obj
 0001:000477d0       png_get_hIST               00000001400487d0 f   png:pngget.obj
 0001:00047840       png_get_IHDR               0000000140048840 f   png:pngget.obj
 0001:000479a0       png_get_oFFs               00000001400489a0 f   png:pngget.obj
 0001:00047a50       png_get_pCAL               0000000140048a50 f   png:pngget.obj
 0001:00047b90       png_get_pHYs               0000000140048b90 f   png:pngget.obj
 0001:00047c70       png_get_PLTE               0000000140048c70 f   png:pngget.obj
 0001:00047cf0       png_get_sBIT               0000000140048cf0 f   png:pngget.obj
 0001:00047d60       png_get_sRGB               0000000140048d60 f   png:pngget.obj
 0001:00047dd0       png_get_iCCP               0000000140048dd0 f   png:pngget.obj
 0001:00047ef0       png_get_sPLT               0000000140048ef0 f   png:pngget.obj
 0001:00047f60       png_get_text               0000000140048f60 f   png:pngget.obj
 0001:00048010       png_get_tIME               0000000140049010 f   png:pngget.obj
 0001:00048080       png_get_tRNS               0000000140049080 f   png:pngget.obj
 0001:000481a0       png_get_sCAL               00000001400491a0 f   png:pngget.obj
 0001:00048240       png_get_sCAL_fixed         0000000140049240 f   png:pngget.obj
 0001:00048310       png_get_sCAL_s             0000000140049310 f   png:pngget.obj
 0001:000483b0       png_get_unknown_chunks     00000001400493b0 f   png:pngget.obj
 0001:00048420       png_get_user_width_max     0000000140049420 f   png:pngget.obj
 0001:00048470       png_get_user_height_max    0000000140049470 f   png:pngget.obj
 0001:000484c0       png_get_chunk_cache_max    00000001400494c0 f   png:pngget.obj
 0001:00048510       png_get_chunk_malloc_max   0000000140049510 f   png:pngget.obj
 0001:00048560       png_get_pixels_per_inch    0000000140049560 f   png:pngget.obj
 0001:000485a0       png_get_x_pixels_per_inch  00000001400495a0 f   png:pngget.obj
 0001:000485e0       png_get_y_pixels_per_inch  00000001400495e0 f   png:pngget.obj
 0001:00048620       png_get_x_offset_inches    0000000140049620 f   png:pngget.obj
 0001:00048670       png_get_x_offset_inches_fixed 0000000140049670 f   png:pngget.obj
 0001:000486b0       png_get_y_offset_inches    00000001400496b0 f   png:pngget.obj
 0001:00048700       png_get_y_offset_inches_fixed 0000000140049700 f   png:pngget.obj
 0001:00048740       png_get_pHYs_dpi           0000000140049740 f   png:pngget.obj
 0001:00048890       png_get_io_state           0000000140049890 f   png:pngget.obj
 0001:000488c0       png_get_io_chunk_type      00000001400498c0 f   png:pngget.obj
 0001:000488f0       png_get_palette_max        00000001400498f0 f   png:pngget.obj
 0001:000489d0       png_set_expand             00000001400499d0 f   png:pngrtran.obj
 0001:00048a20       png_set_expand_gray_1_2_4_to_8 0000000140049a20 f   png:pngrtran.obj
 0001:00048a70       png_set_palette_to_rgb     0000000140049a70 f   png:pngrtran.obj
 0001:00048ac0       png_set_tRNS_to_alpha      0000000140049ac0 f   png:pngrtran.obj
 0001:00048b10       png_set_expand_16          0000000140049b10 f   png:pngrtran.obj
 0001:00048b60       png_set_gray_to_rgb        0000000140049b60 f   png:pngrtran.obj
 0001:00048bc0       png_set_rgb_to_gray        0000000140049bc0 f   png:pngrtran.obj
 0001:00048c40       png_set_rgb_to_gray_fixed  0000000140049c40 f   png:pngrtran.obj
 0001:00048e20       png_set_alpha_mode         0000000140049e20 f   png:pngrtran.obj
 0001:00048e70       png_set_alpha_mode_fixed   0000000140049e70 f   png:pngrtran.obj
 0001:00049130       png_set_strip_alpha        000000014004a130 f   png:pngrtran.obj
 0001:00049180       png_set_background         000000014004a180 f   png:pngrtran.obj
 0001:000491f0       png_set_background_fixed   000000014004a1f0 f   png:pngrtran.obj
 0001:00049320       png_set_scale_16           000000014004a320 f   png:pngrtran.obj
 0001:00049370       png_set_strip_16           000000014004a370 f   png:pngrtran.obj
 0001:000493c0       png_set_quantize           000000014004a3c0 f   png:pngrtran.obj
 0001:0004a640       png_set_gamma              000000014004b640 f   png:pngrtran.obj
 0001:0004a6b0       png_set_gamma_fixed        000000014004b6b0 f   png:pngrtran.obj
 0001:0004a790       png_set_crc_action         000000014004b790 f   png:pngrtran.obj
 0001:0004a990       png_set_read_user_transform_fn 000000014004b990 f   png:pngrtran.obj
 0001:0004a9e0       png_read_transform_info    000000014004b9e0 f   png:pngrtran.obj
 0001:0004ae60       png_do_read_transformations 000000014004be60 f   png:pngrtran.obj
 0001:0004b6c0       png_init_read_transformations 000000014004c6c0 f   png:pngrtran.obj
 0001:00054d20       png_set_bgr                0000000140055d20 f   png:pngtrans.obj
 0001:00054d70       png_set_swap_alpha         0000000140055d70 f   png:pngtrans.obj
 0001:00054dc0       png_set_invert_alpha       0000000140055dc0 f   png:pngtrans.obj
 0001:00054e10       png_set_filler             0000000140055e10 f   png:pngtrans.obj
 0001:00054f40       png_set_add_alpha          0000000140055f40 f   png:pngtrans.obj
 0001:00054fc0       png_set_swap               0000000140055fc0 f   png:pngtrans.obj
 0001:00055020       png_set_packing            0000000140056020 f   png:pngtrans.obj
 0001:00055080       png_set_packswap           0000000140056080 f   png:pngtrans.obj
 0001:000550e0       png_set_shift              00000001400560e0 f   png:pngtrans.obj
 0001:00055150       png_set_interlace_handling 0000000140056150 f   png:pngtrans.obj
 0001:000551b0       png_set_invert_mono        00000001400561b0 f   png:pngtrans.obj
 0001:00055200       png_set_user_transform_info 0000000140056200 f   png:pngtrans.obj
 0001:000552b0       png_get_user_transform_ptr 00000001400562b0 f   png:pngtrans.obj
 0001:000552f0       png_get_current_row_number 00000001400562f0 f   png:pngtrans.obj
 0001:00055330       png_get_current_pass_number 0000000140056330 f   png:pngtrans.obj
 0001:00055370       png_do_strip_channel       0000000140056370 f   png:pngtrans.obj
 0001:000557d0       png_do_swap                00000001400567d0 f   png:pngtrans.obj
 0001:00055880       png_do_packswap            0000000140056880 f   png:pngtrans.obj
 0001:00055970       png_do_invert              0000000140056970 f   png:pngtrans.obj
 0001:00055b40       png_do_bgr                 0000000140056b40 f   png:pngtrans.obj
 0001:00055dd0       png_do_check_palette_indexes 0000000140056dd0 f   png:pngtrans.obj
 0001:00056120       png_set_mem_fn             0000000140057120 f   png:pngmem.obj
 0001:00056190       png_get_mem_ptr            0000000140057190 f   png:pngmem.obj
 0001:000561d0       png_malloc                 00000001400571d0 f   png:pngmem.obj
 0001:00056240       png_calloc                 0000000140057240 f   png:pngmem.obj
 0001:000562a0       png_malloc_warn            00000001400572a0 f   png:pngmem.obj
 0001:00056310       png_free                   0000000140057310 f   png:pngmem.obj
 0001:00056380       png_malloc_default         0000000140057380 f   png:pngmem.obj
 0001:000563e0       png_free_default           00000001400573e0 f   png:pngmem.obj
 0001:00056430       png_malloc_base            0000000140057430 f   png:pngmem.obj
 0001:000564b0       png_malloc_array           00000001400574b0 f   png:pngmem.obj
 0001:00056510       png_realloc_array          0000000140057510 f   png:pngmem.obj
 0001:00056630       png_destroy_png_struct     0000000140057630 f   png:pngmem.obj
 0001:00056730       png_set_compression_buffer_size 0000000140057730 f   png:pngset.obj
 0001:00056870       png_set_read_user_chunk_fn 0000000140057870 f   png:pngset.obj
 0001:000568d0       png_set_benign_errors      00000001400578d0 f   png:pngset.obj
 0001:00056940       png_set_rows               0000000140057940 f   png:pngset.obj
 0001:000569f0       png_set_bKGD               00000001400579f0 f   png:pngset.obj
 0001:00056a70       png_set_cHRM               0000000140057a70 f   png:pngset.obj
 0001:00056c00       png_set_cHRM_XYZ           0000000140057c00 f   png:pngset.obj
 0001:00056dc0       png_set_cHRM_fixed         0000000140057dc0 f   png:pngset.obj
 0001:00056ec0       png_set_cHRM_XYZ_fixed     0000000140057ec0 f   png:pngset.obj
 0001:00056fd0       png_set_eXIf               0000000140057fd0 f   png:pngset.obj
 0001:00057010       png_set_eXIf_1             0000000140058010 f   png:pngset.obj
 0001:00057160       png_set_gAMA               0000000140058160 f   png:pngset.obj
 0001:000571c0       png_set_gAMA_fixed         00000001400581c0 f   png:pngset.obj
 0001:00057230       png_set_hIST               0000000140058230 f   png:pngset.obj
 0001:00057370       png_set_IHDR               0000000140058370 f   png:pngset.obj
 0001:00057550       png_set_oFFs               0000000140058550 f   png:pngset.obj
 0001:000575e0       png_set_pCAL               00000001400585e0 f   png:pngset.obj
 0001:00057ae0       png_set_pHYs               0000000140058ae0 f   png:pngset.obj
 0001:00057b70       png_set_PLTE               0000000140058b70 f   png:pngset.obj
 0001:00057d40       png_set_sBIT               0000000140058d40 f   png:pngset.obj
 0001:00057dc0       png_set_sRGB               0000000140058dc0 f   png:pngset.obj
 0001:00057e30       png_set_sRGB_gAMA_and_cHRM 0000000140058e30 f   png:pngset.obj
 0001:00057eb0       png_set_iCCP               0000000140058eb0 f   png:pngset.obj
 0001:00058140       png_set_sPLT               0000000140059140 f   png:pngset.obj
 0001:00058440       png_set_text               0000000140059440 f   png:pngset.obj
 0001:000584b0       png_set_tIME               00000001400594b0 f   png:pngset.obj
 0001:000585b0       png_set_tRNS               00000001400595b0 f   png:pngset.obj
 0001:00058790       png_set_sCAL               0000000140059790 f   png:pngset.obj
 0001:000588b0       png_set_sCAL_fixed         00000001400598b0 f   png:pngset.obj
 0001:000589b0       png_set_sCAL_s             00000001400599b0 f   png:pngset.obj
 0001:00058c80       png_set_keep_unknown_chunks 0000000140059c80 f   png:pngset.obj
 0001:00058fa0       png_set_unknown_chunks     0000000140059fa0 f   png:pngset.obj
 0001:000591e0       png_set_unknown_chunk_location 000000014005a1e0 f   png:pngset.obj
 0001:000592a0       png_set_invalid            000000014005a2a0 f   png:pngset.obj
 0001:00059300       png_permit_mng_features    000000014005a300 f   png:pngset.obj
 0001:00059350       png_set_user_limits        000000014005a350 f   png:pngset.obj
 0001:000593b0       png_set_chunk_cache_max    000000014005a3b0 f   png:pngset.obj
 0001:000593f0       png_set_chunk_malloc_max   000000014005a3f0 f   png:pngset.obj
 0001:00059430       png_set_check_for_invalid_index 000000014005a430 f   png:pngset.obj
 0001:00059480       png_set_text_2             000000014005a480 f   png:pngset.obj
 0001:00059bb0       png_check_keyword          000000014005abb0 f   png:pngset.obj
 0001:00059fa0       png_get_uint_32            000000014005afa0 f   png:pngrutil.obj
 0001:0005a000       png_get_uint_16            000000014005b000 f   png:pngrutil.obj
 0001:0005a040       png_get_int_32             000000014005b040 f   png:pngrutil.obj
 0001:0005a0d0       png_get_uint_31            000000014005b0d0 f   png:pngrutil.obj
 0001:0005a150       png_read_sig               000000014005b150 f   png:pngrutil.obj
 0001:0005a280       png_read_chunk_header      000000014005b280 f   png:pngrutil.obj
 0001:0005a3c0       png_crc_read               000000014005b3c0 f   png:pngrutil.obj
 0001:0005a420       png_crc_finish             000000014005b420 f   png:pngrutil.obj
 0001:0005a590       png_crc_error              000000014005b590 f   png:pngrutil.obj
 0001:0005a6a0       png_combine_row            000000014005b6a0 f   png:pngrutil.obj
 0001:0005b410       png_do_read_interlace      000000014005c410 f   png:pngrutil.obj
 0001:0005bd70       png_read_filter_row        000000014005cd70 f   png:pngrutil.obj
 0001:0005be00       png_read_IDAT_data         000000014005ce00 f   png:pngrutil.obj
 0001:0005c210       png_read_finish_IDAT       000000014005d210 f   png:pngrutil.obj
 0001:0005c300       png_read_finish_row        000000014005d300 f   png:pngrutil.obj
 0001:0005c500       png_read_start_row         000000014005d500 f   png:pngrutil.obj
 0001:0005cc00       png_zlib_inflate           000000014005dc00 f   png:pngrutil.obj
 0001:0005cca0       png_handle_IHDR            000000014005dca0 f   png:pngrutil.obj
 0001:0005cff0       png_handle_PLTE            000000014005dff0 f   png:pngrutil.obj
 0001:0005d3c0       png_handle_IEND            000000014005e3c0 f   png:pngrutil.obj
 0001:0005d460       png_handle_bKGD            000000014005e460 f   png:pngrutil.obj
 0001:0005d890       png_handle_cHRM            000000014005e890 f   png:pngrutil.obj
 0001:0005db70       png_handle_eXIf            000000014005eb70 f   png:pngrutil.obj
 0001:0005ddf0       png_handle_gAMA            000000014005edf0 f   png:pngrutil.obj
 0001:0005df00       png_handle_hIST            000000014005ef00 f   png:pngrutil.obj
 0001:0005e110       png_handle_iCCP            000000014005f110 f   png:pngrutil.obj
 0001:0005e990       png_handle_iTXt            000000014005f990 f   png:pngrutil.obj
 0001:0005ee70       png_handle_oFFs            000000014005fe70 f   png:pngrutil.obj
 0001:0005f0f0       png_handle_pCAL            00000001400600f0 f   png:pngrutil.obj
 0001:0005f660       png_handle_pHYs            0000000140060660 f   png:pngrutil.obj
 0001:0005f830       png_handle_sBIT            0000000140060830 f   png:pngrutil.obj
 0001:0005fb40       png_handle_sCAL            0000000140060b40 f   png:pngrutil.obj
 0001:0005feb0       png_handle_sPLT            0000000140060eb0 f   png:pngrutil.obj
 0001:00060400       png_handle_sRGB            0000000140061400 f   png:pngrutil.obj
 0001:00060580       png_handle_tEXt            0000000140061580 f   png:pngrutil.obj
 0001:00060840       png_handle_tIME            0000000140061840 f   png:pngrutil.obj
 0001:00060a00       png_handle_tRNS            0000000140061a00 f   png:pngrutil.obj
 0001:00060e20       png_handle_zTXt            0000000140061e20 f   png:pngrutil.obj
 0001:000611c0       png_check_chunk_name       00000001400621c0 f   png:pngrutil.obj
 0001:00061250       png_check_chunk_length     0000000140062250 f   png:pngrutil.obj
 0001:00061450       png_handle_unknown         0000000140062450 f   png:pngrutil.obj
 0001:00062e90       png_create_write_struct    0000000140063e90 f   png:pngwrite.obj
 0001:00062f00       png_create_write_struct_2  0000000140063f00 f   png:pngwrite.obj
 0001:00063060       png_write_info_before_PLTE 0000000140064060 f   png:pngwrite.obj
 0001:000632f0       png_write_info             00000001400642f0 f   png:pngwrite.obj
 0001:00063950       png_convert_from_struct_tm 0000000140064950 f   png:pngwrite.obj
 0001:000639e0       png_convert_from_time_t    00000001400649e0 f   png:pngwrite.obj
 0001:00063a30       png_set_flush              0000000140064a30 f   png:pngwrite.obj
 0001:00063a90       png_write_flush            0000000140064a90 f   png:pngwrite.obj
 0001:00063b10       png_write_row              0000000140064b10 f   png:pngwrite.obj
 0001:00063f80       png_write_rows             0000000140064f80 f   png:pngwrite.obj
 0001:00064000       png_write_image            0000000140065000 f   png:pngwrite.obj
 0001:000640b0       png_write_end              00000001400650b0 f   png:pngwrite.obj
 0001:00064430       png_destroy_write_struct   0000000140065430 f   png:pngwrite.obj
 0001:000644b0       png_set_filter             00000001400654b0 f   png:pngwrite.obj
 0001:000647d0       png_set_filter_heuristics  00000001400657d0 f   png:pngwrite.obj
 0001:00064800       png_set_filter_heuristics_fixed 0000000140065800 f   png:pngwrite.obj
 0001:00064830       png_set_compression_level  0000000140065830 f   png:pngwrite.obj
 0001:00064870       png_set_compression_mem_level 0000000140065870 f   png:pngwrite.obj
 0001:000648b0       png_set_compression_strategy 00000001400658b0 f   png:pngwrite.obj
 0001:00064910       png_set_compression_window_bits 0000000140065910 f   png:pngwrite.obj
 0001:00064990       png_set_compression_method 0000000140065990 f   png:pngwrite.obj
 0001:000649f0       png_set_text_compression_level 00000001400659f0 f   png:pngwrite.obj
 0001:00064a30       png_set_text_compression_mem_level 0000000140065a30 f   png:pngwrite.obj
 0001:00064a70       png_set_text_compression_strategy 0000000140065a70 f   png:pngwrite.obj
 0001:00064ab0       png_set_text_compression_window_bits 0000000140065ab0 f   png:pngwrite.obj
 0001:00064b30       png_set_text_compression_method 0000000140065b30 f   png:pngwrite.obj
 0001:00064b90       png_set_write_status_fn    0000000140065b90 f   png:pngwrite.obj
 0001:00064bd0       png_set_write_user_transform_fn 0000000140065bd0 f   png:pngwrite.obj
 0001:00064c30       png_write_png              0000000140065c30 f   png:pngwrite.obj
 0001:00064e10       png_image_write_to_file    0000000140065e10 f   png:pngwrite.obj
 0001:00064fb0       png_image_write_to_stdio   0000000140065fb0 f   png:pngwrite.obj
 0001:00065120       png_image_write_to_memory  0000000140066120 f   png:pngwrite.obj
 0001:00067190       png_write_sig              0000000140068190 f   png:pngwutil.obj
 0001:00067270       png_write_chunk            0000000140068270 f   png:pngwutil.obj
 0001:00067330       png_write_chunk_start      0000000140068330 f   png:pngwutil.obj
 0001:000673e0       png_write_chunk_data       00000001400683e0 f   png:pngwutil.obj
 0001:00067450       png_write_chunk_end        0000000140068450 f   png:pngwutil.obj
 0001:000674c0       png_save_uint_32           00000001400684c0 f   png:pngwutil.obj
 0001:00067560       png_save_uint_16           0000000140068560 f   png:pngwutil.obj
 0001:000675c0       png_free_buffer_list       00000001400685c0 f   png:pngwutil.obj
 0001:00067640       png_write_IHDR             0000000140068640 f   png:pngwutil.obj
 0001:00067c80       png_write_PLTE             0000000140068c80 f   png:pngwutil.obj
 0001:00067e50       png_compress_IDAT          0000000140068e50 f   png:pngwutil.obj
 0001:00068250       png_write_IEND             0000000140069250 f   png:pngwutil.obj
 0001:000682a0       png_write_gAMA_fixed       00000001400692a0 f   png:pngwutil.obj
 0001:000682f0       png_write_sBIT             00000001400692f0 f   png:pngwutil.obj
 0001:000684f0       png_write_cHRM_fixed       00000001400694f0 f   png:pngwutil.obj
 0001:000685f0       png_write_sRGB             00000001400695f0 f   png:pngwutil.obj
 0001:00068660       png_write_eXIf             0000000140069660 f   png:pngwutil.obj
 0001:00068700       png_write_iCCP             0000000140069700 f   png:pngwutil.obj
 0001:00068990       png_write_sPLT             0000000140069990 f   png:pngwutil.obj
 0001:00068c20       png_write_tRNS             0000000140069c20 f   png:pngwutil.obj
 0001:00068e10       png_write_bKGD             0000000140069e10 f   png:pngwutil.obj
 0001:00069010       png_write_hIST             000000014006a010 f   png:pngwutil.obj
 0001:000690d0       png_write_tEXt             000000014006a0d0 f   png:pngwutil.obj
 0001:00069270       png_write_zTXt             000000014006a270 f   png:pngwutil.obj
 0001:00069490       png_write_iTXt             000000014006a490 f   png:pngwutil.obj
 0001:000698a0       png_write_oFFs             000000014006a8a0 f   png:pngwutil.obj
 0001:00069950       png_write_pCAL             000000014006a950 f   png:pngwutil.obj
 0001:00069c80       png_write_pHYs             000000014006ac80 f   png:pngwutil.obj
 0001:00069d30       png_write_tIME             000000014006ad30 f   png:pngwutil.obj
 0001:00069e80       png_write_sCAL_s           000000014006ae80 f   png:pngwutil.obj
 0001:00069ff0       png_write_finish_row       000000014006aff0 f   png:pngwutil.obj
 0001:0006a2c0       png_write_start_row        000000014006b2c0 f   png:pngwutil.obj
 0001:0006a640       png_do_write_interlace     000000014006b640 f   png:pngwutil.obj
 0001:0006abf0       png_write_find_filter      000000014006bbf0 f   png:pngwutil.obj
 0001:0006d080       png_set_write_fn           000000014006e080 f   png:pngwio.obj
 0001:0006d160       png_default_write_data     000000014006e160 f   png:pngwio.obj
 0001:0006d1e0       png_default_flush          000000014006e1e0 f   png:pngwio.obj
 0001:0006d230       png_write_data             000000014006e230 f   png:pngwio.obj
 0001:0006d2a0       png_flush                  000000014006e2a0 f   png:pngwio.obj
 0001:0006d2e0       png_do_write_transformations 000000014006e2e0 f   png:pngwtran.obj
 0001:0006e770       ??1Shader@render@ion@@UEAA@XZ 000000014006f770 f   renderer:Shader.obj
 0001:0006e7b0       ?SetProgram@Shader@render@ion@@QEAAXAEBV?$basic_string@DU?$char_traits@D@std@@V?$allocator@D@2@@std@@00W4ProgramType@123@@Z 000000014006f7b0 f   renderer:Shader.obj
 0001:0006e940       ?GetProgram@Shader@render@ion@@QEAAPEAUProgram@123@AEBV?$basic_string@DU?$char_traits@D@std@@V?$allocator@D@2@@std@@W4ProgramType@123@@Z 000000014006f940 f   renderer:Shader.obj
 0001:0006ed10       ?Serialise@Shader@render@ion@@QEAAXAEAVArchive@io@3@@Z 000000014006fd10 f   renderer:Shader.obj
 0001:0006ed90       ??0Shader@render@ion@@IEAA@XZ 000000014006fd90 f   renderer:Shader.obj
 0001:0006ede0       ??$?0$$QEAH$$Z$$V@?$pair@$$CBHUProgram@Shader@render@ion@@@std@@QEAA@Upiecewise_construct_t@1@V?$tuple@$$QEAH@1@V?$tuple@$$V@1@@Z 000000014006fde0 f i renderer:Shader.obj
 0001:0006eeb0       ??$?0AEAV?$basic_string@DU?$char_traits@D@std@@V?$allocator@D@2@@std@@V?$map@HUProgram@Shader@render@ion@@U?$less@H@std@@V?$allocator@U?$pair@$$CBHUProgram@Shader@render@ion@@@std@@@6@@1@$0A@@?$pair@V?$basic_string@DU?$char_traits@D@std@@V?$allocator@D@2@@std@@V?$map@HUProgram@Shader@render@ion@@U?$less@H@std@@V?$allocator@U?$pair@$$CBHUProgram@Shader@render@ion@@@std@@@6@@2@@std@@QEAA@AEAV?$basic_string@DU?$char_traits@D@std@@V?$allocator@D@2@@1@$$QEAV?$map@HUProgram@Shader@render@ion@@U?$less@H@std@@V?$allocator@U?$pair@$$CBHUProgram@Shader@render@ion@@@std@@@6@@1@@Z 000000014006feb0 f i renderer:Shader.obj
 0001:0006ef30       ??$?0AEBU?$less@H@std@@U_Zero_then_variadic_args_t@1@@?$_Compressed_pair@U?$less@H@std@@V?$_Compressed_pair@V?$allocator@U?$_Tree_node@U?$pair@$$CBHUProgram@Shader@render@ion@@@std@@PEAX@std@@@std@@V?$_Tree_val@U?$_Tree_simple_types@U?$pair@$$CBHUProgram@Shader@render@ion@@@std@@@std@@@2@$00@2@$00@std@@QEAA@U_One_then_variadic_args_t@1@AEBU?$less@H@1@$$QEAU_Zero_then_variadic_args_t@1@@Z 000000014006ff30 f i renderer:Shader.obj
 0001:0006efb0       ??$?0AEBUpiecewise_construct_t@std@@V?$tuple@$$QEAH@1@V?$tuple@$$V@1@@?$_Tree_temp_node@V?$allocator@U?$_Tree_node@U?$pair@$$CBHUProgram@Shader@render@ion@@@std@@PEAX@std@@@std@@@std@@QEAA@AEAV?$allocator@U?$_Tree_node@U?$pair@$$CBHUProgram@Shader@render@ion@@@std@@PEAX@std@@@1@PEAU?$_Tree_node@U?$pair@$$CBHUProgram@Shader@render@ion@@@std@@PEAX@1@AEBUpiecewise_construct_t@1@$$QEAV?$tuple@$$QEAH@1@$$QEAV?$tuple@$$V@1@@Z 000000014006ffb0 f i renderer:Shader.obj
 0001:0006f160       ??$?0AEBUpiecewise_construct_t@std@@V?$tuple@AEBV?$basic_string@DU?$char_traits@D@std@@V?$allocator@D@2@@std@@@1@V?$tuple@$$V@1@@?$_Tree_temp_node@V?$allocator@U?$_Tree_node@U?$pair@$$CBV?$basic_string@DU?$char_traits@D@std@@V?$allocator@D@2@@std@@V?$map@HUProgram@Shader@render@ion@@U?$less@H@std@@V?$allocator@U?$pair@$$CBHUProgram@Shader@render@ion@@@std@@@6@@2@@std@@PEAX@std@@@std@@@std@@QEAA@AEAV?$allocator@U?$_Tree_node@U?$pair@$$CBV?$basic_string@DU?$char_traits@D@std@@V?$allocator@D@2@@std@@V?$map@HUProgram@Shader@render@ion@@U?$less@H@std@@V?$allocator@U?$pair@$$CBHUProgram@Shader@render@ion@@@std@@@6@@2@@std@@PEAX@std@@@1@PEAU?$_Tree_node@U?$pair@$$CBV?$basic_string@DU?$char_traits@D@std@@V?$allocator@D@2@@std@@V?$map@HUProgram@Shader@render@ion@@U?$less@H@std@@V?$allocator@U?$pair@$$CBHUProgram@Shader@render@ion@@@std@@@6@@2@@std@@PEAX@1@AEBUpiecewise_construct_t@1@$$QEAV?$tuple@AEBV?$basic_string@DU?$char_traits@D@std@@V?$allocator@D@2@@std@@@1@$$QEAV?$tuple@$$V@1@@Z 0000000140070160 f i renderer:Shader.obj
 0001:0006f310       ??$?0AEBV?$basic_string@DU?$char_traits@D@std@@V?$allocator@D@2@@std@@$$Z$$V@?$pair@$$CBV?$basic_string@DU?$char_traits@D@std@@V?$allocator@D@2@@std@@V?$map@HUProgram@Shader@render@ion@@U?$less@H@std@@V?$allocator@U?$pair@$$CBHUProgram@Shader@render@ion@@@std@@@6@@2@@std@@QEAA@Upiecewise_construct_t@1@V?$tuple@AEBV?$basic_string@DU?$char_traits@D@std@@V?$allocator@D@2@@std@@@1@V?$tuple@$$V@1@@Z 0000000140070310 f i renderer:Shader.obj
 0001:0006f3c0       ??$?0HUProgram@Shader@render@ion@@$0A@@?$pair@$$CBHUProgram@Shader@render@ion@@@std@@QEAA@$$QEAU?$pair@HUProgram@Shader@render@ion@@@1@@Z 00000001400703c0 f i renderer:Shader.obj
 0001:0006f450       ??$?0U?$pair@HUProgram@Shader@render@ion@@@std@@@?$_Tree_temp_node@V?$allocator@U?$_Tree_node@U?$pair@$$CBHUProgram@Shader@render@ion@@@std@@PEAX@std@@@std@@@std@@QEAA@AEAV?$allocator@U?$_Tree_node@U?$pair@$$CBHUProgram@Shader@render@ion@@@std@@PEAX@std@@@1@PEAU?$_Tree_node@U?$pair@$$CBHUProgram@Shader@render@ion@@@std@@PEAX@1@$$QEAU?$pair@HUProgram@Shader@render@ion@@@1@@Z 0000000140070450 f i renderer:Shader.obj
 0001:0006f560       ??$?0U?$pair@V?$basic_string@DU?$char_traits@D@std@@V?$allocator@D@2@@std@@V?$map@HUProgram@Shader@render@ion@@U?$less@H@std@@V?$allocator@U?$pair@$$CBHUProgram@Shader@render@ion@@@std@@@6@@2@@std@@@?$_Tree_temp_node@V?$allocator@U?$_Tree_node@U?$pair@$$CBV?$basic_string@DU?$char_traits@D@std@@V?$allocator@D@2@@std@@V?$map@HUProgram@Shader@render@ion@@U?$less@H@std@@V?$allocator@U?$pair@$$CBHUProgram@Shader@render@ion@@@std@@@6@@2@@std@@PEAX@std@@@std@@@std@@QEAA@AEAV?$allocator@U?$_Tree_node@U?$pair@$$CBV?$basic_string@DU?$char_traits@D@std@@V?$allocator@D@2@@std@@V?$map@HUProgram@Shader@render@ion@@U?$less@H@std@@V?$allocator@U?$pair@$$CBHUProgram@Shader@render@ion@@@std@@@6@@2@@std@@PEAX@std@@@1@PEAU?$_Tree_node@U?$pair@$$CBV?$basic_string@DU?$char_traits@D@std@@V?$allocator@D@2@@std@@V?$map@HUProgram@Shader@render@ion@@U?$less@H@std@@V?$allocator@U?$pair@$$CBHUProgram@Shader@render@ion@@@std@@@6@@2@@std@@PEAX@1@$$QEAU?$pair@V?$basic_string@DU?$char_traits@D@std@@V?$allocator@D@2@@std@@V?$map@HUProgram@Shader@render@ion@@U?$less@H@std@@V?$allocator@U?$pair@$$CBHUProgram@Shader@render@ion@@@std@@@6@@2@@1@@Z 0000000140070560 f i renderer:Shader.obj
 0001:0006f670       ??$?0V?$basic_string@DU?$char_traits@D@std@@V?$allocator@D@2@@std@@V?$map@HUProgram@Shader@render@ion@@U?$less@H@std@@V?$allocator@U?$pair@$$CBHUProgram@Shader@render@ion@@@std@@@6@@1@$0A@@?$pair@$$CBV?$basic_string@DU?$char_traits@D@std@@V?$allocator@D@2@@std@@V?$map@HUProgram@Shader@render@ion@@U?$less@H@std@@V?$allocator@U?$pair@$$CBHUProgram@Shader@render@ion@@@std@@@6@@2@@std@@QEAA@$$QEAU?$pair@V?$basic_string@DU?$char_traits@D@std@@V?$allocator@D@2@@std@@V?$map@HUProgram@Shader@render@ion@@U?$less@H@std@@V?$allocator@U?$pair@$$CBHUProgram@Shader@render@ion@@@std@@@6@@2@@1@@Z 0000000140070670 f i renderer:Shader.obj
 0001:0006f6f0       ??$Serialise@HUProgram@Shader@render@ion@@@Archive@io@ion@@QEAAXAEAV?$map@HUProgram@Shader@render@ion@@U?$less@H@std@@V?$allocator@U?$pair@$$CBHUProgram@Shader@render@ion@@@std@@@6@@std@@@Z 00000001400706f0 f i renderer:Shader.obj
 0001:0006fc10       ??$Serialise@UProgram@Shader@render@ion@@@Archive@io@ion@@QEAAXAEAUProgram@Shader@render@2@@Z 0000000140070c10 f i renderer:Shader.obj
 0001:0006fc40       ??$Serialise@UProgram@Shader@render@ion@@@Archive@io@ion@@QEAAXAEAUProgram@Shader@render@2@AEBUTag@012@@Z 0000000140070c40 f i renderer:Shader.obj
 0001:0006fca0       ??$Serialise@V?$basic_string@DU?$char_traits@D@std@@V?$allocator@D@2@@std@@V?$map@HUProgram@Shader@render@ion@@U?$less@H@std@@V?$allocator@U?$pair@$$CBHUProgram@Shader@render@ion@@@std@@@6@@2@@Archive@io@ion@@QEAAXAEAV?$map@V?$basic_string@DU?$char_traits@D@std@@V?$allocator@D@2@@std@@V?$map@HUProgram@Shader@render@ion@@U?$less@H@std@@V?$allocator@U?$pair@$$CBHUProgram@Shader@render@ion@@@std@@@6@@2@U?$less@V?$basic_string@DU?$char_traits@D@std@@V?$allocator@D@2@@std@@@2@V?$allocator@U?$pair@$$CBV?$basic_string@DU?$char_traits@D@std@@V?$allocator@D@2@@std@@V?$map@HUProgram@Shader@render@ion@@U?$less@H@std@@V?$allocator@U?$pair@$$CBHUProgram@Shader@render@ion@@@std@@@6@@2@@std@@@2@@std@@@Z 0000000140070ca0 f i renderer:Shader.obj
 0001:00070180       ??$Serialise@V?$map@HUProgram@Shader@render@ion@@U?$less@H@std@@V?$allocator@U?$pair@$$CBHUProgram@Shader@render@ion@@@std@@@6@@std@@@Archive@io@ion@@QEAAXAEAV?$map@HUProgram@Shader@render@ion@@U?$less@H@std@@V?$allocator@U?$pair@$$CBHUProgram@Shader@render@ion@@@std@@@6@@std@@AEBUTag@012@@Z 0000000140071180 f i renderer:Shader.obj
 0001:000701e0       ??$Serialise@V?$map@V?$basic_string@DU?$char_traits@D@std@@V?$allocator@D@2@@std@@V?$map@HUProgram@Shader@render@ion@@U?$less@H@std@@V?$allocator@U?$pair@$$CBHUProgram@Shader@render@ion@@@std@@@6@@2@U?$less@V?$basic_string@DU?$char_traits@D@std@@V?$allocator@D@2@@std@@@2@V?$allocator@U?$pair@$$CBV?$basic_string@DU?$char_traits@D@std@@V?$allocator@D@2@@std@@V?$map@HUProgram@Shader@render@ion@@U?$less@H@std@@V?$allocator@U?$pair@$$CBHUProgram@Shader@render@ion@@@std@@@6@@2@@std@@@2@@std@@@Archive@io@ion@@QEAAXAEAV?$map@V?$basic_string@DU?$char_traits@D@std@@V?$allocator@D@2@@std@@V?$map@HUProgram@Shader@render@ion@@U?$less@H@std@@V?$allocator@U?$pair@$$CBHUProgram@Shader@render@ion@@@std@@@6@@2@U?$less@V?$basic_string@DU?$char_traits@D@std@@V?$allocator@D@2@@std@@@2@V?$allocator@U?$pair@$$CBV?$basic_string@DU?$char_traits@D@std@@V?$allocator@D@2@@std@@V?$map@HUProgram@Shader@render@ion@@U?$less@H@std@@V?$allocator@U?$pair@$$CBHUProgram@Shader@render@ion@@@std@@@6@@2@@std@@@2@@std@@AEBUTag@012@@Z 00000001400711e0 f i renderer:Shader.obj
 0001:00070240       ??$_Buyheadnode@V?$allocator@U?$_Tree_node@U?$pair@$$CBHUProgram@Shader@render@ion@@@std@@PEAX@std@@@std@@@?$_Tree_node@U?$pair@$$CBHUProgram@Shader@render@ion@@@std@@PEAX@std@@SAPEAU01@AEAV?$allocator@U?$_Tree_node@U?$pair@$$CBHUProgram@Shader@render@ion@@@std@@PEAX@std@@@1@@Z 0000000140071240 f i renderer:Shader.obj
 0001:00070300       ??$_Buyheadnode@V?$allocator@U?$_Tree_node@U?$pair@$$CBV?$basic_string@DU?$char_traits@D@std@@V?$allocator@D@2@@std@@V?$map@HUProgram@Shader@render@ion@@U?$less@H@std@@V?$allocator@U?$pair@$$CBHUProgram@Shader@render@ion@@@std@@@6@@2@@std@@PEAX@std@@@std@@@?$_Tree_node@U?$pair@$$CBV?$basic_string@DU?$char_traits@D@std@@V?$allocator@D@2@@std@@V?$map@HUProgram@Shader@render@ion@@U?$less@H@std@@V?$allocator@U?$pair@$$CBHUProgram@Shader@render@ion@@@std@@@6@@2@@std@@PEAX@std@@SAPEAU01@AEAV?$allocator@U?$_Tree_node@U?$pair@$$CBV?$basic_string@DU?$char_traits@D@std@@V?$allocator@D@2@@std@@V?$map@HUProgram@Shader@render@ion@@U?$less@H@std@@V?$allocator@U?$pair@$$CBHUProgram@Shader@render@ion@@@std@@@6@@2@@std@@PEAX@std@@@1@@Z 0000000140071300 f i renderer:Shader.obj
 0001:000703c0       ??$_Construct_in_place@PEAU?$_Tree_node@U?$pair@$$CBHUProgram@Shader@render@ion@@@std@@PEAX@std@@AEAPEAU12@@std@@YAXAEAPEAU?$_Tree_node@U?$pair@$$CBHUProgram@Shader@render@ion@@@std@@PEAX@0@0@Z 00000001400713c0 f i renderer:Shader.obj
 0001:00070410       ??$_Construct_in_place@PEAU?$_Tree_node@U?$pair@$$CBHUProgram@Shader@render@ion@@@std@@PEAX@std@@AEBQEAU12@@std@@YAXAEAPEAU?$_Tree_node@U?$pair@$$CBHUProgram@Shader@render@ion@@@std@@PEAX@0@AEBQEAU10@@Z 0000000140071410 f i renderer:Shader.obj
 0001:00070460       ??$_Construct_in_place@PEAU?$_Tree_node@U?$pair@$$CBV?$basic_string@DU?$char_traits@D@std@@V?$allocator@D@2@@std@@V?$map@HUProgram@Shader@render@ion@@U?$less@H@std@@V?$allocator@U?$pair@$$CBHUProgram@Shader@render@ion@@@std@@@6@@2@@std@@PEAX@std@@AEAPEAU12@@std@@YAXAEAPEAU?$_Tree_node@U?$pair@$$CBV?$basic_string@DU?$char_traits@D@std@@V?$allocator@D@2@@std@@V?$map@HUProgram@Shader@render@ion@@U?$less@H@std@@V?$allocator@U?$pair@$$CBHUProgram@Shader@render@ion@@@std@@@6@@2@@std@@PEAX@0@0@Z 0000000140071460 f i renderer:Shader.obj
 0001:000704b0       ??$_Construct_in_place@PEAU?$_Tree_node@U?$pair@$$CBV?$basic_string@DU?$char_traits@D@std@@V?$allocator@D@2@@std@@V?$map@HUProgram@Shader@render@ion@@U?$less@H@std@@V?$allocator@U?$pair@$$CBHUProgram@Shader@render@ion@@@std@@@6@@2@@std@@PEAX@std@@AEBQEAU12@@std@@YAXAEAPEAU?$_Tree_node@U?$pair@$$CBV?$basic_string@DU?$char_traits@D@std@@V?$allocator@D@2@@std@@V?$map@HUProgram@Shader@render@ion@@U?$less@H@std@@V?$allocator@U?$pair@$$CBHUProgram@Shader@render@ion@@@std@@@6@@2@@std@@PEAX@0@AEBQEAU10@@Z 00000001400714b0 f i renderer:Shader.obj
 0001:00070500       ??$_Debug_lt_pred@AEBU?$less@H@std@@AEBHAEBH$0A@@std@@YA_NAEBU?$less@H@0@AEBH1@Z 0000000140071500 f i renderer:Shader.obj
 0001:00070610       ??$_Destroy_in_place@PEAU?$_Tree_node@U?$pair@$$CBHUProgram@Shader@render@ion@@@std@@PEAX@std@@@std@@YAXAEAPEAU?$_Tree_node@U?$pair@$$CBHUProgram@Shader@render@ion@@@std@@PEAX@0@@Z 0000000140071610 f i renderer:Shader.obj
 0001:00070630       ??$_Destroy_in_place@PEAU?$_Tree_node@U?$pair@$$CBV?$basic_string@DU?$char_traits@D@std@@V?$allocator@D@2@@std@@V?$map@HUProgram@Shader@render@ion@@U?$less@H@std@@V?$allocator@U?$pair@$$CBHUProgram@Shader@render@ion@@@std@@@6@@2@@std@@PEAX@std@@@std@@YAXAEAPEAU?$_Tree_node@U?$pair@$$CBV?$basic_string@DU?$char_traits@D@std@@V?$allocator@D@2@@std@@V?$map@HUProgram@Shader@render@ion@@U?$less@H@std@@V?$allocator@U?$pair@$$CBHUProgram@Shader@render@ion@@@std@@@6@@2@@std@@PEAX@0@@Z 0000000140071630 f i renderer:Shader.obj
 0001:00070650       ??$_Emplace@U?$pair@HUProgram@Shader@render@ion@@@std@@@?$_Tree@V?$_Tmap_traits@HUProgram@Shader@render@ion@@U?$less@H@std@@V?$allocator@U?$pair@$$CBHUProgram@Shader@render@ion@@@std@@@6@$0A@@std@@@std@@IEAA?AU?$pair@PEAU?$_Tree_node@U?$pair@$$CBHUProgram@Shader@render@ion@@@std@@PEAX@std@@_N@1@$$QEAU?$pair@HUProgram@Shader@render@ion@@@1@@Z 0000000140071650 f i renderer:Shader.obj
 0001:000708f0       ??$_Emplace@U?$pair@V?$basic_string@DU?$char_traits@D@std@@V?$allocator@D@2@@std@@V?$map@HUProgram@Shader@render@ion@@U?$less@H@std@@V?$allocator@U?$pair@$$CBHUProgram@Shader@render@ion@@@std@@@6@@2@@std@@@?$_Tree@V?$_Tmap_traits@V?$basic_string@DU?$char_traits@D@std@@V?$allocator@D@2@@std@@V?$map@HUProgram@Shader@render@ion@@U?$less@H@std@@V?$allocator@U?$pair@$$CBHUProgram@Shader@render@ion@@@std@@@6@@2@U?$less@V?$basic_string@DU?$char_traits@D@std@@V?$allocator@D@2@@std@@@2@V?$allocator@U?$pair@$$CBV?$basic_string@DU?$char_traits@D@std@@V?$allocator@D@2@@std@@V?$map@HUProgram@Shader@render@ion@@U?$less@H@std@@V?$allocator@U?$pair@$$CBHUProgram@Shader@render@ion@@@std@@@6@@2@@std@@@2@$0A@@std@@@std@@IEAA?AU?$pair@PEAU?$_Tree_node@U?$pair@$$CBV?$basic_string@DU?$char_traits@D@std@@V?$allocator@D@2@@std@@V?$map@HUProgram@Shader@render@ion@@U?$less@H@std@@V?$allocator@U?$pair@$$CBHUProgram@Shader@render@ion@@@std@@@6@@2@@std@@PEAX@std@@_N@1@$$QEAU?$pair@V?$basic_string@DU?$char_traits@D@std@@V?$allocator@D@2@@std@@V?$map@HUProgram@Shader@render@ion@@U?$less@H@std@@V?$allocator@U?$pair@$$CBHUProgram@Shader@render@ion@@@std@@@6@@2@@1@@Z 00000001400718f0 f i renderer:Shader.obj
 0001:00070b90       ??$_Erase_head@V?$allocator@U?$_Tree_node@U?$pair@$$CBV?$basic_string@DU?$char_traits@D@std@@V?$allocator@D@2@@std@@V?$map@HUProgram@Shader@render@ion@@U?$less@H@std@@V?$allocator@U?$pair@$$CBHUProgram@Shader@render@ion@@@std@@@6@@2@@std@@PEAX@std@@@std@@@?$_Tree_val@U?$_Tree_simple_types@U?$pair@$$CBV?$basic_string@DU?$char_traits@D@std@@V?$allocator@D@2@@std@@V?$map@HUProgram@Shader@render@ion@@U?$less@H@std@@V?$allocator@U?$pair@$$CBHUProgram@Shader@render@ion@@@std@@@6@@2@@std@@@std@@@std@@QEAAXAEAV?$allocator@U?$_Tree_node@U?$pair@$$CBV?$basic_string@DU?$char_traits@D@std@@V?$allocator@D@2@@std@@V?$map@HUProgram@Shader@render@ion@@U?$less@H@std@@V?$allocator@U?$pair@$$CBHUProgram@Shader@render@ion@@@std@@@6@@2@@std@@PEAX@std@@@1@@Z 0000000140071b90 f i renderer:Shader.obj
 0001:00070c40       ??$_Erase_tree@V?$allocator@U?$_Tree_node@U?$pair@$$CBHUProgram@Shader@render@ion@@@std@@PEAX@std@@@std@@@?$_Tree_val@U?$_Tree_simple_types@U?$pair@$$CBHUProgram@Shader@render@ion@@@std@@@std@@@std@@QEAAXAEAV?$allocator@U?$_Tree_node@U?$pair@$$CBHUProgram@Shader@render@ion@@@std@@PEAX@std@@@1@PEAU?$_Tree_node@U?$pair@$$CBHUProgram@Shader@render@ion@@@std@@PEAX@1@@Z 0000000140071c40 f i renderer:Shader.obj
 0001:00070ce0       ??$_Erase_tree@V?$allocator@U?$_Tree_node@U?$pair@$$CBV?$basic_string@DU?$char_traits@D@std@@V?$allocator@D@2@@std@@V?$map@HUProgram@Shader@render@ion@@U?$less@H@std@@V?$allocator@U?$pair@$$CBHUProgram@Shader@render@ion@@@std@@@6@@2@@std@@PEAX@std@@@std@@@?$_Tree_val@U?$_Tree_simple_types@U?$pair@$$CBV?$basic_string@DU?$char_traits@D@std@@V?$allocator@D@2@@std@@V?$map@HUProgram@Shader@render@ion@@U?$less@H@std@@V?$allocator@U?$pair@$$CBHUProgram@Shader@render@ion@@@std@@@6@@2@@std@@@std@@@std@@QEAAXAEAV?$allocator@U?$_Tree_node@U?$pair@$$CBV?$basic_string@DU?$char_traits@D@std@@V?$allocator@D@2@@std@@V?$map@HUProgram@Shader@render@ion@@U?$less@H@std@@V?$allocator@U?$pair@$$CBHUProgram@Shader@render@ion@@@std@@@6@@2@@std@@PEAX@std@@@1@PEAU?$_Tree_node@U?$pair@$$CBV?$basic_string@DU?$char_traits@D@std@@V?$allocator@D@2@@std@@V?$map@HUProgram@Shader@render@ion@@U?$less@H@std@@V?$allocator@U?$pair@$$CBHUProgram@Shader@render@ion@@@std@@@6@@2@@std@@PEAX@1@@Z 0000000140071ce0 f i renderer:Shader.obj
 0001:00070d70       ??$_Find@H@?$_Tree@V?$_Tmap_traits@HUProgram@Shader@render@ion@@U?$less@H@std@@V?$allocator@U?$pair@$$CBHUProgram@Shader@render@ion@@@std@@@6@$0A@@std@@@std@@AEBAPEAU?$_Tree_node@U?$pair@$$CBHUProgram@Shader@render@ion@@@std@@PEAX@1@AEBH@Z 0000000140071d70 f i renderer:Shader.obj
 0001:00070e40       ??$_Find@V?$basic_string@DU?$char_traits@D@std@@V?$allocator@D@2@@std@@@?$_Tree@V?$_Tmap_traits@V?$basic_string@DU?$char_traits@D@std@@V?$allocator@D@2@@std@@V?$map@HUProgram@Shader@render@ion@@U?$less@H@std@@V?$allocator@U?$pair@$$CBHUProgram@Shader@render@ion@@@std@@@6@@2@U?$less@V?$basic_string@DU?$char_traits@D@std@@V?$allocator@D@2@@std@@@2@V?$allocator@U?$pair@$$CBV?$basic_string@DU?$char_traits@D@std@@V?$allocator@D@2@@std@@V?$map@HUProgram@Shader@render@ion@@U?$less@H@std@@V?$allocator@U?$pair@$$CBHUProgram@Shader@render@ion@@@std@@@6@@2@@std@@@2@$0A@@std@@@std@@AEBAPEAU?$_Tree_node@U?$pair@$$CBV?$basic_string@DU?$char_traits@D@std@@V?$allocator@D@2@@std@@V?$map@HUProgram@Shader@render@ion@@U?$less@H@std@@V?$allocator@U?$pair@$$CBHUProgram@Shader@render@ion@@@std@@@6@@2@@std@@PEAX@1@AEBV?$basic_string@DU?$char_traits@D@std@@V?$allocator@D@2@@1@@Z 0000000140071e40 f i renderer:Shader.obj
 0001:00070f10       ??$_Find_lower_bound@H@?$_Tree@V?$_Tmap_traits@HUProgram@Shader@render@ion@@U?$less@H@std@@V?$allocator@U?$pair@$$CBHUProgram@Shader@render@ion@@@std@@@6@$0A@@std@@@std@@IEBA?AU?$_Tree_find_result@PEAU?$_Tree_node@U?$pair@$$CBHUProgram@Shader@render@ion@@@std@@PEAX@std@@@1@AEBH@Z 0000000140071f10 f i renderer:Shader.obj
 0001:00071040       ??$_Find_lower_bound@V?$basic_string@DU?$char_traits@D@std@@V?$allocator@D@2@@std@@@?$_Tree@V?$_Tmap_traits@V?$basic_string@DU?$char_traits@D@std@@V?$allocator@D@2@@std@@V?$map@HUProgram@Shader@render@ion@@U?$less@H@std@@V?$allocator@U?$pair@$$CBHUProgram@Shader@render@ion@@@std@@@6@@2@U?$less@V?$basic_string@DU?$char_traits@D@std@@V?$allocator@D@2@@std@@@2@V?$allocator@U?$pair@$$CBV?$basic_string@DU?$char_traits@D@std@@V?$allocator@D@2@@std@@V?$map@HUProgram@Shader@render@ion@@U?$less@H@std@@V?$allocator@U?$pair@$$CBHUProgram@Shader@render@ion@@@std@@@6@@2@@std@@@2@$0A@@std@@@std@@IEBA?AU?$_Tree_find_result@PEAU?$_Tree_node@U?$pair@$$CBV?$basic_string@DU?$char_traits@D@std@@V?$allocator@D@2@@std@@V?$map@HUProgram@Shader@render@ion@@U?$less@H@std@@V?$allocator@U?$pair@$$CBHUProgram@Shader@render@ion@@@std@@@6@@2@@std@@PEAX@std@@@1@AEBV?$basic_string@DU?$char_traits@D@std@@V?$allocator@D@2@@1@@Z 0000000140072040 f i renderer:Shader.obj
 0001:00071170       ??$_Freenode0@V?$allocator@U?$_Tree_node@U?$pair@$$CBHUProgram@Shader@render@ion@@@std@@PEAX@std@@@std@@@?$_Tree_node@U?$pair@$$CBHUProgram@Shader@render@ion@@@std@@PEAX@std@@SAXAEAV?$allocator@U?$_Tree_node@U?$pair@$$CBHUProgram@Shader@render@ion@@@std@@PEAX@std@@@1@PEAU01@@Z 0000000140072170 f i renderer:Shader.obj
 0001:000711e0       ??$_Freenode0@V?$allocator@U?$_Tree_node@U?$pair@$$CBV?$basic_string@DU?$char_traits@D@std@@V?$allocator@D@2@@std@@V?$map@HUProgram@Shader@render@ion@@U?$less@H@std@@V?$allocator@U?$pair@$$CBHUProgram@Shader@render@ion@@@std@@@6@@2@@std@@PEAX@std@@@std@@@?$_Tree_node@U?$pair@$$CBV?$basic_string@DU?$char_traits@D@std@@V?$allocator@D@2@@std@@V?$map@HUProgram@Shader@render@ion@@U?$less@H@std@@V?$allocator@U?$pair@$$CBHUProgram@Shader@render@ion@@@std@@@6@@2@@std@@PEAX@std@@SAXAEAV?$allocator@U?$_Tree_node@U?$pair@$$CBV?$basic_string@DU?$char_traits@D@std@@V?$allocator@D@2@@std@@V?$map@HUProgram@Shader@render@ion@@U?$less@H@std@@V?$allocator@U?$pair@$$CBHUProgram@Shader@render@ion@@@std@@@6@@2@@std@@PEAX@std@@@1@PEAU01@@Z 00000001400721e0 f i renderer:Shader.obj
 0001:00071250       ??$_Freenode@V?$allocator@U?$_Tree_node@U?$pair@$$CBV?$basic_string@DU?$char_traits@D@std@@V?$allocator@D@2@@std@@V?$map@HUProgram@Shader@render@ion@@U?$less@H@std@@V?$allocator@U?$pair@$$CBHUProgram@Shader@render@ion@@@std@@@6@@2@@std@@PEAX@std@@@std@@@?$_Tree_node@U?$pair@$$CBV?$basic_string@DU?$char_traits@D@std@@V?$allocator@D@2@@std@@V?$map@HUProgram@Shader@render@ion@@U?$less@H@std@@V?$allocator@U?$pair@$$CBHUProgram@Shader@render@ion@@@std@@@6@@2@@std@@PEAX@std@@SAXAEAV?$allocator@U?$_Tree_node@U?$pair@$$CBV?$basic_string@DU?$char_traits@D@std@@V?$allocator@D@2@@std@@V?$map@HUProgram@Shader@render@ion@@U?$less@H@std@@V?$allocator@U?$pair@$$CBHUProgram@Shader@render@ion@@@std@@@6@@2@@std@@PEAX@std@@@1@PEAU01@@Z 0000000140072250 f i renderer:Shader.obj
 0001:000712d0       ??$_Try_emplace@AEBV?$basic_string@DU?$char_traits@D@std@@V?$allocator@D@2@@std@@$$V@?$map@V?$basic_string@DU?$char_traits@D@std@@V?$allocator@D@2@@std@@V?$map@HUProgram@Shader@render@ion@@U?$less@H@std@@V?$allocator@U?$pair@$$CBHUProgram@Shader@render@ion@@@std@@@6@@2@U?$less@V?$basic_string@DU?$char_traits@D@std@@V?$allocator@D@2@@std@@@2@V?$allocator@U?$pair@$$CBV?$basic_string@DU?$char_traits@D@std@@V?$allocator@D@2@@std@@V?$map@HUProgram@Shader@render@ion@@U?$less@H@std@@V?$allocator@U?$pair@$$CBHUProgram@Shader@render@ion@@@std@@@6@@2@@std@@@2@@std@@AEAA?AU?$pair@PEAU?$_Tree_node@U?$pair@$$CBV?$basic_string@DU?$char_traits@D@std@@V?$allocator@D@2@@std@@V?$map@HUProgram@Shader@render@ion@@U?$less@H@std@@V?$allocator@U?$pair@$$CBHUProgram@Shader@render@ion@@@std@@@6@@2@@std@@PEAX@std@@_N@1@AEBV?$basic_string@DU?$char_traits@D@std@@V?$allocator@D@2@@1@@Z 00000001400722d0 f i renderer:Shader.obj
 0001:000715e0       ??$_Try_emplace@H$$V@?$map@HUProgram@Shader@render@ion@@U?$less@H@std@@V?$allocator@U?$pair@$$CBHUProgram@Shader@render@ion@@@std@@@6@@std@@AEAA?AU?$pair@PEAU?$_Tree_node@U?$pair@$$CBHUProgram@Shader@render@ion@@@std@@PEAX@std@@_N@1@$$QEAH@Z 00000001400725e0 f i renderer:Shader.obj
 0001:00071900       ??$emplace@U?$pair@HUProgram@Shader@render@ion@@@std@@@?$_Tree@V?$_Tmap_traits@HUProgram@Shader@render@ion@@U?$less@H@std@@V?$allocator@U?$pair@$$CBHUProgram@Shader@render@ion@@@std@@@6@$0A@@std@@@std@@QEAA?AU?$pair@V?$_Tree_iterator@V?$_Tree_val@U?$_Tree_simple_types@U?$pair@$$CBHUProgram@Shader@render@ion@@@std@@@std@@@std@@@std@@_N@1@$$QEAU?$pair@HUProgram@Shader@render@ion@@@1@@Z 0000000140072900 f i renderer:Shader.obj
 0001:00071a30       ??$emplace@U?$pair@V?$basic_string@DU?$char_traits@D@std@@V?$allocator@D@2@@std@@V?$map@HUProgram@Shader@render@ion@@U?$less@H@std@@V?$allocator@U?$pair@$$CBHUProgram@Shader@render@ion@@@std@@@6@@2@@std@@@?$_Tree@V?$_Tmap_traits@V?$basic_string@DU?$char_traits@D@std@@V?$allocator@D@2@@std@@V?$map@HUProgram@Shader@render@ion@@U?$less@H@std@@V?$allocator@U?$pair@$$CBHUProgram@Shader@render@ion@@@std@@@6@@2@U?$less@V?$basic_string@DU?$char_traits@D@std@@V?$allocator@D@2@@std@@@2@V?$allocator@U?$pair@$$CBV?$basic_string@DU?$char_traits@D@std@@V?$allocator@D@2@@std@@V?$map@HUProgram@Shader@render@ion@@U?$less@H@std@@V?$allocator@U?$pair@$$CBHUProgram@Shader@render@ion@@@std@@@6@@2@@std@@@2@$0A@@std@@@std@@QEAA?AU?$pair@V?$_Tree_iterator@V?$_Tree_val@U?$_Tree_simple_types@U?$pair@$$CBV?$basic_string@DU?$char_traits@D@std@@V?$allocator@D@2@@std@@V?$map@HUProgram@Shader@render@ion@@U?$less@H@std@@V?$allocator@U?$pair@$$CBHUProgram@Shader@render@ion@@@std@@@6@@2@@std@@@std@@@std@@@std@@_N@1@$$QEAU?$pair@V?$basic_string@DU?$char_traits@D@std@@V?$allocator@D@2@@std@@V?$map@HUProgram@Shader@render@ion@@U?$less@H@std@@V?$allocator@U?$pair@$$CBHUProgram@Shader@render@ion@@@std@@@6@@2@@1@@Z 0000000140072a30 f i renderer:Shader.obj
 0001:00071b60       ??0?$_Tree@V?$_Tmap_traits@HUProgram@Shader@render@ion@@U?$less@H@std@@V?$allocator@U?$pair@$$CBHUProgram@Shader@render@ion@@@std@@@6@$0A@@std@@@std@@QEAA@$$QEAV01@@Z 0000000140072b60 f i renderer:Shader.obj
 0001:00071c50       ??0?$_Tree@V?$_Tmap_traits@HUProgram@Shader@render@ion@@U?$less@H@std@@V?$allocator@U?$pair@$$CBHUProgram@Shader@render@ion@@@std@@@6@$0A@@std@@@std@@QEAA@AEBU?$less@H@1@@Z 0000000140072c50 f i renderer:Shader.obj
 0001:00071ce0       ??0?$_Tree@V?$_Tmap_traits@V?$basic_string@DU?$char_traits@D@std@@V?$allocator@D@2@@std@@V?$map@HUProgram@Shader@render@ion@@U?$less@H@std@@V?$allocator@U?$pair@$$CBHUProgram@Shader@render@ion@@@std@@@6@@2@U?$less@V?$basic_string@DU?$char_traits@D@std@@V?$allocator@D@2@@std@@@2@V?$allocator@U?$pair@$$CBV?$basic_string@DU?$char_traits@D@std@@V?$allocator@D@2@@std@@V?$map@HUProgram@Shader@render@ion@@U?$less@H@std@@V?$allocator@U?$pair@$$CBHUProgram@Shader@render@ion@@@std@@@6@@2@@std@@@2@$0A@@std@@@std@@QEAA@AEBU?$less@V?$basic_string@DU?$char_traits@D@std@@V?$allocator@D@2@@std@@@1@@Z 0000000140072ce0 f i renderer:Shader.obj
 0001:00071d70       ??0?$_Tree_const_iterator@V?$_Tree_val@U?$_Tree_simple_types@U?$pair@$$CBHUProgram@Shader@render@ion@@@std@@@std@@@std@@@std@@QEAA@PEAU?$_Tree_node@U?$pair@$$CBHUProgram@Shader@render@ion@@@std@@PEAX@1@PEBV?$_Tree_val@U?$_Tree_simple_types@U?$pair@$$CBHUProgram@Shader@render@ion@@@std@@@std@@@1@@Z 0000000140072d70 f i renderer:Shader.obj
 0001:00071dd0       ??0?$_Tree_const_iterator@V?$_Tree_val@U?$_Tree_simple_types@U?$pair@$$CBV?$basic_string@DU?$char_traits@D@std@@V?$allocator@D@2@@std@@V?$map@HUProgram@Shader@render@ion@@U?$less@H@std@@V?$allocator@U?$pair@$$CBHUProgram@Shader@render@ion@@@std@@@6@@2@@std@@@std@@@std@@@std@@QEAA@PEAU?$_Tree_node@U?$pair@$$CBV?$basic_string@DU?$char_traits@D@std@@V?$allocator@D@2@@std@@V?$map@HUProgram@Shader@render@ion@@U?$less@H@std@@V?$allocator@U?$pair@$$CBHUProgram@Shader@render@ion@@@std@@@6@@2@@std@@PEAX@1@PEBV?$_Tree_val@U?$_Tree_simple_types@U?$pair@$$CBV?$basic_string@DU?$char_traits@D@std@@V?$allocator@D@2@@std@@V?$map@HUProgram@Shader@render@ion@@U?$less@H@std@@V?$allocator@U?$pair@$$CBHUProgram@Shader@render@ion@@@std@@@6@@2@@std@@@std@@@1@@Z 0000000140072dd0 f i renderer:Shader.obj
 0001:00071e30       ??0?$_Tree_iterator@V?$_Tree_val@U?$_Tree_simple_types@U?$pair@$$CBHUProgram@Shader@render@ion@@@std@@@std@@@std@@@std@@QEAA@PEAU?$_Tree_node@U?$pair@$$CBHUProgram@Shader@render@ion@@@std@@PEAX@1@PEBV?$_Tree_val@U?$_Tree_simple_types@U?$pair@$$CBHUProgram@Shader@render@ion@@@std@@@std@@@1@@Z 0000000140072e30 f i renderer:Shader.obj
 0001:00071e90       ??0?$_Tree_iterator@V?$_Tree_val@U?$_Tree_simple_types@U?$pair@$$CBV?$basic_string@DU?$char_traits@D@std@@V?$allocator@D@2@@std@@V?$map@HUProgram@Shader@render@ion@@U?$less@H@std@@V?$allocator@U?$pair@$$CBHUProgram@Shader@render@ion@@@std@@@6@@2@@std@@@std@@@std@@@std@@QEAA@PEAU?$_Tree_node@U?$pair@$$CBV?$basic_string@DU?$char_traits@D@std@@V?$allocator@D@2@@std@@V?$map@HUProgram@Shader@render@ion@@U?$less@H@std@@V?$allocator@U?$pair@$$CBHUProgram@Shader@render@ion@@@std@@@6@@2@@std@@PEAX@1@PEBV?$_Tree_val@U?$_Tree_simple_types@U?$pair@$$CBV?$basic_string@DU?$char_traits@D@std@@V?$allocator@D@2@@std@@V?$map@HUProgram@Shader@render@ion@@U?$less@H@std@@V?$allocator@U?$pair@$$CBHUProgram@Shader@render@ion@@@std@@@6@@2@@std@@@std@@@1@@Z 0000000140072e90 f i renderer:Shader.obj
 0001:00071ef0       ??0?$_Tree_unchecked_const_iterator@V?$_Tree_val@U?$_Tree_simple_types@U?$pair@$$CBHUProgram@Shader@render@ion@@@std@@@std@@@std@@U_Iterator_base12@2@@std@@QEAA@$$QEAV01@@Z 0000000140072ef0 f i renderer:Shader.obj
 0001:00071f50       ??0?$_Tree_unchecked_const_iterator@V?$_Tree_val@U?$_Tree_simple_types@U?$pair@$$CBHUProgram@Shader@render@ion@@@std@@@std@@@std@@U_Iterator_base12@2@@std@@QEAA@PEAU?$_Tree_node@U?$pair@$$CBHUProgram@Shader@render@ion@@@std@@PEAX@1@PEBV?$_Tree_val@U?$_Tree_simple_types@U?$pair@$$CBHUProgram@Shader@render@ion@@@std@@@std@@@1@@Z 0000000140072f50 f i renderer:Shader.obj
 0001:00071fb0       ??0?$_Tree_unchecked_const_iterator@V?$_Tree_val@U?$_Tree_simple_types@U?$pair@$$CBV?$basic_string@DU?$char_traits@D@std@@V?$allocator@D@2@@std@@V?$map@HUProgram@Shader@render@ion@@U?$less@H@std@@V?$allocator@U?$pair@$$CBHUProgram@Shader@render@ion@@@std@@@6@@2@@std@@@std@@@std@@U_Iterator_base12@2@@std@@QEAA@$$QEAV01@@Z 0000000140072fb0 f i renderer:Shader.obj
 0001:00072010       ??0Program@Shader@render@ion@@QEAA@$$QEAU0123@@Z 0000000140073010 f i renderer:Shader.obj
 0001:00072060       ??1?$_Alloc_construct_ptr@V?$allocator@U?$_Tree_node@U?$pair@$$CBHUProgram@Shader@render@ion@@@std@@PEAX@std@@@std@@@std@@QEAA@XZ 0000000140073060 f i renderer:Shader.obj
 0001:000720c0       ??1?$_Alloc_construct_ptr@V?$allocator@U?$_Tree_node@U?$pair@$$CBV?$basic_string@DU?$char_traits@D@std@@V?$allocator@D@2@@std@@V?$map@HUProgram@Shader@render@ion@@U?$less@H@std@@V?$allocator@U?$pair@$$CBHUProgram@Shader@render@ion@@@std@@@6@@2@@std@@PEAX@std@@@std@@@std@@QEAA@XZ 00000001400730c0 f i renderer:Shader.obj
 0001:00072120       ??1?$_Tree@V?$_Tmap_traits@HUProgram@Shader@render@ion@@U?$less@H@std@@V?$allocator@U?$pair@$$CBHUProgram@Shader@render@ion@@@std@@@6@$0A@@std@@@std@@QEAA@XZ 0000000140073120 f i renderer:Shader.obj
 0001:000721d0       ??1?$_Tree@V?$_Tmap_traits@V?$basic_string@DU?$char_traits@D@std@@V?$allocator@D@2@@std@@V?$map@HUProgram@Shader@render@ion@@U?$less@H@std@@V?$allocator@U?$pair@$$CBHUProgram@Shader@render@ion@@@std@@@6@@2@U?$less@V?$basic_string@DU?$char_traits@D@std@@V?$allocator@D@2@@std@@@2@V?$allocator@U?$pair@$$CBV?$basic_string@DU?$char_traits@D@std@@V?$allocator@D@2@@std@@V?$map@HUProgram@Shader@render@ion@@U?$less@H@std@@V?$allocator@U?$pair@$$CBHUProgram@Shader@render@ion@@@std@@@6@@2@@std@@@2@$0A@@std@@@std@@QEAA@XZ 00000001400731d0 f i renderer:Shader.obj
 0001:00072260       ??1?$_Tree_iterator@V?$_Tree_val@U?$_Tree_simple_types@U?$pair@$$CBHUProgram@Shader@render@ion@@@std@@@std@@@std@@@std@@QEAA@XZ 0000000140073260 f i renderer:Shader.obj
 0001:000722a0       ??1?$_Tree_iterator@V?$_Tree_val@U?$_Tree_simple_types@U?$pair@$$CBV?$basic_string@DU?$char_traits@D@std@@V?$allocator@D@2@@std@@V?$map@HUProgram@Shader@render@ion@@U?$less@H@std@@V?$allocator@U?$pair@$$CBHUProgram@Shader@render@ion@@@std@@@6@@2@@std@@@std@@@std@@@std@@QEAA@XZ 00000001400732a0 f i renderer:Shader.obj
 0001:000722e0       ??1?$_Tree_temp_node@V?$allocator@U?$_Tree_node@U?$pair@$$CBHUProgram@Shader@render@ion@@@std@@PEAX@std@@@std@@@std@@QEAA@XZ 00000001400732e0 f i renderer:Shader.obj
 0001:000723c0       ??1?$_Tree_temp_node@V?$allocator@U?$_Tree_node@U?$pair@$$CBV?$basic_string@DU?$char_traits@D@std@@V?$allocator@D@2@@std@@V?$map@HUProgram@Shader@render@ion@@U?$less@H@std@@V?$allocator@U?$pair@$$CBHUProgram@Shader@render@ion@@@std@@@6@@2@@std@@PEAX@std@@@std@@@std@@QEAA@XZ 00000001400733c0 f i renderer:Shader.obj
 0001:000724d0       ??1?$_Tree_temp_node_alloc@V?$allocator@U?$_Tree_node@U?$pair@$$CBHUProgram@Shader@render@ion@@@std@@PEAX@std@@@std@@@std@@QEAA@XZ 00000001400734d0 f i renderer:Shader.obj
 0001:00072520       ??1?$_Tree_temp_node_alloc@V?$allocator@U?$_Tree_node@U?$pair@$$CBV?$basic_string@DU?$char_traits@D@std@@V?$allocator@D@2@@std@@V?$map@HUProgram@Shader@render@ion@@U?$less@H@std@@V?$allocator@U?$pair@$$CBHUProgram@Shader@render@ion@@@std@@@6@@2@@std@@PEAX@std@@@std@@@std@@QEAA@XZ 0000000140073520 f i renderer:Shader.obj
 0001:00072570       ??1?$map@HUProgram@Shader@render@ion@@U?$less@H@std@@V?$allocator@U?$pair@$$CBHUProgram@Shader@render@ion@@@std@@@6@@std@@QEAA@XZ 0000000140073570 f i renderer:Shader.obj
 0001:00072590       ??1?$pair@HUProgram@Shader@render@ion@@@std@@QEAA@XZ 0000000140073590 f i renderer:Shader.obj
 0001:000725d0       ??1?$pair@V?$_Tree_iterator@V?$_Tree_val@U?$_Tree_simple_types@U?$pair@$$CBHUProgram@Shader@render@ion@@@std@@@std@@@std@@@std@@_N@std@@QEAA@XZ 00000001400735d0 f i renderer:Shader.obj
 0001:00072610       ??1?$pair@V?$_Tree_iterator@V?$_Tree_val@U?$_Tree_simple_types@U?$pair@$$CBV?$basic_string@DU?$char_traits@D@std@@V?$allocator@D@2@@std@@V?$map@HUProgram@Shader@render@ion@@U?$less@H@std@@V?$allocator@U?$pair@$$CBHUProgram@Shader@render@ion@@@std@@@6@@2@@std@@@std@@@std@@@std@@_N@std@@QEAA@XZ 0000000140073610 f i renderer:Shader.obj
 0001:00072650       ??1?$pair@V?$basic_string@DU?$char_traits@D@std@@V?$allocator@D@2@@std@@V?$map@HUProgram@Shader@render@ion@@U?$less@H@std@@V?$allocator@U?$pair@$$CBHUProgram@Shader@render@ion@@@std@@@6@@2@@std@@QEAA@XZ 0000000140073650 f i renderer:Shader.obj
 0001:00072680       ??1Program@Shader@render@ion@@QEAA@XZ 0000000140073680 f i renderer:Shader.obj
 0001:000726b0       ??8?$_Tree_const_iterator@V?$_Tree_val@U?$_Tree_simple_types@U?$pair@$$CBHUProgram@Shader@render@ion@@@std@@@std@@@std@@@std@@QEBA_NAEBV01@@Z 00000001400736b0 f i renderer:Shader.obj
 0001:000727e0       ??8?$_Tree_const_iterator@V?$_Tree_val@U?$_Tree_simple_types@U?$pair@$$CBV?$basic_string@DU?$char_traits@D@std@@V?$allocator@D@2@@std@@V?$map@HUProgram@Shader@render@ion@@U?$less@H@std@@V?$allocator@U?$pair@$$CBHUProgram@Shader@render@ion@@@std@@@6@@2@@std@@@std@@@std@@@std@@QEBA_NAEBV01@@Z 00000001400737e0 f i renderer:Shader.obj
 0001:00072910       ??D?$_Tree_const_iterator@V?$_Tree_val@U?$_Tree_simple_types@U?$pair@$$CBHUProgram@Shader@render@ion@@@std@@@std@@@std@@@std@@QEBAAEBU?$pair@$$CBHUProgram@Shader@render@ion@@@1@XZ 0000000140073910 f i renderer:Shader.obj
 0001:00072a70       ??D?$_Tree_const_iterator@V?$_Tree_val@U?$_Tree_simple_types@U?$pair@$$CBV?$basic_string@DU?$char_traits@D@std@@V?$allocator@D@2@@std@@V?$map@HUProgram@Shader@render@ion@@U?$less@H@std@@V?$allocator@U?$pair@$$CBHUProgram@Shader@render@ion@@@std@@@6@@2@@std@@@std@@@std@@@std@@QEBAAEBU?$pair@$$CBV?$basic_string@DU?$char_traits@D@std@@V?$allocator@D@2@@std@@V?$map@HUProgram@Shader@render@ion@@U?$less@H@std@@V?$allocator@U?$pair@$$CBHUProgram@Shader@render@ion@@@std@@@6@@2@@1@XZ 0000000140073a70 f i renderer:Shader.obj
 0001:00072bd0       ??E?$_Tree_const_iterator@V?$_Tree_val@U?$_Tree_simple_types@U?$pair@$$CBHUProgram@Shader@render@ion@@@std@@@std@@@std@@@std@@QEAAAEAV01@XZ 0000000140073bd0 f i renderer:Shader.obj
 0001:00072d30       ??E?$_Tree_const_iterator@V?$_Tree_val@U?$_Tree_simple_types@U?$pair@$$CBV?$basic_string@DU?$char_traits@D@std@@V?$allocator@D@2@@std@@V?$map@HUProgram@Shader@render@ion@@U?$less@H@std@@V?$allocator@U?$pair@$$CBHUProgram@Shader@render@ion@@@std@@@6@@2@@std@@@std@@@std@@@std@@QEAAAEAV01@XZ 0000000140073d30 f i renderer:Shader.obj
 0001:00072e90       ??E?$_Tree_unchecked_const_iterator@V?$_Tree_val@U?$_Tree_simple_types@U?$pair@$$CBHUProgram@Shader@render@ion@@@std@@@std@@@std@@U_Iterator_base12@2@@std@@QEAAAEAV01@XZ 0000000140073e90 f i renderer:Shader.obj
 0001:00072f60       ??E?$_Tree_unchecked_const_iterator@V?$_Tree_val@U?$_Tree_simple_types@U?$pair@$$CBV?$basic_string@DU?$char_traits@D@std@@V?$allocator@D@2@@std@@V?$map@HUProgram@Shader@render@ion@@U?$less@H@std@@V?$allocator@U?$pair@$$CBHUProgram@Shader@render@ion@@@std@@@6@@2@@std@@@std@@@std@@U_Iterator_base12@2@@std@@QEAAAEAV01@XZ 0000000140073f60 f i renderer:Shader.obj
 0001:00073030       ??_G?$pair@$$CBHUProgram@Shader@render@ion@@@std@@QEAAPEAXI@Z 0000000140074030 f i renderer:Shader.obj
 0001:00073090       ??_EShader@render@ion@@UEAAPEAXI@Z 0000000140074090 f i renderer:Shader.obj
 0001:00073090       ??_GShader@render@ion@@UEAAPEAXI@Z 0000000140074090 f i renderer:Shader.obj
 0001:000730d0       ?Serialise@Program@Shader@render@ion@@QEAAXAEAVArchive@io@4@@Z 00000001400740d0 f i renderer:Shader.obj
 0001:00073150       ?_Alloc_sentinel_and_proxy@?$_Tree@V?$_Tmap_traits@HUProgram@Shader@render@ion@@U?$less@H@std@@V?$allocator@U?$pair@$$CBHUProgram@Shader@render@ion@@@std@@@6@$0A@@std@@@std@@IEAAXXZ 0000000140074150 f i renderer:Shader.obj
 0001:00073210       ?_Alloc_sentinel_and_proxy@?$_Tree@V?$_Tmap_traits@V?$basic_string@DU?$char_traits@D@std@@V?$allocator@D@2@@std@@V?$map@HUProgram@Shader@render@ion@@U?$less@H@std@@V?$allocator@U?$pair@$$CBHUProgram@Shader@render@ion@@@std@@@6@@2@U?$less@V?$basic_string@DU?$char_traits@D@std@@V?$allocator@D@2@@std@@@2@V?$allocator@U?$pair@$$CBV?$basic_string@DU?$char_traits@D@std@@V?$allocator@D@2@@std@@V?$map@HUProgram@Shader@render@ion@@U?$less@H@std@@V?$allocator@U?$pair@$$CBHUProgram@Shader@render@ion@@@std@@@6@@2@@std@@@2@$0A@@std@@@std@@IEAAXXZ 0000000140074210 f i renderer:Shader.obj
 0001:000732d0       ?_Allocate@?$_Alloc_construct_ptr@V?$allocator@U?$_Tree_node@U?$pair@$$CBHUProgram@Shader@render@ion@@@std@@PEAX@std@@@std@@@std@@QEAAXXZ 00000001400742d0 f i renderer:Shader.obj
 0001:00073360       ?_Allocate@?$_Alloc_construct_ptr@V?$allocator@U?$_Tree_node@U?$pair@$$CBV?$basic_string@DU?$char_traits@D@std@@V?$allocator@D@2@@std@@V?$map@HUProgram@Shader@render@ion@@U?$less@H@std@@V?$allocator@U?$pair@$$CBHUProgram@Shader@render@ion@@@std@@@6@@2@@std@@PEAX@std@@@std@@@std@@QEAAXXZ 0000000140074360 f i renderer:Shader.obj
 0001:000733f0       ?_Check_grow_by_1@?$_Tree@V?$_Tmap_traits@HUProgram@Shader@render@ion@@U?$less@H@std@@V?$allocator@U?$pair@$$CBHUProgram@Shader@render@ion@@@std@@@6@$0A@@std@@@std@@IEAAXXZ 00000001400743f0 f i renderer:Shader.obj
 0001:000734c0       ?_Check_grow_by_1@?$_Tree@V?$_Tmap_traits@V?$basic_string@DU?$char_traits@D@std@@V?$allocator@D@2@@std@@V?$map@HUProgram@Shader@render@ion@@U?$less@H@std@@V?$allocator@U?$pair@$$CBHUProgram@Shader@render@ion@@@std@@@6@@2@U?$less@V?$basic_string@DU?$char_traits@D@std@@V?$allocator@D@2@@std@@@2@V?$allocator@U?$pair@$$CBV?$basic_string@DU?$char_traits@D@std@@V?$allocator@D@2@@std@@V?$map@HUProgram@Shader@render@ion@@U?$less@H@std@@V?$allocator@U?$pair@$$CBHUProgram@Shader@render@ion@@@std@@@6@@2@@std@@@2@$0A@@std@@@std@@IEAAXXZ 00000001400744c0 f i renderer:Shader.obj
 0001:00073590       ?_Insert_node@?$_Tree_val@U?$_Tree_simple_types@U?$pair@$$CBHUProgram@Shader@render@ion@@@std@@@std@@@std@@QEAAPEAU?$_Tree_node@U?$pair@$$CBHUProgram@Shader@render@ion@@@std@@PEAX@2@U?$_Tree_id@PEAU?$_Tree_node@U?$pair@$$CBHUProgram@Shader@render@ion@@@std@@PEAX@std@@@2@QEAU32@@Z 0000000140074590 f i renderer:Shader.obj
 0001:00073890       ?_Insert_node@?$_Tree_val@U?$_Tree_simple_types@U?$pair@$$CBV?$basic_string@DU?$char_traits@D@std@@V?$allocator@D@2@@std@@V?$map@HUProgram@Shader@render@ion@@U?$less@H@std@@V?$allocator@U?$pair@$$CBHUProgram@Shader@render@ion@@@std@@@6@@2@@std@@@std@@@std@@QEAAPEAU?$_Tree_node@U?$pair@$$CBV?$basic_string@DU?$char_traits@D@std@@V?$allocator@D@2@@std@@V?$map@HUProgram@Shader@render@ion@@U?$less@H@std@@V?$allocator@U?$pair@$$CBHUProgram@Shader@render@ion@@@std@@@6@@2@@std@@PEAX@2@U?$_Tree_id@PEAU?$_Tree_node@U?$pair@$$CBV?$basic_string@DU?$char_traits@D@std@@V?$allocator@D@2@@std@@V?$map@HUProgram@Shader@render@ion@@U?$less@H@std@@V?$allocator@U?$pair@$$CBHUProgram@Shader@render@ion@@@std@@@6@@2@@std@@PEAX@std@@@2@QEAU32@@Z 0000000140074890 f i renderer:Shader.obj
 0001:00073b90       ?_Lrotate@?$_Tree_val@U?$_Tree_simple_types@U?$pair@$$CBHUProgram@Shader@render@ion@@@std@@@std@@@std@@QEAAXPEAU?$_Tree_node@U?$pair@$$CBHUProgram@Shader@render@ion@@@std@@PEAX@2@@Z 0000000140074b90 f i renderer:Shader.obj
 0001:00073c80       ?_Lrotate@?$_Tree_val@U?$_Tree_simple_types@U?$pair@$$CBV?$basic_string@DU?$char_traits@D@std@@V?$allocator@D@2@@std@@V?$map@HUProgram@Shader@render@ion@@U?$less@H@std@@V?$allocator@U?$pair@$$CBHUProgram@Shader@render@ion@@@std@@@6@@2@@std@@@std@@@std@@QEAAXPEAU?$_Tree_node@U?$pair@$$CBV?$basic_string@DU?$char_traits@D@std@@V?$allocator@D@2@@std@@V?$map@HUProgram@Shader@render@ion@@U?$less@H@std@@V?$allocator@U?$pair@$$CBHUProgram@Shader@render@ion@@@std@@@6@@2@@std@@PEAX@2@@Z 0000000140074c80 f i renderer:Shader.obj
 0001:00073d70       ?_Orphan_ptr@?$_Tree_val@U?$_Tree_simple_types@U?$pair@$$CBHUProgram@Shader@render@ion@@@std@@@std@@@std@@QEAAXQEAU?$_Tree_node@U?$pair@$$CBHUProgram@Shader@render@ion@@@std@@PEAX@2@@Z 0000000140074d70 f i renderer:Shader.obj
 0001:00073e40       ?_Orphan_ptr@?$_Tree_val@U?$_Tree_simple_types@U?$pair@$$CBV?$basic_string@DU?$char_traits@D@std@@V?$allocator@D@2@@std@@V?$map@HUProgram@Shader@render@ion@@U?$less@H@std@@V?$allocator@U?$pair@$$CBHUProgram@Shader@render@ion@@@std@@@6@@2@@std@@@std@@@std@@QEAAXQEAU?$_Tree_node@U?$pair@$$CBV?$basic_string@DU?$char_traits@D@std@@V?$allocator@D@2@@std@@V?$map@HUProgram@Shader@render@ion@@U?$less@H@std@@V?$allocator@U?$pair@$$CBHUProgram@Shader@render@ion@@@std@@@6@@2@@std@@PEAX@2@@Z 0000000140074e40 f i renderer:Shader.obj
 0001:00073f10       ?_Rrotate@?$_Tree_val@U?$_Tree_simple_types@U?$pair@$$CBHUProgram@Shader@render@ion@@@std@@@std@@@std@@QEAAXPEAU?$_Tree_node@U?$pair@$$CBHUProgram@Shader@render@ion@@@std@@PEAX@2@@Z 0000000140074f10 f i renderer:Shader.obj
 0001:00074000       ?_Rrotate@?$_Tree_val@U?$_Tree_simple_types@U?$pair@$$CBV?$basic_string@DU?$char_traits@D@std@@V?$allocator@D@2@@std@@V?$map@HUProgram@Shader@render@ion@@U?$less@H@std@@V?$allocator@U?$pair@$$CBHUProgram@Shader@render@ion@@@std@@@6@@2@@std@@@std@@@std@@QEAAXPEAU?$_Tree_node@U?$pair@$$CBV?$basic_string@DU?$char_traits@D@std@@V?$allocator@D@2@@std@@V?$map@HUProgram@Shader@render@ion@@U?$less@H@std@@V?$allocator@U?$pair@$$CBHUProgram@Shader@render@ion@@@std@@@6@@2@@std@@PEAX@2@@Z 0000000140075000 f i renderer:Shader.obj
 0001:000740f0       ?_Swap_val@?$_Tree@V?$_Tmap_traits@HUProgram@Shader@render@ion@@U?$less@H@std@@V?$allocator@U?$pair@$$CBHUProgram@Shader@render@ion@@@std@@@6@$0A@@std@@@std@@AEAAXAEAV12@@Z 00000001400750f0 f i renderer:Shader.obj
 0001:00074280       ?clear@?$_Tree@V?$_Tmap_traits@HUProgram@Shader@render@ion@@U?$less@H@std@@V?$allocator@U?$pair@$$CBHUProgram@Shader@render@ion@@@std@@@6@$0A@@std@@@std@@QEAAXXZ 0000000140075280 f i renderer:Shader.obj
 0001:00074330       ?clear@?$_Tree@V?$_Tmap_traits@V?$basic_string@DU?$char_traits@D@std@@V?$allocator@D@2@@std@@V?$map@HUProgram@Shader@render@ion@@U?$less@H@std@@V?$allocator@U?$pair@$$CBHUProgram@Shader@render@ion@@@std@@@6@@2@U?$less@V?$basic_string@DU?$char_traits@D@std@@V?$allocator@D@2@@std@@@2@V?$allocator@U?$pair@$$CBV?$basic_string@DU?$char_traits@D@std@@V?$allocator@D@2@@std@@V?$map@HUProgram@Shader@render@ion@@U?$less@H@std@@V?$allocator@U?$pair@$$CBHUProgram@Shader@render@ion@@@std@@@6@@2@@std@@@2@$0A@@std@@@std@@QEAAXXZ 0000000140075330 f i renderer:Shader.obj
 0001:00074440       ??1Texture@render@ion@@UEAA@XZ 0000000140075440 f   renderer:Texture.obj
 0001:000744a0       ?GetWidth@Texture@render@ion@@QEBAIXZ 00000001400754a0 f   renderer:Texture.obj
 0001:000744d0       ?GetHeight@Texture@render@ion@@QEBAIXZ 00000001400754d0 f   renderer:Texture.obj
 0001:00074500       ?GetBitsPerPixel@Texture@render@ion@@QEBA?AW4BitsPerPixel@123@XZ 0000000140075500 f   renderer:Texture.obj
 0001:00074530       ?SetSerialiseData@Texture@render@ion@@QEAAXAEBV?$basic_string@DU?$char_traits@D@std@@V?$allocator@D@2@@std@@AEAV?$vector@EV?$allocator@E@std@@@5@IIW4Format@123@W4BitsPerPixel@123@@Z 0000000140075530 f   renderer:Texture.obj
 0001:00074630       ?Serialise@Texture@render@ion@@QEAAXAEAVArchive@io@3@@Z 0000000140075630 f   renderer:Texture.obj
 0001:00074750       ??0Texture@render@ion@@IEAA@XZ 0000000140075750 f   renderer:Texture.obj
 0001:000747c0       ??0Texture@render@ion@@IEAA@II@Z 00000001400757c0 f   renderer:Texture.obj
 0001:00074840       ??0Texture@render@ion@@IEAA@IIW4Format@012@0W4BitsPerPixel@012@_N2PEBE@Z 0000000140075840 f   renderer:Texture.obj
 0001:000748a0       ??_GTexture@render@ion@@UEAAPEAXI@Z 00000001400758a0 f i renderer:Texture.obj
 0001:000748a0       ??_ETexture@render@ion@@UEAAPEAXI@Z 00000001400758a0 f i renderer:Texture.obj
 0001:000748e0       SDL_abs_REAL               00000001400758e0 f   SDL2-staticd:SDL_stdlib.obj
 0001:00074910       SDL_isdigit_REAL           0000000140075910 f   SDL2-staticd:SDL_stdlib.obj
 0001:00074950       SDL_isspace_REAL           0000000140075950 f   SDL2-staticd:SDL_stdlib.obj
 0001:000749a0       SDL_toupper_REAL           00000001400759a0 f   SDL2-staticd:SDL_stdlib.obj
 0001:000749e0       SDL_tolower_REAL           00000001400759e0 f   SDL2-staticd:SDL_stdlib.obj
 0001:00074a20       SDL_acos_REAL              0000000140075a20 f   SDL2-staticd:SDL_stdlib.obj
 0001:00074ab0       SDL_acosf_REAL             0000000140075ab0 f   SDL2-staticd:SDL_stdlib.obj
 0001:00074ae0       SDL_asin_REAL              0000000140075ae0 f   SDL2-staticd:SDL_stdlib.obj
 0001:00074b40       SDL_asinf_REAL             0000000140075b40 f   SDL2-staticd:SDL_stdlib.obj
 0001:00074b70       SDL_atan_REAL              0000000140075b70 f   SDL2-staticd:SDL_stdlib.obj
 0001:00074b90       SDL_atanf_REAL             0000000140075b90 f   SDL2-staticd:SDL_stdlib.obj
 0001:00074bc0       SDL_atan2_REAL             0000000140075bc0 f   SDL2-staticd:SDL_stdlib.obj
 0001:00074bf0       SDL_atan2f_REAL            0000000140075bf0 f   SDL2-staticd:SDL_stdlib.obj
 0001:00074c30       SDL_ceil_REAL              0000000140075c30 f   SDL2-staticd:SDL_stdlib.obj
 0001:00074ca0       SDL_ceilf_REAL             0000000140075ca0 f   SDL2-staticd:SDL_stdlib.obj
 0001:00074cd0       SDL_copysign_REAL          0000000140075cd0 f   SDL2-staticd:SDL_stdlib.obj
 0001:00074d00       SDL_copysignf_REAL         0000000140075d00 f   SDL2-staticd:SDL_stdlib.obj
 0001:00074d40       SDL_cos_REAL               0000000140075d40 f   SDL2-staticd:SDL_stdlib.obj
 0001:00074d60       SDL_cosf_REAL              0000000140075d60 f   SDL2-staticd:SDL_stdlib.obj
 0001:00074d90       SDL_fabs_REAL              0000000140075d90 f   SDL2-staticd:SDL_stdlib.obj
 0001:00074db0       SDL_fabsf_REAL             0000000140075db0 f   SDL2-staticd:SDL_stdlib.obj
 0001:00074de0       SDL_floor_REAL             0000000140075de0 f   SDL2-staticd:SDL_stdlib.obj
 0001:00074e00       SDL_floorf_REAL            0000000140075e00 f   SDL2-staticd:SDL_stdlib.obj
 0001:00074e30       SDL_fmod_REAL              0000000140075e30 f   SDL2-staticd:SDL_stdlib.obj
 0001:00074e60       SDL_fmodf_REAL             0000000140075e60 f   SDL2-staticd:SDL_stdlib.obj
 0001:00074ea0       SDL_log_REAL               0000000140075ea0 f   SDL2-staticd:SDL_stdlib.obj
 0001:00074ec0       SDL_logf_REAL              0000000140075ec0 f   SDL2-staticd:SDL_stdlib.obj
 0001:00074ef0       SDL_log10_REAL             0000000140075ef0 f   SDL2-staticd:SDL_stdlib.obj
 0001:00074f10       SDL_log10f_REAL            0000000140075f10 f   SDL2-staticd:SDL_stdlib.obj
 0001:00074f40       SDL_pow_REAL               0000000140075f40 f   SDL2-staticd:SDL_stdlib.obj
 0001:00074f70       SDL_powf_REAL              0000000140075f70 f   SDL2-staticd:SDL_stdlib.obj
 0001:00074fb0       SDL_scalbn_REAL            0000000140075fb0 f   SDL2-staticd:SDL_stdlib.obj
 0001:00074fe0       SDL_scalbnf_REAL           0000000140075fe0 f   SDL2-staticd:SDL_stdlib.obj
 0001:00075010       SDL_sin_REAL               0000000140076010 f   SDL2-staticd:SDL_stdlib.obj
 0001:00075030       SDL_sinf_REAL              0000000140076030 f   SDL2-staticd:SDL_stdlib.obj
 0001:00075060       SDL_sqrt_REAL              0000000140076060 f   SDL2-staticd:SDL_stdlib.obj
 0001:00075080       SDL_sqrtf_REAL             0000000140076080 f   SDL2-staticd:SDL_stdlib.obj
 0001:000750b0       SDL_tan_REAL               00000001400760b0 f   SDL2-staticd:SDL_stdlib.obj
 0001:000750d0       SDL_tanf_REAL              00000001400760d0 f   SDL2-staticd:SDL_stdlib.obj
 0001:000750f0       SDL_uclibc_atan            00000001400760f0 f   SDL2-staticd:s_atan.obj
 0001:00075610       SDL_uclibc_atan2           0000000140076610 f   SDL2-staticd:e_atan2.obj
 0001:00075aa0       SDL_uclibc_copysign        0000000140076aa0 f   SDL2-staticd:s_copysign.obj
 0001:00075b30       SDL_uclibc_cos             0000000140076b30 f   SDL2-staticd:s_cos.obj
 0001:00075ca0       SDL_uclibc_fabs            0000000140076ca0 f   SDL2-staticd:s_fabs.obj
 0001:00075d00       SDL_uclibc_floor           0000000140076d00 f   SDL2-staticd:s_floor.obj
 0001:00075f50       SDL_uclibc_fmod            0000000140076f50 f   SDL2-staticd:e_fmod.obj
 0001:00076540       SDL_uclibc_log             0000000140077540 f   SDL2-staticd:e_log.obj
 0001:00076a40       SDL_uclibc_log10           0000000140077a40 f   SDL2-staticd:e_log10.obj
 0001:00076c00       SDL_uclibc_pow             0000000140077c00 f   SDL2-staticd:e_pow.obj
 0001:00077e20       SDL_uclibc_scalbn          0000000140078e20 f   SDL2-staticd:s_scalbn.obj
 0001:00077e50       SDL_uclibc_scalbln         0000000140078e50 f   SDL2-staticd:s_scalbn.obj
 0001:00078080       SDL_uclibc_sin             0000000140079080 f   SDL2-staticd:s_sin.obj
 0001:000781f0       SDL_uclibc_sqrt            00000001400791f0 f   SDL2-staticd:e_sqrt.obj
 0001:000786c0       SDL_uclibc_tan             00000001400796c0 f   SDL2-staticd:s_tan.obj
 0001:00078790       __ieee754_rem_pio2         0000000140079790 f   SDL2-staticd:e_rem_pio2.obj
 0001:00078ff0       __kernel_sin               0000000140079ff0 f   SDL2-staticd:k_sin.obj
 0001:00079180       __kernel_cos               000000014007a180 f   SDL2-staticd:k_cos.obj
 0001:00079380       __kernel_tan               000000014007a380 f   SDL2-staticd:k_tan.obj
 0001:00079970       __kernel_rem_pio2          000000014007a970 f   SDL2-staticd:k_rem_pio2.obj
 0001:0007a670       inflate                    000000014007b670 f   zlibd:inflate.obj
 0001:0007d5f0       inflateEnd                 000000014007e5f0 f   zlibd:inflate.obj
 0001:0007d690       inflateSetDictionary       000000014007e690 f   zlibd:inflate.obj
 0001:0007d7b0       inflateGetDictionary       000000014007e7b0 f   zlibd:inflate.obj
 0001:0007d8b0       inflateSync                000000014007e8b0 f   zlibd:inflate.obj
 0001:0007daf0       inflateCopy                000000014007eaf0 f   zlibd:inflate.obj
 0001:0007dd60       inflateReset               000000014007ed60 f   zlibd:inflate.obj
 0001:0007dde0       inflateReset2              000000014007ede0 f   zlibd:inflate.obj
 0001:0007def0       inflatePrime               000000014007eef0 f   zlibd:inflate.obj
 0001:0007dff0       inflateMark                000000014007eff0 f   zlibd:inflate.obj
 0001:0007e0b0       inflateGetHeader           000000014007f0b0 f   zlibd:inflate.obj
 0001:0007e140       inflateInit_               000000014007f140 f   zlibd:inflate.obj
 0001:0007e190       inflateInit2_              000000014007f190 f   zlibd:inflate.obj
 0001:0007e320       inflateSyncPoint           000000014007f320 f   zlibd:inflate.obj
 0001:0007e3a0       inflateUndermine           000000014007f3a0 f   zlibd:inflate.obj
 0001:0007e410       inflateValidate            000000014007f410 f   zlibd:inflate.obj
 0001:0007e4a0       inflateCodesUsed           000000014007f4a0 f   zlibd:inflate.obj
 0001:0007e510       inflateResetKeep           000000014007f510 f   zlibd:inflate.obj
 0001:0007ea80       adler32                    000000014007fa80 f   zlibd:adler32.obj
 0001:0007ead0       adler32_z                  000000014007fad0 f   zlibd:adler32.obj
 0001:0007f2f0       adler32_combine            00000001400802f0 f   zlibd:adler32.obj
 0001:0007f480       adler32_combine64          0000000140080480 f   zlibd:adler32.obj
 0001:0007f4c0       crc32                      00000001400804c0 f   zlibd:crc32.obj
 0001:0007f510       crc32_z                    0000000140080510 f   zlibd:crc32.obj
 0001:0007f8a0       crc32_combine              00000001400808a0 f   zlibd:crc32.obj
 0001:0007f8f0       get_crc_table              00000001400808f0 f   zlibd:crc32.obj
 0001:00080c60       crc32_combine64            0000000140081c60 f   zlibd:crc32.obj
 0001:00080ca0       deflate                    0000000140081ca0 f   zlibd:deflate.obj
 0001:000821d0       deflateEnd                 00000001400831d0 f   zlibd:deflate.obj
 0001:00082320       deflateSetDictionary       0000000140083320 f   zlibd:deflate.obj
 0001:000826b0       deflateGetDictionary       00000001400836b0 f   zlibd:deflate.obj
 0001:000827b0       deflateCopy                00000001400837b0 f   zlibd:deflate.obj
 0001:00082ad0       deflateReset               0000000140083ad0 f   zlibd:deflate.obj
 0001:00082b30       deflateParams              0000000140083b30 f   zlibd:deflate.obj
 0001:00082d90       deflateTune                0000000140083d90 f   zlibd:deflate.obj
 0001:00082e30       deflateBound               0000000140083e30 f   zlibd:deflate.obj
 0001:00083050       deflatePending             0000000140084050 f   zlibd:deflate.obj
 0001:000830e0       deflatePrime               00000001400840e0 f   zlibd:deflate.obj
 0001:00083230       deflateSetHeader           0000000140084230 f   zlibd:deflate.obj
 0001:000832a0       deflateInit_               00000001400842a0 f   zlibd:deflate.obj
 0001:00083320       deflateInit2_              0000000140084320 f   zlibd:deflate.obj
 0001:000837d0       deflateResetKeep           00000001400847d0 f   zlibd:deflate.obj
 0001:00087760       zlibVersion                0000000140088760 f   zlibd:zutil.obj
 0001:00087780       zlibCompileFlags           0000000140088780 f   zlibd:zutil.obj
 0001:000878b0       zError                     00000001400888b0 f   zlibd:zutil.obj
 0001:000878e0       zcalloc                    00000001400888e0 f   zlibd:zutil.obj
 0001:00087930       zcfree                     0000000140088930 f   zlibd:zutil.obj
 0001:00087970       inflate_table              0000000140088970 f   zlibd:inftrees.obj
 0001:00088290       inflate_fast               0000000140089290 f   zlibd:inffast.obj
 0001:00089060       _tr_init                   000000014008a060 f   zlibd:trees.obj
 0001:00089140       _tr_tally                  000000014008a140 f   zlibd:trees.obj
 0001:00089300       _tr_flush_block            000000014008a300 f   zlibd:trees.obj
 0001:000897a0       _tr_flush_bits             000000014008a7a0 f   zlibd:trees.obj
 0001:000897e0       _tr_align                  000000014008a7e0 f   zlibd:trees.obj
 0001:00089b00       _tr_stored_block           000000014008ab00 f   zlibd:trees.obj
 0001:0008cf64       CreateDirectoryW           000000014008df64 f   kernel32:KERNEL32.dll
 0001:0008cf6a       CreateFileW                000000014008df6a f   kernel32:KERNEL32.dll
 0001:0008cf70       DeleteFileA                000000014008df70 f   kernel32:KERNEL32.dll
 0001:0008cf76       FindClose                  000000014008df76 f   kernel32:KERNEL32.dll
 0001:0008cf7c       FindFirstFileW             000000014008df7c f   kernel32:KERNEL32.dll
 0001:0008cf82       FindNextFileW              000000014008df82 f   kernel32:KERNEL32.dll
 0001:0008cf88       GetFileAttributesW         000000014008df88 f   kernel32:KERNEL32.dll
 0001:0008cf8e       GetFileSizeEx              000000014008df8e f   kernel32:KERNEL32.dll
 0001:0008cf94       CloseHandle                000000014008df94 f   kernel32:KERNEL32.dll
 0001:0008cf9a       CreateFileA                000000014008df9a f   kernel32:KERNEL32.dll
 0001:0008cfa0       SetUnhandledExceptionFilter 000000014008dfa0 f   kernel32:KERNEL32.dll
 0001:0008cfa6       GetCurrentProcess          000000014008dfa6 f   kernel32:KERNEL32.dll
 0001:0008cfac       GetCurrentProcessId        000000014008dfac f   kernel32:KERNEL32.dll
 0001:0008cfb2       GetCurrentThreadId         000000014008dfb2 f   kernel32:KERNEL32.dll
 0001:0008cfb8       GetSystemTime              000000014008dfb8 f   kernel32:KERNEL32.dll
 0001:0008cfbe       GetModuleFileNameA         000000014008dfbe f   kernel32:KERNEL32.dll
 0001:0008cfc4       GetModuleHandleA           000000014008dfc4 f   kernel32:KERNEL32.dll
 0001:0008cfca       GetProcAddress             000000014008dfca f   kernel32:KERNEL32.dll
 0001:0008cfd0       LoadLibraryA               000000014008dfd0 f   kernel32:KERNEL32.dll
 0001:0008cfd6       FindFirstVolumeW           000000014008dfd6 f   kernel32:KERNEL32.dll
 0001:0008cfdc       FindNextVolumeW            000000014008dfdc f   kernel32:KERNEL32.dll
 0001:0008cfe2       FindVolumeClose            000000014008dfe2 f   kernel32:KERNEL32.dll
 0001:0008cfe8       GetDriveTypeW              000000014008dfe8 f   kernel32:KERNEL32.dll
 0001:0008cfee       GetVolumePathNamesForVolumeNameW 000000014008dfee f   kernel32:KERNEL32.dll
 0001:0008cff4       SetErrorMode               000000014008dff4 f   kernel32:KERNEL32.dll
 0001:0008cffa       ExitProcess                000000014008dffa f   kernel32:KERNEL32.dll
 0001:0008d000       MessageBoxA                000000014008e000 f   user32:USER32.dll
 0001:0008d006       wsprintfA                  000000014008e006 f   user32:USER32.dll
 0001:0008d00c       SHGetKnownFolderPath       000000014008e00c f   shell32:SHELL32.dll
 0001:0008d012       CoTaskMemFree              000000014008e012 f   ole32:ole32.dll
 0001:0008d020       ??0_Init_locks@std@@QEAA@XZ 000000014008e020 f   libcpmtd:xlock.obj
 0001:0008d0b0       ??0_Lockit@std@@QEAA@H@Z   000000014008e0b0 f   libcpmtd:xlock.obj
 0001:0008d110       ??0_Lockit@std@@QEAA@XZ    000000014008e110 f   libcpmtd:xlock.obj
 0001:0008d160       ??1_Init_locks@std@@QEAA@XZ 000000014008e160 f   libcpmtd:xlock.obj
 0001:0008d1e0       ??1_Lockit@std@@QEAA@XZ    000000014008e1e0 f   libcpmtd:xlock.obj
 0001:0008d230       ?_Init_locks_ctor@_Init_locks@std@@CAXPEAV12@@Z 000000014008e230 f   libcpmtd:xlock.obj
 0001:0008d2b0       ?_Init_locks_dtor@_Init_locks@std@@CAXPEAV12@@Z 000000014008e2b0 f   libcpmtd:xlock.obj
 0001:0008d330       ?_Lockit_ctor@_Lockit@std@@CAXPEAV12@@Z 000000014008e330 f   libcpmtd:xlock.obj
 0001:0008d360       ?_Lockit_ctor@_Lockit@std@@CAXPEAV12@H@Z 000000014008e360 f   libcpmtd:xlock.obj
 0001:0008d3b0       ?_Lockit_ctor@_Lockit@std@@SAXH@Z 000000014008e3b0 f   libcpmtd:xlock.obj
 0001:0008d3f0       ?_Lockit_dtor@_Lockit@std@@CAXPEAV12@@Z 000000014008e3f0 f   libcpmtd:xlock.obj
 0001:0008d420       ?_Lockit_dtor@_Lockit@std@@SAXH@Z 000000014008e420 f   libcpmtd:xlock.obj
 0001:0008d460       _Lock_at_thread_exit_mutex 000000014008e460 f   libcpmtd:xlock.obj
 0001:0008d490       _Unlock_at_thread_exit_mutex 000000014008e490 f   libcpmtd:xlock.obj
 0001:0008d4c0       ?uncaught_exception@std@@YA_NXZ 000000014008e4c0 f   libcpmtd:uncaught_exception.obj
 0001:0008d4d0       ??0bad_alloc@std@@QEAA@XZ  000000014008e4d0 f i libcpmtd:xthrow.obj
 0001:0008d510       ??0bad_function_call@std@@QEAA@AEBV01@@Z 000000014008e510 f i libcpmtd:xthrow.obj
 0001:0008d550       ??0bad_function_call@std@@QEAA@XZ 000000014008e550 f i libcpmtd:xthrow.obj
 0001:0008d580       ??0exception@std@@QEAA@QEBDH@Z 000000014008e580 f i libcpmtd:xthrow.obj
 0001:0008d5d0       ??0exception@std@@QEAA@XZ  000000014008e5d0 f i libcpmtd:xthrow.obj
 0001:0008d610       ??0invalid_argument@std@@QEAA@AEBV01@@Z 000000014008e610 f i libcpmtd:xthrow.obj
 0001:0008d650       ??0invalid_argument@std@@QEAA@PEBD@Z 000000014008e650 f i libcpmtd:xthrow.obj
 0001:0008d690       ??0length_error@std@@QEAA@AEBV01@@Z 000000014008e690 f i libcpmtd:xthrow.obj
 0001:0008d6d0       ??0length_error@std@@QEAA@PEBD@Z 000000014008e6d0 f i libcpmtd:xthrow.obj
 0001:0008d710       ??0logic_error@std@@QEAA@AEBV01@@Z 000000014008e710 f i libcpmtd:xthrow.obj
 0001:0008d750       ??0logic_error@std@@QEAA@PEBD@Z 000000014008e750 f i libcpmtd:xthrow.obj
 0001:0008d790       ??0out_of_range@std@@QEAA@AEBV01@@Z 000000014008e790 f i libcpmtd:xthrow.obj
 0001:0008d7d0       ??0out_of_range@std@@QEAA@PEBD@Z 000000014008e7d0 f i libcpmtd:xthrow.obj
 0001:0008d810       ??0overflow_error@std@@QEAA@AEBV01@@Z 000000014008e810 f i libcpmtd:xthrow.obj
 0001:0008d850       ??0overflow_error@std@@QEAA@PEBD@Z 000000014008e850 f i libcpmtd:xthrow.obj
 0001:0008d890       ??0regex_error@std@@QEAA@AEBV01@@Z 000000014008e890 f i libcpmtd:xthrow.obj
 0001:0008d8e0       ??0regex_error@std@@QEAA@W4error_type@regex_constants@1@@Z 000000014008e8e0 f i libcpmtd:xthrow.obj
 0001:0008d930       ??0runtime_error@std@@QEAA@PEBD@Z 000000014008e930 f i libcpmtd:xthrow.obj
 0001:0008d970       ??1bad_alloc@std@@UEAA@XZ  000000014008e970 f i libcpmtd:xthrow.obj
 0001:0008d990       ??1bad_function_call@std@@UEAA@XZ 000000014008e990 f i libcpmtd:xthrow.obj
 0001:0008d9b0       ??1exception@std@@UEAA@XZ  000000014008e9b0 f i libcpmtd:xthrow.obj
 0001:0008d9e0       ??1invalid_argument@std@@UEAA@XZ 000000014008e9e0 f i libcpmtd:xthrow.obj
 0001:0008da00       ??1length_error@std@@UEAA@XZ 000000014008ea00 f i libcpmtd:xthrow.obj
 0001:0008da20       ??1logic_error@std@@UEAA@XZ 000000014008ea20 f i libcpmtd:xthrow.obj
 0001:0008da40       ??1out_of_range@std@@UEAA@XZ 000000014008ea40 f i libcpmtd:xthrow.obj
 0001:0008da60       ??1overflow_error@std@@UEAA@XZ 000000014008ea60 f i libcpmtd:xthrow.obj
 0001:0008da80       ??1regex_error@std@@UEAA@XZ 000000014008ea80 f i libcpmtd:xthrow.obj
 0001:0008daa0       ??1runtime_error@std@@UEAA@XZ 000000014008eaa0 f i libcpmtd:xthrow.obj
 0001:0008dac0       ??_Ebad_function_call@std@@UEAAPEAXI@Z 000000014008eac0 f i libcpmtd:xthrow.obj
 0001:0008dac0       ??_Gbad_function_call@std@@UEAAPEAXI@Z 000000014008eac0 f i libcpmtd:xthrow.obj
 0001:0008db00       ??_Ginvalid_argument@std@@UEAAPEAXI@Z 000000014008eb00 f i libcpmtd:xthrow.obj
 0001:0008db00       ??_Einvalid_argument@std@@UEAAPEAXI@Z 000000014008eb00 f i libcpmtd:xthrow.obj
 0001:0008db40       ??_Elength_error@std@@UEAAPEAXI@Z 000000014008eb40 f i libcpmtd:xthrow.obj
 0001:0008db40       ??_Glength_error@std@@UEAAPEAXI@Z 000000014008eb40 f i libcpmtd:xthrow.obj
 0001:0008db80       ??_Elogic_error@std@@UEAAPEAXI@Z 000000014008eb80 f i libcpmtd:xthrow.obj
 0001:0008db80       ??_Glogic_error@std@@UEAAPEAXI@Z 000000014008eb80 f i libcpmtd:xthrow.obj
 0001:0008dbc0       ??_Gout_of_range@std@@UEAAPEAXI@Z 000000014008ebc0 f i libcpmtd:xthrow.obj
 0001:0008dbc0       ??_Eout_of_range@std@@UEAAPEAXI@Z 000000014008ebc0 f i libcpmtd:xthrow.obj
 0001:0008dc00       ??_Goverflow_error@std@@UEAAPEAXI@Z 000000014008ec00 f i libcpmtd:xthrow.obj
 0001:0008dc00       ??_Eoverflow_error@std@@UEAAPEAXI@Z 000000014008ec00 f i libcpmtd:xthrow.obj
 0001:0008dc40       ??_Gregex_error@std@@UEAAPEAXI@Z 000000014008ec40 f i libcpmtd:xthrow.obj
 0001:0008dc40       ??_Eregex_error@std@@UEAAPEAXI@Z 000000014008ec40 f i libcpmtd:xthrow.obj
 0001:0008dc80       ?_Stringify@regex_error@std@@CAPEBDW4error_type@regex_constants@2@@Z 000000014008ec80 f i libcpmtd:xthrow.obj
 0001:0008dd90       ?_Xbad_alloc@std@@YAXXZ    000000014008ed90 f   libcpmtd:xthrow.obj
 0001:0008ddc0       ?_Xbad_function_call@std@@YAXXZ 000000014008edc0 f   libcpmtd:xthrow.obj
 0001:0008ddf0       ?_Xinvalid_argument@std@@YAXPEBD@Z 000000014008edf0 f   libcpmtd:xthrow.obj
 0001:0008de20       ?_Xlength_error@std@@YAXPEBD@Z 000000014008ee20 f   libcpmtd:xthrow.obj
 0001:0008de50       ?_Xout_of_range@std@@YAXPEBD@Z 000000014008ee50 f   libcpmtd:xthrow.obj
 0001:0008de80       ?_Xoverflow_error@std@@YAXPEBD@Z 000000014008ee80 f   libcpmtd:xthrow.obj
 0001:0008deb0       ?_Xregex_error@std@@YAXW4error_type@regex_constants@1@@Z 000000014008eeb0 f   libcpmtd:xthrow.obj
 0001:0008dee0       ?_Xruntime_error@std@@YAXPEBD@Z 000000014008eee0 f   libcpmtd:xthrow.obj
 0001:0008df10       ?__empty_global_delete@@YAXPEAXW4align_val_t@std@@@Z 000000014008ef10 f i libcpmtd:xthrow.obj
 0001:0008df20       ?__empty_global_delete@@YAXPEAX_KW4align_val_t@std@@@Z 000000014008ef20 f i libcpmtd:xthrow.obj
 0001:0008df30       ?what@bad_function_call@std@@UEBAPEBDXZ 000000014008ef30 f i libcpmtd:xthrow.obj
 0001:0008df40       ?_Syserror_map@std@@YAPEBDH@Z 000000014008ef40 f   libcpmtd:syserror.obj
 0001:0008dfc0       ?_Winerror_map@std@@YAHH@Z 000000014008efc0 f   libcpmtd:syserror.obj
 0001:0008e030       ?_Winerror_message@std@@YAKKPEADK@Z 000000014008f030 f   libcpmtd:syserror.obj
 0001:0008e090       ??0?$_Yarn@D@std@@QEAA@PEBD@Z 000000014008f090 f i libcpmtd:locale0.obj
 0001:0008e0d0       ??0_Fac_node@std@@QEAA@PEAU01@PEAV_Facet_base@1@@Z 000000014008f0d0 f i libcpmtd:locale0.obj
 0001:0008e100       ??0_Facet_base@std@@QEAA@XZ 000000014008f100 f i libcpmtd:locale0.obj
 0001:0008e120       ??0_Locimp@locale@std@@AEAA@AEBV012@@Z 000000014008f120 f i libcpmtd:locale0.obj
 0001:0008e1e0       ??0_Locimp@locale@std@@AEAA@_N@Z 000000014008f1e0 f i libcpmtd:locale0.obj
 0001:0008e270       ??0facet@locale@std@@IEAA@_K@Z 000000014008f270 f i libcpmtd:locale0.obj
 0001:0008e2b0       ??0id@locale@std@@QEAA@_K@Z 000000014008f2b0 f i libcpmtd:locale0.obj
 0001:0008e2d0       ??0locale@std@@AEAA@PEAV_Locimp@01@@Z 000000014008f2d0 f i libcpmtd:locale0.obj
 0001:0008e2f0       ??0locale@std@@QEAA@W4_Uninitialized@1@@Z 000000014008f2f0 f i libcpmtd:locale0.obj
 0001:0008e300       ??1_Fac_node@std@@QEAA@XZ  000000014008f300 f i libcpmtd:locale0.obj
 0001:0008e390       ??1_Fac_tidy_reg_t@std@@QEAA@XZ 000000014008f390 f i libcpmtd:locale0.obj
 0001:0008e400       ??1_Facet_base@std@@UEAA@XZ 000000014008f400 f i libcpmtd:locale0.obj
 0001:0008e420       ??1_Locimp@locale@std@@MEAA@XZ 000000014008f420 f i libcpmtd:locale0.obj
 0001:0008e470       ??2@YAPEAX_KPEAX@Z         000000014008f470 f i libcpmtd:locale0.obj
 0001:0008e480       ??2_Crt_new_delete@std@@SAPEAX_KAEBUnothrow_t@1@@Z 000000014008f480 f i libcpmtd:locale0.obj
 0001:0008e4d0       ??2_Fac_node@std@@SAPEAX_K@Z 000000014008f4d0 f i libcpmtd:locale0.obj
 0001:0008e530       ??3_Fac_node@std@@SAXPEAX@Z 000000014008f530 f i libcpmtd:locale0.obj
 0001:0008e550       ??_G_Fac_node@std@@QEAAPEAXI@Z 000000014008f550 f i libcpmtd:locale0.obj
 0001:0008e5b0       ??_G_Locimp@locale@std@@MEAAPEAXI@Z 000000014008f5b0 f i libcpmtd:locale0.obj
 0001:0008e5b0       ??_E_Locimp@locale@std@@MEAAPEAXI@Z 000000014008f5b0 f i libcpmtd:locale0.obj
 0001:0008e610       ?_C_str@?$_Yarn@D@std@@QEBAPEBDXZ 000000014008f610 f i libcpmtd:locale0.obj
 0001:0008e650       ?_Empty@?$_Yarn@D@std@@QEBA_NXZ 000000014008f650 f i libcpmtd:locale0.obj
 0001:0008e680       ?_Facet_Register@std@@YAXPEAV_Facet_base@1@@Z 000000014008f680 f   libcpmtd:locale0.obj
 0001:0008e6f0       ?_Getgloballocale@locale@std@@CAPEAV_Locimp@12@XZ 000000014008f6f0 f   libcpmtd:locale0.obj
 0001:0008e700       ?_Init@locale@std@@CAPEAV_Locimp@12@_N@Z 000000014008f700 f   libcpmtd:locale0.obj
 0001:0008e810       ?_Locimp_dtor@_Locimp@locale@std@@CAXPEAV123@@Z 000000014008f810 f   libcpmtd:locale0.obj
 0001:0008e910       ?_Locinfo_ctor@_Locinfo@std@@SAXPEAV12@PEBD@Z 000000014008f910 f   libcpmtd:locale0.obj
 0001:0008e9c0       ?_Locinfo_dtor@_Locinfo@std@@SAXPEAV12@@Z 000000014008f9c0 f   libcpmtd:locale0.obj
 0001:0008ea10       ?_New_Locimp@_Locimp@locale@std@@CAPEAV123@AEBV123@@Z 000000014008fa10 f   libcpmtd:locale0.obj
 0001:0008ea70       ?_New_Locimp@_Locimp@locale@std@@CAPEAV123@_N@Z 000000014008fa70 f   libcpmtd:locale0.obj
 0001:0008ead0       ?_Setgloballocale@locale@std@@CAXPEAX@Z 000000014008fad0 f   libcpmtd:locale0.obj
 0001:0008eb10       ?_Tidy@?$_Yarn@D@std@@AEAAXXZ 000000014008fb10 f i libcpmtd:locale0.obj
 0001:0008eb50       ?c_str@?$_Yarn@D@std@@QEBAPEBDXZ 000000014008fb50 f i libcpmtd:locale0.obj
 0001:0008eb90       ?classic@locale@std@@SAAEBV12@XZ 000000014008fb90 f   libcpmtd:locale0.obj
 0001:0008ebb0       ?empty@locale@std@@SA?AV12@XZ 000000014008fbb0 f   libcpmtd:locale0.obj
 0001:0008ec00       _Deletegloballocale        000000014008fc00 f   libcpmtd:locale0.obj
 0001:0008ecd0       _Getctype                  000000014008fcd0 f   libcpmtd:_tolower.obj
 0001:0008edb0       _Tolower                   000000014008fdb0 f   libcpmtd:_tolower.obj
 0001:0008f050       _Toupper                   0000000140090050 f   libcpmtd:_toupper.obj
 0001:0008f2f0       ??$?0$$V@?$_Compressed_pair@V?$allocator@D@std@@V?$_String_val@U?$_Simple_types@D@std@@@2@$00@std@@QEAA@U_Zero_then_variadic_args_t@1@@Z 00000001400902f0 f i libcpmtd:cout.obj
 0001:0008f320       ??$?0AEAPEAV_Facet_base@std@@@?$_Compressed_pair@U?$default_delete@V_Facet_base@std@@@std@@PEAV_Facet_base@2@$00@std@@QEAA@U_Zero_then_variadic_args_t@1@AEAPEAV_Facet_base@1@@Z 0000000140090320 f i libcpmtd:cout.obj
 0001:0008f360       ??$?0D@?$allocator@U_Container_proxy@std@@@std@@QEAA@AEBV?$allocator@D@1@@Z 0000000140090360 f i libcpmtd:cout.obj
 0001:0008f370       ??$?0U?$default_delete@V_Facet_base@std@@@std@@$0A@@?$unique_ptr@V_Facet_base@std@@U?$default_delete@V_Facet_base@std@@@2@@std@@QEAA@PEAV_Facet_base@1@@Z 0000000140090370 f i libcpmtd:cout.obj
 0001:0008f3b0       ??$?0V?$allocator@D@std@@$$V@?$_Compressed_pair@V?$allocator@D@std@@V?$_String_val@U?$_Simple_types@D@std@@@2@$00@std@@QEAA@U_One_then_variadic_args_t@1@$$QEAV?$allocator@D@1@@Z 00000001400903b0 f i libcpmtd:cout.obj
 0001:0008f3f0       ??$_Adl_verify_range@PEADPEBD@std@@YAXAEBQEADAEBQEBD@Z 00000001400903f0 f i libcpmtd:cout.obj
 0001:0008f420       ??$_Adl_verify_range@PEBDPEBD@std@@YAXAEBQEBD0@Z 0000000140090420 f i libcpmtd:cout.obj
 0001:0008f450       ??$_Convert_size@_K@std@@YA_K_K@Z 0000000140090450 f i libcpmtd:cout.obj
 0001:0008f460       ??$_Fgetc@D@std@@YA_NAEADPEAU_iobuf@@@Z 0000000140090460 f i libcpmtd:cout.obj
 0001:0008f4a0       ??$_Fputc@D@std@@YA_NDPEAU_iobuf@@@Z 00000001400904a0 f i libcpmtd:cout.obj
 0001:0008f4e0       ??$_Get_size_of_n@$00@std@@YA_K_K@Z 00000001400904e0 f i libcpmtd:cout.obj
 0001:0008f500       ??$_Get_size_of_n@$0BA@@std@@YA_K_K@Z 0000000140090500 f i libcpmtd:cout.obj
 0001:0008f540       ??$_Reallocate_for@V<lambda_1>@?1??assign@?$basic_string@DU?$char_traits@D@std@@V?$allocator@D@2@@std@@QEAAAEAV34@QEBD_K@Z@PEBD@?$basic_string@DU?$char_traits@D@std@@V?$allocator@D@2@@std@@AEAAAEAV01@_KV<lambda_1>@?1??assign@01@QEAAAEAV01@QEBD0@Z@PEBD@Z 0000000140090540 f i libcpmtd:cout.obj
 0001:0008f660       ??$_Reallocate_grow_by@V<lambda_1>@?1??append@?$basic_string@DU?$char_traits@D@std@@V?$allocator@D@2@@std@@QEAAAEAV34@QEBD_K@Z@PEBD_K@?$basic_string@DU?$char_traits@D@std@@V?$allocator@D@2@@std@@AEAAAEAV01@_KV<lambda_1>@?1??append@01@QEAAAEAV01@QEBD0@Z@PEBD_K@Z 0000000140090660 f i libcpmtd:cout.obj
 0001:0008f840       ??$_Reallocate_grow_by@V<lambda_1>@?1??push_back@?$basic_string@DU?$char_traits@D@std@@V?$allocator@D@2@@std@@QEAAXD@Z@D@?$basic_string@DU?$char_traits@D@std@@V?$allocator@D@2@@std@@AEAAAEAV01@_KV<lambda_1>@?1??push_back@01@QEAAXD@Z@D@Z 0000000140090840 f i libcpmtd:cout.obj
 0001:0008fa00       ??$_Unfancy@D@std@@YAPEADPEAD@Z 0000000140090a00 f i libcpmtd:cout.obj
 0001:0008fa10       ??$_Unfancy@U_Container_proxy@std@@@std@@YAPEAU_Container_proxy@0@PEAU10@@Z 0000000140090a10 f i libcpmtd:cout.obj
 0001:0008fa20       ??$_Ungetc@D@std@@YA_NAEBDPEAU_iobuf@@@Z 0000000140090a20 f i libcpmtd:cout.obj
 0001:0008fa70       ??$addressof@$$CBV?$_String_val@U?$_Simple_types@D@std@@@std@@@std@@YAPEBV?$_String_val@U?$_Simple_types@D@std@@@0@AEBV10@@Z 0000000140090a70 f i libcpmtd:cout.obj
 0001:0008fa80       ??$addressof@$$CBV?$codecvt@DDU_Mbstatet@@@std@@@std@@YAPEBV?$codecvt@DDU_Mbstatet@@@0@AEBV10@@Z 0000000140090a80 f i libcpmtd:cout.obj
 0001:0008fa90       ??$addressof@PEAD@std@@YAPEAPEADAEAPEAD@Z 0000000140090a90 f i libcpmtd:cout.obj
 0001:0008faa0       ??$addressof@U_Container_base12@std@@@std@@YAPEAU_Container_base12@0@AEAU10@@Z 0000000140090aa0 f i libcpmtd:cout.obj
 0001:0008fab0       ??$addressof@U_Container_proxy@std@@@std@@YAPEAU_Container_proxy@0@AEAU10@@Z 0000000140090ab0 f i libcpmtd:cout.obj
 0001:0008fac0       ??$addressof@V?$_String_val@U?$_Simple_types@D@std@@@std@@@std@@YAPEAV?$_String_val@U?$_Simple_types@D@std@@@0@AEAV10@@Z 0000000140090ac0 f i libcpmtd:cout.obj
 0001:0008fad0       ??$exchange@PEAV_Facet_base@std@@PEAV12@@std@@YAPEAV_Facet_base@0@AEAPEAV10@$$QEAPEAV10@@Z 0000000140090ad0 f i libcpmtd:cout.obj
 0001:0008fb10       ??$forward@AEAPEAV_Facet_base@std@@@std@@YAAEAPEAV_Facet_base@0@AEAPEAV10@@Z 0000000140090b10 f i libcpmtd:cout.obj
 0001:0008fb20       ??$forward@AEBQEAD@std@@YAAEBQEADAEBQEAD@Z 0000000140090b20 f i libcpmtd:cout.obj
 0001:0008fb30       ??$forward@PEAU_Container_base12@std@@@std@@YA$$QEAPEAU_Container_base12@0@AEAPEAU10@@Z 0000000140090b30 f i libcpmtd:cout.obj
 0001:0008fb40       ??$forward@V?$allocator@D@std@@@std@@YA$$QEAV?$allocator@D@0@AEAV10@@Z 0000000140090b40 f i libcpmtd:cout.obj
 0001:0008fb50       ??$max@_K@std@@YAAEB_KAEB_K0@Z 0000000140090b50 f i libcpmtd:cout.obj
 0001:0008fba0       ??$min@_J@std@@YAAEB_JAEB_J0@Z 0000000140090ba0 f i libcpmtd:cout.obj
 0001:0008fbf0       ??$min@_K@std@@YAAEB_KAEB_K0@Z 0000000140090bf0 f i libcpmtd:cout.obj
 0001:0008fc40       ??$move@AEAV?$allocator@D@std@@@std@@YA$$QEAV?$allocator@D@0@AEAV10@@Z 0000000140090c40 f i libcpmtd:cout.obj
 0001:0008fc50       ??0?$_Yarn@D@std@@QEAA@XZ  0000000140090c50 f i libcpmtd:cout.obj
 0001:0008fc70       ??0?$_Yarn@_W@std@@QEAA@XZ 0000000140090c70 f i libcpmtd:cout.obj
 0001:0008fca0       ??0?$allocator@D@std@@QEAA@XZ 0000000140090ca0 f i libcpmtd:cout.obj
 0001:0008fcb0       ??0?$basic_filebuf@DU?$char_traits@D@std@@@std@@QEAA@QEAU_iobuf@@@Z 0000000140090cb0 f i libcpmtd:cout.obj
 0001:0008fd00       ??0?$basic_ios@DU?$char_traits@D@std@@@std@@IEAA@XZ 0000000140090d00 f i libcpmtd:cout.obj
 0001:0008fd30       ??0?$basic_ostream@DU?$char_traits@D@std@@@std@@QEAA@PEAV?$basic_streambuf@DU?$char_traits@D@std@@@1@_N@Z 0000000140090d30 f i libcpmtd:cout.obj
 0001:0008fe00       ??0?$codecvt@DDU_Mbstatet@@@std@@QEAA@AEBV_Locinfo@1@_K@Z 0000000140090e00 f i libcpmtd:cout.obj
 0001:0008fe50       ??0?$ctype@D@std@@QEAA@AEBV_Locinfo@1@_K@Z 0000000140090e50 f i libcpmtd:cout.obj
 0001:0008fea0       ??0?$fpos@U_Mbstatet@@@std@@QEAA@U_Mbstatet@@_J@Z 0000000140090ea0 f i libcpmtd:cout.obj
 0001:0008fee0       ??0?$fpos@U_Mbstatet@@@std@@QEAA@_J@Z 0000000140090ee0 f i libcpmtd:cout.obj
 0001:0008ff30       ??0_Bxty@?$_String_val@U?$_Simple_types@D@std@@@std@@QEAA@XZ 0000000140090f30 f i libcpmtd:cout.obj
 0001:0008ff40       ??0_Container_base12@std@@QEAA@XZ 0000000140090f40 f i libcpmtd:cout.obj
 0001:0008ff60       ??0_Container_proxy@std@@QEAA@PEAU_Container_base12@1@@Z 0000000140090f60 f i libcpmtd:cout.obj
 0001:0008ff90       ??0_Init_cout@std@@QEAA@XZ 0000000140090f90 f i libcpmtd:cout.obj
 0001:00090070       ??0bad_alloc@std@@AEAA@QEBD@Z 0000000140091070 f i libcpmtd:cout.obj
 0001:000900b0       ??0codecvt_base@std@@QEAA@_K@Z 00000001400910b0 f i libcpmtd:cout.obj
 0001:000900f0       ??0ctype_base@std@@QEAA@_K@Z 00000001400910f0 f i libcpmtd:cout.obj
 0001:00090130       ??0error_code@std@@QEAA@HAEBVerror_category@1@@Z 0000000140091130 f i libcpmtd:cout.obj
 0001:00090160       ??0error_condition@std@@QEAA@HAEBVerror_category@1@@Z 0000000140091160 f i libcpmtd:cout.obj
 0001:00090190       ??0ios_base@std@@IEAA@XZ   0000000140091190 f i libcpmtd:cout.obj
 0001:000901b0       ??0locale@std@@QEAA@XZ     00000001400911b0 f i libcpmtd:cout.obj
 0001:000901e0       ??0system_error@std@@QEAA@Verror_code@1@PEBD@Z 00000001400911e0 f i libcpmtd:cout.obj
 0001:00090280       ??1?$_String_val@U?$_Simple_types@D@std@@@std@@QEAA@XZ 0000000140091280 f i libcpmtd:cout.obj
 0001:000902a0       ??1?$basic_ostream@DU?$char_traits@D@std@@@std@@UEAA@XZ 00000001400912a0 f i libcpmtd:cout.obj
 0001:000902f0       ??1?$codecvt@DDU_Mbstatet@@@std@@MEAA@XZ 00000001400912f0 f i libcpmtd:cout.obj
 0001:00090320       ??1?$ctype@D@std@@MEAA@XZ  0000000140091320 f i libcpmtd:cout.obj
 0001:00090360       ??1_Bxty@?$_String_val@U?$_Simple_types@D@std@@@std@@QEAA@XZ 0000000140091360 f i libcpmtd:cout.obj
 0001:00090370       ??1_Iostream_error_category2@std@@UEAA@XZ 0000000140091370 f i libcpmtd:cout.obj
 0001:00090390       ??1_System_error@std@@UEAA@XZ 0000000140091390 f i libcpmtd:cout.obj
 0001:000903b0       ??1ctype_base@std@@UEAA@XZ 00000001400913b0 f i libcpmtd:cout.obj
 0001:000903e0       ??1error_category@std@@UEAA@XZ 00000001400913e0 f i libcpmtd:cout.obj
 0001:000903f0       ??1ios_base@std@@UEAA@XZ   00000001400913f0 f i libcpmtd:cout.obj
 0001:00090420       ??1system_error@std@@UEAA@XZ 0000000140091420 f i libcpmtd:cout.obj
 0001:00090440       ??8error_category@std@@QEBA_NAEBV01@@Z 0000000140091440 f i libcpmtd:cout.obj
 0001:00090480       ??8std@@YA_NAEBVerror_condition@0@0@Z 0000000140091480 f i libcpmtd:cout.obj
 0001:00090500       ??B?$fpos@U_Mbstatet@@@std@@QEBA_JXZ 0000000140091500 f i libcpmtd:cout.obj
 0001:00090520       ??R<lambda_1>@?1??append@?$basic_string@DU?$char_traits@D@std@@V?$allocator@D@2@@std@@QEAAAEAV23@QEBD_K@Z@QEBAXQEAD0101@Z 0000000140091520 f i libcpmtd:cout.obj
 0001:000905a0       ??R<lambda_1>@?1??assign@?$basic_string@DU?$char_traits@D@std@@V?$allocator@D@2@@std@@QEAAAEAV23@QEBD_K@Z@QEBAXQEAD10@Z 00000001400915a0 f i libcpmtd:cout.obj
 0001:00090600       ??R<lambda_1>@?1??push_back@?$basic_string@DU?$char_traits@D@std@@V?$allocator@D@2@@std@@QEAAXD@Z@QEBAXQEADQEBD_KD@Z 0000000140091600 f i libcpmtd:cout.obj
 0001:00090670       ??R?$default_delete@V_Facet_base@std@@@std@@QEBAXPEAV_Facet_base@1@@Z 0000000140091670 f i libcpmtd:cout.obj
 0001:000906e0       ??_Glocale@std@@QEAAPEAXI@Z 00000001400916e0 f i libcpmtd:cout.obj
 0001:00090740       ?_Allocate@_Default_allocate_traits@std@@SAPEAX_K@Z 0000000140091740 f i libcpmtd:cout.obj
 0001:00090760       ?_Check_offset@?$_String_val@U?$_Simple_types@D@std@@@std@@QEBAX_K@Z 0000000140091760 f i libcpmtd:cout.obj
 0001:00090790       ?_Clamp_suffix_size@?$_String_val@U?$_Simple_types@D@std@@@std@@QEBA_K_K0@Z 0000000140091790 f i libcpmtd:cout.obj
 0001:000907d0       ?_Get_first@?$_Compressed_pair@U?$default_delete@V_Facet_base@std@@@std@@PEAV_Facet_base@2@$00@std@@QEAAAEAU?$default_delete@V_Facet_base@std@@@2@XZ 00000001400917d0 f i libcpmtd:cout.obj
 0001:000907e0       ?_Get_first@?$_Compressed_pair@V?$allocator@D@std@@V?$_String_val@U?$_Simple_types@D@std@@@2@$00@std@@QEAAAEAV?$allocator@D@2@XZ 00000001400917e0 f i libcpmtd:cout.obj
 0001:000907f0       ?_Get_first@?$_Compressed_pair@V?$allocator@D@std@@V?$_String_val@U?$_Simple_types@D@std@@@2@$00@std@@QEBAAEBV?$allocator@D@2@XZ 00000001400917f0 f i libcpmtd:cout.obj
 0001:00090800       ?_Getal@?$basic_string@DU?$char_traits@D@std@@V?$allocator@D@2@@std@@AEAAAEAV?$allocator@D@2@XZ 0000000140091800 f i libcpmtd:cout.obj
 0001:00090820       ?_Getal@?$basic_string@DU?$char_traits@D@std@@V?$allocator@D@2@@std@@AEBAAEBV?$allocator@D@2@XZ 0000000140091820 f i libcpmtd:cout.obj
 0001:00090840       ?_Getctype@_Locinfo@std@@QEBA?AU_Ctypevec@@XZ 0000000140091840 f i libcpmtd:cout.obj
 0001:000908a0       ?_Gnavail@?$basic_streambuf@DU?$char_traits@D@std@@@std@@IEBA_JXZ 00000001400918a0 f i libcpmtd:cout.obj
 0001:000908e0       ?_Gndec@?$basic_streambuf@DU?$char_traits@D@std@@@std@@IEAAPEADXZ 00000001400918e0 f i libcpmtd:cout.obj
 0001:00090930       ?_Init@?$basic_streambuf@DU?$char_traits@D@std@@@std@@IEAAXPEAPEAD0PEAH001@Z 0000000140091930 f i libcpmtd:cout.obj
 0001:000909a0       ?_Init@?$codecvt@DDU_Mbstatet@@@std@@IEAAXAEBV_Locinfo@2@@Z 00000001400919a0 f i libcpmtd:cout.obj
 0001:000909b0       ?_Init@?$ctype@D@std@@IEAAXAEBV_Locinfo@2@@Z 00000001400919b0 f i libcpmtd:cout.obj
 0001:000909f0       ?_Initcvt@?$basic_filebuf@DU?$char_traits@D@std@@@std@@IEAAXAEBV?$codecvt@DDU_Mbstatet@@@2@@Z 00000001400919f0 f i libcpmtd:cout.obj
 0001:00090a40       ?_Large_string_engaged@?$_String_val@U?$_Simple_types@D@std@@@std@@QEBA_NXZ 0000000140091a40 f i libcpmtd:cout.obj
 0001:00090a70       ?_Memcpy_val_from@?$basic_string@DU?$char_traits@D@std@@V?$allocator@D@2@@std@@AEAAXAEBV12@@Z 0000000140091a70 f i libcpmtd:cout.obj
 0001:00090ad0       ?_Pnavail@?$basic_streambuf@DU?$char_traits@D@std@@@std@@IEBA_JXZ 0000000140091ad0 f i libcpmtd:cout.obj
 0001:00090b10       ?_Release@_Basic_container_proxy_ptr12@std@@QEAAXXZ 0000000140091b10 f i libcpmtd:cout.obj
 0001:00090b30       ?_Swap_proxy_and_iterators@?$basic_string@DU?$char_traits@D@std@@V?$allocator@D@2@@std@@AEAAXAEAV12@@Z 0000000140091b30 f i libcpmtd:cout.obj
 0001:00090b60       ?_Tidy@?$_Yarn@_W@std@@AEAAXXZ 0000000140091b60 f i libcpmtd:cout.obj
 0001:00090ba0       ?_Tidy_init@?$basic_string@DU?$char_traits@D@std@@V?$allocator@D@2@@std@@AEAAXXZ 0000000140091ba0 f i libcpmtd:cout.obj
 0001:00090bf0       ?allocate@?$allocator@D@std@@QEAAPEAD_K@Z 0000000140091bf0 f i libcpmtd:cout.obj
 0001:00090c20       ?allocate@?$allocator@U_Container_proxy@std@@@std@@QEAAPEAU_Container_proxy@2@_K@Z 0000000140091c20 f i libcpmtd:cout.obj
 0001:00090c50       ?always_noconv@codecvt_base@std@@QEBA_NXZ 0000000140091c50 f i libcpmtd:cout.obj
 0001:00090c80       ?append@?$basic_string@DU?$char_traits@D@std@@V?$allocator@D@2@@std@@QEAAAEAV12@QEBD@Z 0000000140091c80 f i libcpmtd:cout.obj
 0001:00090cc0       ?assign@?$_Narrow_char_traits@DH@std@@SAXAEADAEBD@Z 0000000140091cc0 f i libcpmtd:cout.obj
 0001:00090ce0       ?assign@?$basic_string@DU?$char_traits@D@std@@V?$allocator@D@2@@std@@QEAAAEAV12@QEBD@Z 0000000140091ce0 f i libcpmtd:cout.obj
 0001:00090d20       ?c_str@?$basic_string@DU?$char_traits@D@std@@V?$allocator@D@2@@std@@QEBAPEBDXZ 0000000140091d20 f i libcpmtd:cout.obj
 0001:00090d40       ?c_str@locale@std@@QEBAPEBDXZ 0000000140091d40 f i libcpmtd:cout.obj
 0001:00090d90       ?category@error_code@std@@QEBAAEBVerror_category@2@XZ 0000000140091d90 f i libcpmtd:cout.obj
 0001:00090da0       ?category@error_condition@std@@QEBAAEBVerror_category@2@XZ 0000000140091da0 f i libcpmtd:cout.obj
 0001:00090db0       ?clear@?$basic_ios@DU?$char_traits@D@std@@@std@@QEAAXH_N@Z 0000000140091db0 f i libcpmtd:cout.obj
 0001:00090e10       ?clear@ios_base@std@@QEAAXH@Z 0000000140091e10 f i libcpmtd:cout.obj
 0001:00090e40       ?copy@?$_Char_traits@DH@std@@SAPEADQEADQEBD_K@Z 0000000140091e40 f i libcpmtd:cout.obj
 0001:00090ed0       ?data@?$basic_string@DU?$char_traits@D@std@@V?$allocator@D@2@@std@@QEAAPEADXZ 0000000140091ed0 f i libcpmtd:cout.obj
 0001:00090ef0       ?deallocate@?$_Default_allocator_traits@V?$allocator@U_Container_proxy@std@@@std@@@std@@SAXAEAV?$allocator@U_Container_proxy@std@@@2@QEAU_Container_proxy@2@_K@Z 0000000140091ef0 f i libcpmtd:cout.obj
 0001:00090f20       ?eback@?$basic_streambuf@DU?$char_traits@D@std@@@std@@IEBAPEADXZ 0000000140091f20 f i libcpmtd:cout.obj
 0001:00090f40       ?egptr@?$basic_streambuf@DU?$char_traits@D@std@@@std@@IEBAPEADXZ 0000000140091f40 f i libcpmtd:cout.obj
 0001:00090f70       ?empty@?$basic_string@DU?$char_traits@D@std@@V?$allocator@D@2@@std@@QEBA_NXZ 0000000140091f70 f i libcpmtd:cout.obj
 0001:00090fb0       ?eof@?$_Narrow_char_traits@DH@std@@SAHXZ 0000000140091fb0 f i libcpmtd:cout.obj
 0001:00090fc0       ?epptr@?$basic_streambuf@DU?$char_traits@D@std@@@std@@IEBAPEADXZ 0000000140091fc0 f i libcpmtd:cout.obj
 0001:00090ff0       ?eq_int_type@?$_Narrow_char_traits@DH@std@@SA_NAEBH0@Z 0000000140091ff0 f i libcpmtd:cout.obj
 0001:00091030       ?erase@?$basic_string@DU?$char_traits@D@std@@V?$allocator@D@2@@std@@QEAAAEAV12@_K0@Z 0000000140092030 f i libcpmtd:cout.obj
 0001:00091080       ?gbump@?$basic_streambuf@DU?$char_traits@D@std@@@std@@IEAAXH@Z 0000000140092080 f i libcpmtd:cout.obj
 0001:000910d0       ?getloc@ios_base@std@@QEBA?AVlocale@2@XZ 00000001400920d0 f i libcpmtd:cout.obj
 0001:00091110       ?gptr@?$basic_streambuf@DU?$char_traits@D@std@@@std@@IEBAPEADXZ 0000000140092110 f i libcpmtd:cout.obj
 0001:00091130       ?in@?$codecvt@DDU_Mbstatet@@@std@@QEBAHAEAU_Mbstatet@@PEBD1AEAPEBDPEAD3AEAPEAD@Z 0000000140092130 f i libcpmtd:cout.obj
 0001:000911d0       ?iostream_category@std@@YAAEBVerror_category@1@XZ 00000001400921d0 f i libcpmtd:cout.obj
 0001:000911e0       ?is_constant_evaluated@std@@YA_NXZ 00000001400921e0 f i libcpmtd:cout.obj
 0001:000911f0       ?length@?$_Narrow_char_traits@DH@std@@SA_KQEBD@Z 00000001400921f0 f i libcpmtd:cout.obj
 0001:00091230       ?max@?$numeric_limits@_J@std@@SA_JXZ 0000000140092230 f i libcpmtd:cout.obj
 0001:00091240       ?max_size@?$_Default_allocator_traits@V?$allocator@D@std@@@std@@SA_KAEBV?$allocator@D@2@@Z 0000000140092240 f i libcpmtd:cout.obj
 0001:00091250       ?message@error_code@std@@QEBA?AV?$basic_string@DU?$char_traits@D@std@@V?$allocator@D@2@@2@XZ 0000000140092250 f i libcpmtd:cout.obj
 0001:000912d0       ?move@?$_Char_traits@DH@std@@SAPEADQEADQEBD_K@Z 00000001400922d0 f i libcpmtd:cout.obj
 0001:00091420       ?not_eof@?$_Narrow_char_traits@DH@std@@SAHAEBH@Z 0000000140092420 f i libcpmtd:cout.obj
 0001:00091470       ?out@?$codecvt@DDU_Mbstatet@@@std@@QEBAHAEAU_Mbstatet@@PEBD1AEAPEBDPEAD3AEAPEAD@Z 0000000140092470 f i libcpmtd:cout.obj
 0001:00091510       ?pbump@?$basic_streambuf@DU?$char_traits@D@std@@@std@@IEAAXH@Z 0000000140092510 f i libcpmtd:cout.obj
 0001:00091560       ?pptr@?$basic_streambuf@DU?$char_traits@D@std@@@std@@IEBAPEADXZ 0000000140092560 f i libcpmtd:cout.obj
 0001:00091580       ?rdstate@ios_base@std@@QEBAHXZ 0000000140092580 f i libcpmtd:cout.obj
 0001:00091590       ?release@?$unique_ptr@V_Facet_base@std@@U?$default_delete@V_Facet_base@std@@@2@@std@@QEAAPEAV_Facet_base@2@XZ 0000000140092590 f i libcpmtd:cout.obj
 0001:000915c0       ?select_on_container_copy_construction@?$_Default_allocator_traits@V?$allocator@D@std@@@std@@SA?AV?$allocator@D@2@AEBV32@@Z 00000001400925c0 f i libcpmtd:cout.obj
 0001:000915d0       ?setg@?$basic_streambuf@DU?$char_traits@D@std@@@std@@IEAAXPEAD00@Z 00000001400925d0 f i libcpmtd:cout.obj
 0001:00091630       ?setp@?$basic_streambuf@DU?$char_traits@D@std@@@std@@IEAAXPEAD0@Z 0000000140092630 f i libcpmtd:cout.obj
 0001:00091680       ?setstate@?$basic_ios@DU?$char_traits@D@std@@@std@@QEAAXH_N@Z 0000000140092680 f i libcpmtd:cout.obj
 0001:000916c0       ?size@?$basic_string@DU?$char_traits@D@std@@V?$allocator@D@2@@std@@QEBA_KXZ 00000001400926c0 f i libcpmtd:cout.obj
 0001:000916d0       ?state@?$fpos@U_Mbstatet@@@std@@QEBA?AU_Mbstatet@@XZ 00000001400926d0 f i libcpmtd:cout.obj
 0001:00091700       ?tie@?$basic_ios@DU?$char_traits@D@std@@@std@@QEAAPEAV?$basic_ostream@DU?$char_traits@D@std@@@2@PEAV32@@Z 0000000140092700 f i libcpmtd:cout.obj
 0001:00091740       ?to_char_type@?$_Narrow_char_traits@DH@std@@SADAEBH@Z 0000000140092740 f i libcpmtd:cout.obj
 0001:00091750       ?to_int_type@?$_Narrow_char_traits@DH@std@@SAHAEBD@Z 0000000140092750 f i libcpmtd:cout.obj
 0001:00091760       ?unshift@?$codecvt@DDU_Mbstatet@@@std@@QEBAHAEAU_Mbstatet@@PEAD1AEAPEAD@Z 0000000140092760 f i libcpmtd:cout.obj
 0001:000917d0       ?value@error_code@std@@QEBAHXZ 00000001400927d0 f i libcpmtd:cout.obj
 0001:000917e0       ?value@error_condition@std@@QEBAHXZ 00000001400927e0 f i libcpmtd:cout.obj
 0001:000917f0       ?widen@?$ctype@D@std@@QEBADD@Z 00000001400927f0 f i libcpmtd:cout.obj
 0001:00091840       _Getcvt                    0000000140092840 f   libcpmtd:xwctomb.obj
 0001:00091970       _Wcrtomb                   0000000140092970 f   libcpmtd:xwctomb.obj
 0001:00091ae0       __Wcrtomb_lk               0000000140092ae0 f   libcpmtd:xwctomb.obj
 0001:00091b20       ?_Addstd@ios_base@std@@SAXPEAV12@@Z 0000000140092b20 f   libcpmtd:ios.obj
 0001:00091bf0       ?_Callfns@ios_base@std@@AEAAXW4event@12@@Z 0000000140092bf0 f i libcpmtd:ios.obj
 0001:00091c60       ?_Ios_base_dtor@ios_base@std@@CAXPEAV12@@Z 0000000140092c60 f   libcpmtd:ios.obj
 0001:00091d00       ?_Tidy@ios_base@std@@AEAAXXZ 0000000140092d00 f i libcpmtd:ios.obj
 0001:00091dc0       ??$_Xfiopen@D@std@@YAPEAU_iobuf@@PEBDHH@Z 0000000140092dc0 f i libcpmtd:fiopen.obj
 0001:00091f40       ??$_Xfiopen@_W@std@@YAPEAU_iobuf@@PEB_WHH@Z 0000000140092f40 f i libcpmtd:fiopen.obj
 0001:000920c0       ?_Fiopen@std@@YAPEAU_iobuf@@PEBDHH@Z 00000001400930c0 f   libcpmtd:fiopen.obj
 0001:000920f0       ?_Fiopen@std@@YAPEAU_iobuf@@PEBGHH@Z 00000001400930f0 f   libcpmtd:fiopen.obj
 0001:00092120       ?_Fiopen@std@@YAPEAU_iobuf@@PEB_WHH@Z 0000000140093120 f   libcpmtd:fiopen.obj
 0001:00092150       ?_Xfsopen@std@@YAPEAU_iobuf@@PEBDHH@Z 0000000140093150 f   libcpmtd:fiopen.obj
 0001:00092190       ?_Xfsopen@std@@YAPEAU_iobuf@@PEB_WHH@Z 0000000140093190 f   libcpmtd:fiopen.obj
 0001:00092220       _Mbrtowc                   0000000140093220 f   libcpmtd:xmbtowc.obj
 0001:000925e0       ??$?0U?$integral_constant@_N$00@std@@@_Unused_parameter@std@@QEAA@$$QEAU?$integral_constant@_N$00@1@@Z 00000001400935e0 f i libcpmtd:locale.obj
 0001:000925f0       ??$?8DU?$char_traits@D@std@@@std@@YA_NAEBV?$istreambuf_iterator@DU?$char_traits@D@std@@@0@0@Z 00000001400935f0 f i libcpmtd:locale.obj
 0001:00092620       ??$?9DU?$char_traits@D@std@@@std@@YA_NAEBV?$istreambuf_iterator@DU?$char_traits@D@std@@@0@0@Z 0000000140093620 f i libcpmtd:locale.obj
 0001:00092660       ??$_Adl_verify_range@V?$istreambuf_iterator@DU?$char_traits@D@std@@@std@@V12@@std@@YAXAEBV?$istreambuf_iterator@DU?$char_traits@D@std@@@0@0@Z 0000000140093660 f i libcpmtd:locale.obj
 0001:00092670       ??$_Find_elem@D$0BL@@std@@YA_KAEAY0BL@$$CBDD@Z 0000000140093670 f i libcpmtd:locale.obj
 0001:000926b0       ??$_Find_elem@D$0BN@@std@@YA_KAEAY0BN@$$CBDD@Z 00000001400936b0 f i libcpmtd:locale.obj
 0001:000926f0       ??$_Find_elem@D$0P@@std@@YA_KAEAY0P@$$CBDD@Z 00000001400936f0 f i libcpmtd:locale.obj
 0001:00092730       ??$_Find_unchecked1@PEBDD@std@@YAPEBDPEBDQEBDAEBDU?$integral_constant@_N$0A@@0@@Z 0000000140093730 f i libcpmtd:locale.obj
 0001:00092780       ??$_Getloctxt@DV?$istreambuf_iterator@DU?$char_traits@D@std@@@std@@@std@@YAHAEAV?$istreambuf_iterator@DU?$char_traits@D@std@@@0@0_KPEBD@Z 0000000140093780 f i libcpmtd:locale.obj
 0001:00092b30       ??$_Getvals@D@?$numpunct@D@std@@IEAAXDPEBUlconv@@U_Cvtvec@@@Z 0000000140093b30 f i libcpmtd:locale.obj
 0001:00092ba0       ??$_Reallocate_for@V<lambda_1>@?1??assign@?$basic_string@DU?$char_traits@D@std@@V?$allocator@D@2@@std@@QEAAAEAV34@_KD@Z@D@?$basic_string@DU?$char_traits@D@std@@V?$allocator@D@2@@std@@AEAAAEAV01@_KV<lambda_1>@?1??assign@01@QEAAAEAV01@0D@Z@D@Z 0000000140093ba0 f i libcpmtd:locale.obj
 0001:00092cc0       ??$_Reallocate_grow_by@V<lambda_1>@?1??append@?$basic_string@DU?$char_traits@D@std@@V?$allocator@D@2@@std@@QEAAAEAV34@_KD@Z@_KD@?$basic_string@DU?$char_traits@D@std@@V?$allocator@D@2@@std@@AEAAAEAV01@_KV<lambda_1>@?1??append@01@QEAAAEAV01@0D@Z@_KD@Z 0000000140093cc0 f i libcpmtd:locale.obj
 0001:00092ea0       ??$_Reallocate_grow_by@V<lambda_1>@?1??insert@?$basic_string@DU?$char_traits@D@std@@V?$allocator@D@2@@std@@QEAAAEAV34@_K0D@Z@_K_KD@?$basic_string@DU?$char_traits@D@std@@V?$allocator@D@2@@std@@AEAAAEAV01@_KV<lambda_1>@?1??insert@01@QEAAAEAV01@00D@Z@_K2D@Z 0000000140093ea0 f i libcpmtd:locale.obj
 0001:000930a0       ??$_Within_limits@D@std@@YA_NAEBDU?$integral_constant@_N$00@0@1U_Unused_parameter@0@@Z 00000001400940a0 f i libcpmtd:locale.obj
 0001:000930f0       ??$_Within_limits@PEBDD@std@@YA_NPEBDAEBD@Z 00000001400940f0 f i libcpmtd:locale.obj
 0001:00093190       ??$addressof@V?$basic_string@DU?$char_traits@D@std@@V?$allocator@D@2@@std@@@std@@YAPEAV?$basic_string@DU?$char_traits@D@std@@V?$allocator@D@2@@0@AEAV10@@Z 0000000140094190 f i libcpmtd:locale.obj
 0001:000931a0       ??$begin@$$CBD$0BL@@std@@YAPEBDAEAY0BL@$$CBD@Z 00000001400941a0 f i libcpmtd:locale.obj
 0001:000931b0       ??$begin@$$CBD$0BN@@std@@YAPEBDAEAY0BN@$$CBD@Z 00000001400941b0 f i libcpmtd:locale.obj
 0001:000931c0       ??$begin@$$CBD$0P@@std@@YAPEBDAEAY0P@$$CBD@Z 00000001400941c0 f i libcpmtd:locale.obj
 0001:000931d0       ??$end@$$CBD$0BL@@std@@YAPEBDAEAY0BL@$$CBD@Z 00000001400941d0 f i libcpmtd:locale.obj
 0001:000931e0       ??$end@$$CBD$0BN@@std@@YAPEBDAEAY0BN@$$CBD@Z 00000001400941e0 f i libcpmtd:locale.obj
 0001:000931f0       ??$end@$$CBD$0P@@std@@YAPEBDAEAY0P@$$CBD@Z 00000001400941f0 f i libcpmtd:locale.obj
 0001:00093200       ??$move@AEAV?$basic_string@DU?$char_traits@D@std@@V?$allocator@D@2@@std@@@std@@YA$$QEAV?$basic_string@DU?$char_traits@D@std@@V?$allocator@D@2@@0@AEAV10@@Z 0000000140094200 f i libcpmtd:locale.obj
 0001:00093210       ??$use_facet@V?$num_get@DV?$istreambuf_iterator@DU?$char_traits@D@std@@@std@@@std@@@std@@YAAEBV?$num_get@DV?$istreambuf_iterator@DU?$char_traits@D@std@@@std@@@0@AEBVlocale@0@@Z 0000000140094210 f i libcpmtd:locale.obj
 0001:00093330       ??0?$num_get@DV?$istreambuf_iterator@DU?$char_traits@D@std@@@std@@@std@@QEAA@AEBV_Locinfo@1@_K@Z 0000000140094330 f i libcpmtd:locale.obj
 0001:00093380       ??0?$num_put@DV?$ostreambuf_iterator@DU?$char_traits@D@std@@@std@@@std@@QEAA@AEBV_Locinfo@1@_K@Z 0000000140094380 f i libcpmtd:locale.obj
 0001:000933d0       ??0?$numpunct@D@std@@QEAA@AEBV_Locinfo@1@_K_N@Z 00000001400943d0 f i libcpmtd:locale.obj
 0001:00093430       ??1?$num_get@DV?$istreambuf_iterator@DU?$char_traits@D@std@@@std@@@std@@MEAA@XZ 0000000140094430 f i libcpmtd:locale.obj
 0001:00093460       ??1?$num_put@DV?$ostreambuf_iterator@DU?$char_traits@D@std@@@std@@@std@@MEAA@XZ 0000000140094460 f i libcpmtd:locale.obj
 0001:00093490       ??4?$basic_string@DU?$char_traits@D@std@@V?$allocator@D@2@@std@@QEAAAEAV01@$$QEAV01@@Z 0000000140094490 f i libcpmtd:locale.obj
 0001:000934f0       ??D?$istreambuf_iterator@DU?$char_traits@D@std@@@std@@QEBADXZ 00000001400944f0 f i libcpmtd:locale.obj
 0001:000935a0       ??D?$ostreambuf_iterator@DU?$char_traits@D@std@@@std@@QEAAAEAV01@XZ 00000001400945a0 f i libcpmtd:locale.obj
 0001:000935b0       ??E?$istreambuf_iterator@DU?$char_traits@D@std@@@std@@QEAAAEAV01@XZ 00000001400945b0 f i libcpmtd:locale.obj
 0001:00093650       ??E?$ostreambuf_iterator@DU?$char_traits@D@std@@@std@@QEAAAEAV01@XZ 0000000140094650 f i libcpmtd:locale.obj
 0001:00093660       ??R<lambda_1>@?1??append@?$basic_string@DU?$char_traits@D@std@@V?$allocator@D@2@@std@@QEAAAEAV23@_KD@Z@QEBAXQEADQEBD00D@Z 0000000140094660 f i libcpmtd:locale.obj
 0001:000936f0       ??R<lambda_1>@?1??assign@?$basic_string@DU?$char_traits@D@std@@V?$allocator@D@2@@std@@QEAAAEAV23@_KD@Z@QEBAXQEAD0D@Z 00000001400946f0 f i libcpmtd:locale.obj
 0001:00093750       ??R<lambda_1>@?1??insert@?$basic_string@DU?$char_traits@D@std@@V?$allocator@D@2@@std@@QEAAAEAV23@_K0D@Z@QEBAXQEADQEBD000D@Z 0000000140094750 f i libcpmtd:locale.obj
 0001:00093800       ??Y?$basic_string@DU?$char_traits@D@std@@V?$allocator@D@2@@std@@QEAAAEAV01@AEBV01@@Z 0000000140094800 f i libcpmtd:locale.obj
 0001:00093830       ??_G?$num_get@DV?$istreambuf_iterator@DU?$char_traits@D@std@@@std@@@std@@MEAAPEAXI@Z 0000000140094830 f i libcpmtd:locale.obj
 0001:00093830       ??_E?$num_get@DV?$istreambuf_iterator@DU?$char_traits@D@std@@@std@@@std@@MEAAPEAXI@Z 0000000140094830 f i libcpmtd:locale.obj
 0001:00093890       ?_Addfac@_Locimp@locale@std@@AEAAXPEAVfacet@23@_K@Z 0000000140094890 f i libcpmtd:locale.obj
 0001:000938c0       ?_Getcat@?$num_get@DV?$istreambuf_iterator@DU?$char_traits@D@std@@@std@@@std@@SA_KPEAPEBVfacet@locale@2@PEBV42@@Z 00000001400948c0 f i libcpmtd:locale.obj
 0001:000939c0       ?_Getcvt@_Locinfo@std@@QEBA?AU_Cvtvec@@XZ 00000001400949c0 f i libcpmtd:locale.obj
 0001:00093a40       ?_Getfalse@_Locinfo@std@@QEBAPEBDXZ 0000000140094a40 f i libcpmtd:locale.obj
 0001:00093a50       ?_Getffld@?$num_get@DV?$istreambuf_iterator@DU?$char_traits@D@std@@@std@@@std@@AEBAHPEADAEAV?$istreambuf_iterator@DU?$char_traits@D@std@@@2@1AEAVios_base@2@PEAH@Z 0000000140094a50 f i libcpmtd:locale.obj
 0001:00094620       ?_Getffldx@?$num_get@DV?$istreambuf_iterator@DU?$char_traits@D@std@@@std@@@std@@AEBAHPEADAEAV?$istreambuf_iterator@DU?$char_traits@D@std@@@2@1AEAVios_base@2@PEAH@Z 0000000140095620 f i libcpmtd:locale.obj
 0001:00095190       ?_Getifld@?$num_get@DV?$istreambuf_iterator@DU?$char_traits@D@std@@@std@@@std@@AEBAHPEADAEAV?$istreambuf_iterator@DU?$char_traits@D@std@@@2@1HAEBVlocale@2@@Z 0000000140096190 f i libcpmtd:locale.obj
 0001:00095830       ?_Getlconv@_Locinfo@std@@QEBAPEBUlconv@@XZ 0000000140096830 f i libcpmtd:locale.obj
 0001:00095850       ?_Getname@_Locinfo@std@@QEBAPEBDXZ 0000000140096850 f i libcpmtd:locale.obj
 0001:00095870       ?_Gettrue@_Locinfo@std@@QEBAPEBDXZ 0000000140096870 f i libcpmtd:locale.obj
 0001:00095880       ?_Inc@?$istreambuf_iterator@DU?$char_traits@D@std@@@std@@AEAAXXZ 0000000140096880 f i libcpmtd:locale.obj
 0001:000958f0       ?_Init@?$num_get@DV?$istreambuf_iterator@DU?$char_traits@D@std@@@std@@@std@@IEAAXAEBV_Locinfo@2@@Z 00000001400968f0 f i libcpmtd:locale.obj
 0001:00095900       ?_Init@?$num_put@DV?$ostreambuf_iterator@DU?$char_traits@D@std@@@std@@@std@@IEAAXAEBV_Locinfo@2@@Z 0000000140096900 f i libcpmtd:locale.obj
 0001:00095910       ?_Locimp_Addfac@_Locimp@locale@std@@CAXPEAV123@PEAVfacet@23@_K@Z 0000000140096910 f   libcpmtd:locale.obj
 0001:00095b30       ?_Locimp_ctor@_Locimp@locale@std@@CAXPEAV123@AEBV123@@Z 0000000140096b30 f   libcpmtd:locale.obj
 0001:00095c90       ?_Locinfo_Addcats@_Locinfo@std@@SAAEAV12@PEAV12@HPEBD@Z 0000000140096c90 f   libcpmtd:locale.obj
 0001:00095df0       ?_Locinfo_ctor@_Locinfo@std@@SAXPEAV12@HPEBD@Z 0000000140096df0 f   libcpmtd:locale.obj
 0001:00095e60       ?_Makeloc@_Locimp@locale@std@@CAPEAV123@AEBV_Locinfo@3@HPEAV123@PEBV23@@Z 0000000140096e60 f   libcpmtd:locale.obj
 0001:00096490       ?_Peek@?$istreambuf_iterator@DU?$char_traits@D@std@@@std@@AEBADXZ 0000000140097490 f i libcpmtd:locale.obj
 0001:00096510       ?_Stodx_v2@std@@YANPEBDPEAPEADHPEAH@Z 0000000140097510 f i libcpmtd:locale.obj
 0001:000965c0       ?_Stofx_v2@std@@YAMPEBDPEAPEADHPEAH@Z 00000001400975c0 f i libcpmtd:locale.obj
 0001:00096670       ?_Tidy@?$numpunct@D@std@@AEAAXXZ 0000000140097670 f i libcpmtd:locale.obj
 0001:000966b0       ?assign@?$_Char_traits@DH@std@@SAPEADQEAD_KD@Z 00000001400976b0 f i libcpmtd:locale.obj
 0001:00096710       ?assign@?$_Narrow_char_traits@DH@std@@SAPEADQEAD_KD@Z 0000000140097710 f i libcpmtd:locale.obj
 0001:00096770       ?assign@?$basic_string@DU?$char_traits@D@std@@V?$allocator@D@2@@std@@QEAAAEAV12@$$QEAV12@@Z 0000000140097770 f i libcpmtd:locale.obj
 0001:000967a0       ?decimal_point@?$numpunct@D@std@@QEBADXZ 00000001400977a0 f i libcpmtd:locale.obj
 0001:000967d0       ?do_get@?$num_get@DV?$istreambuf_iterator@DU?$char_traits@D@std@@@std@@@std@@MEBA?AV?$istreambuf_iterator@DU?$char_traits@D@std@@@2@V32@0AEAVios_base@2@AEAHAEAG@Z 00000001400977d0 f i libcpmtd:locale.obj
 0001:00096a30       ?do_get@?$num_get@DV?$istreambuf_iterator@DU?$char_traits@D@std@@@std@@@std@@MEBA?AV?$istreambuf_iterator@DU?$char_traits@D@std@@@2@V32@0AEAVios_base@2@AEAHAEAI@Z 0000000140097a30 f i libcpmtd:locale.obj
 0001:00096b10       ?do_get@?$num_get@DV?$istreambuf_iterator@DU?$char_traits@D@std@@@std@@@std@@MEBA?AV?$istreambuf_iterator@DU?$char_traits@D@std@@@2@V32@0AEAVios_base@2@AEAHAEAJ@Z 0000000140097b10 f i libcpmtd:locale.obj
 0001:00096ce0       ?do_get@?$num_get@DV?$istreambuf_iterator@DU?$char_traits@D@std@@@std@@@std@@MEBA?AV?$istreambuf_iterator@DU?$char_traits@D@std@@@2@V32@0AEAVios_base@2@AEAHAEAK@Z 0000000140097ce0 f i libcpmtd:locale.obj
 0001:00096eb0       ?do_get@?$num_get@DV?$istreambuf_iterator@DU?$char_traits@D@std@@@std@@@std@@MEBA?AV?$istreambuf_iterator@DU?$char_traits@D@std@@@2@V32@0AEAVios_base@2@AEAHAEAM@Z 0000000140097eb0 f i libcpmtd:locale.obj
 0001:00097070       ?do_get@?$num_get@DV?$istreambuf_iterator@DU?$char_traits@D@std@@@std@@@std@@MEBA?AV?$istreambuf_iterator@DU?$char_traits@D@std@@@2@V32@0AEAVios_base@2@AEAHAEAN@Z 0000000140098070 f i libcpmtd:locale.obj
 0001:00097230       ?do_get@?$num_get@DV?$istreambuf_iterator@DU?$char_traits@D@std@@@std@@@std@@MEBA?AV?$istreambuf_iterator@DU?$char_traits@D@std@@@2@V32@0AEAVios_base@2@AEAHAEAO@Z 0000000140098230 f i libcpmtd:locale.obj
 0001:00097310       ?do_get@?$num_get@DV?$istreambuf_iterator@DU?$char_traits@D@std@@@std@@@std@@MEBA?AV?$istreambuf_iterator@DU?$char_traits@D@std@@@2@V32@0AEAVios_base@2@AEAHAEAPEAX@Z 0000000140098310 f i libcpmtd:locale.obj
 0001:000974d0       ?do_get@?$num_get@DV?$istreambuf_iterator@DU?$char_traits@D@std@@@std@@@std@@MEBA?AV?$istreambuf_iterator@DU?$char_traits@D@std@@@2@V32@0AEAVios_base@2@AEAHAEA_J@Z 00000001400984d0 f i libcpmtd:locale.obj
 0001:000976a0       ?do_get@?$num_get@DV?$istreambuf_iterator@DU?$char_traits@D@std@@@std@@@std@@MEBA?AV?$istreambuf_iterator@DU?$char_traits@D@std@@@2@V32@0AEAVios_base@2@AEAHAEA_K@Z 00000001400986a0 f i libcpmtd:locale.obj
 0001:00097870       ?do_get@?$num_get@DV?$istreambuf_iterator@DU?$char_traits@D@std@@@std@@@std@@MEBA?AV?$istreambuf_iterator@DU?$char_traits@D@std@@@2@V32@0AEAVios_base@2@AEAHAEA_N@Z 0000000140098870 f i libcpmtd:locale.obj
 0001:00097c60       ?equal@?$istreambuf_iterator@DU?$char_traits@D@std@@@std@@QEBA_NAEBV12@@Z 0000000140098c60 f i libcpmtd:locale.obj
 0001:00097cf0       ?falsename@?$numpunct@D@std@@QEBA?AV?$basic_string@DU?$char_traits@D@std@@V?$allocator@D@2@@2@XZ 0000000140098cf0 f i libcpmtd:locale.obj
 0001:00097d50       ?flags@ios_base@std@@QEBAHXZ 0000000140098d50 f i libcpmtd:locale.obj
 0001:00097d60       ?global@locale@std@@SA?AV12@AEBV12@@Z 0000000140098d60 f   libcpmtd:locale.obj
 0001:00097f40       ?grouping@?$numpunct@D@std@@QEBA?AV?$basic_string@DU?$char_traits@D@std@@V?$allocator@D@2@@2@XZ 0000000140098f40 f i libcpmtd:locale.obj
 0001:00097fa0       ?precision@ios_base@std@@QEBA_JXZ 0000000140098fa0 f i libcpmtd:locale.obj
 0001:00097fb0       ?resize@?$basic_string@DU?$char_traits@D@std@@V?$allocator@D@2@@std@@QEAAX_KD@Z 0000000140098fb0 f i libcpmtd:locale.obj
 0001:00098020       ?thousands_sep@?$numpunct@D@std@@QEBADXZ 0000000140099020 f i libcpmtd:locale.obj
 0001:00098050       ?tolower@?$ctype@D@std@@QEBADD@Z 0000000140099050 f i libcpmtd:locale.obj
 0001:000980a0       ?truename@?$numpunct@D@std@@QEBA?AV?$basic_string@DU?$char_traits@D@std@@V?$allocator@D@2@@2@XZ 00000001400990a0 f i libcpmtd:locale.obj
 0001:00098100       ?widen@?$ctype@D@std@@QEBAPEBDPEBD0PEAD@Z 0000000140099100 f i libcpmtd:locale.obj
 0001:00098160       ?width@ios_base@std@@QEAA_J_J@Z 0000000140099160 f i libcpmtd:locale.obj
 0001:000981a0       ?width@ios_base@std@@QEBA_JXZ 00000001400991a0 f i libcpmtd:locale.obj
 0001:000981b0       _vsprintf_s_l              00000001400991b0 f i libcpmtd:locale.obj
 0001:00098220       fabsl                      0000000140099220 f i libcpmtd:locale.obj
 0001:00098240       frexpl                     0000000140099240 f i libcpmtd:locale.obj
 0001:00098270       ldexpf                     0000000140099270 f i libcpmtd:locale.obj
 0001:000982a0       _Mtxdst                    00000001400992a0 f   libcpmtd:xmtx.obj
 0001:000982c0       _Mtxinit                   00000001400992c0 f   libcpmtd:xmtx.obj
 0001:000982e0       _Mtxlock                   00000001400992e0 f   libcpmtd:xmtx.obj
 0001:00098300       _Mtxunlock                 0000000140099300 f   libcpmtd:xmtx.obj
 0001:00098340       __std_get_string_size_without_trailing_whitespace 0000000140099340 f   libcpmtd:syserror_import_lib.obj
 0001:000983a0       __std_system_error_allocate_message 00000001400993a0 f   libcpmtd:syserror_import_lib.obj
 0001:00098400       __std_system_error_deallocate_message 0000000140099400 f   libcpmtd:syserror_import_lib.obj
 0001:00098420       ??1_Init_atexit@@QEAA@XZ   0000000140099420 f i libcpmtd:iosptrs.obj
 0001:00098490       ?_Atexit@@YAXP6AXXZ@Z      0000000140099490 f   libcpmtd:iosptrs.obj
 0001:000984f0       ??0?$__crt_scoped_stack_ptr@_W@@QEAA@U?$__crt_scoped_stack_ptr_tag@_W@@@Z 00000001400994f0 f i libcpmtd:StlLCMapStringA.obj
 0001:00098510       ??0?$__crt_scoped_stack_ptr_tag@_W@@QEAA@QEA_W@Z 0000000140099510 f i libcpmtd:StlLCMapStringA.obj
 0001:00098530       ??1?$__crt_scoped_stack_ptr@_W@@QEAA@XZ 0000000140099530 f i libcpmtd:StlLCMapStringA.obj
 0001:00098550       ??B?$__crt_scoped_stack_ptr@_W@@QEBA_NXZ 0000000140099550 f i libcpmtd:StlLCMapStringA.obj
 0001:00098580       ?get@?$__crt_scoped_stack_ptr@_W@@QEBAPEA_WXZ 0000000140099580 f i libcpmtd:StlLCMapStringA.obj
 0001:00098590       _MallocaComputeSize        0000000140099590 f i libcpmtd:StlLCMapStringA.obj
 0001:000985d0       _MarkAllocaS               00000001400995d0 f i libcpmtd:StlLCMapStringA.obj
 0001:00098600       __crtLCMapStringA          0000000140099600 f   libcpmtd:StlLCMapStringA.obj
 0001:00098b00       _freea_crt                 0000000140099b00 f i libcpmtd:StlLCMapStringA.obj
 0001:00098ba0       ??$?0$$V@?$_Compressed_pair@V?$allocator@G@std@@V?$_String_val@U?$_Simple_types@G@std@@@2@$00@std@@QEAA@U_Zero_then_variadic_args_t@1@@Z 0000000140099ba0 f i libcpmtd:wlocale.obj
 0001:00098bd0       ??$?0$$V@?$_Compressed_pair@V?$allocator@_W@std@@V?$_String_val@U?$_Simple_types@_W@std@@@2@$00@std@@QEAA@U_Zero_then_variadic_args_t@1@@Z 0000000140099bd0 f i libcpmtd:wlocale.obj
 0001:00098c00       ??$?0G@?$allocator@U_Container_proxy@std@@@std@@QEAA@AEBV?$allocator@G@1@@Z 0000000140099c00 f i libcpmtd:wlocale.obj
 0001:00098c10       ??$?0V?$allocator@G@std@@$$V@?$_Compressed_pair@V?$allocator@G@std@@V?$_String_val@U?$_Simple_types@G@std@@@2@$00@std@@QEAA@U_One_then_variadic_args_t@1@$$QEAV?$allocator@G@1@@Z 0000000140099c10 f i libcpmtd:wlocale.obj
 0001:00098c50       ??$?0V?$allocator@_W@std@@$$V@?$_Compressed_pair@V?$allocator@_W@std@@V?$_String_val@U?$_Simple_types@_W@std@@@2@$00@std@@QEAA@U_One_then_variadic_args_t@1@$$QEAV?$allocator@_W@1@@Z 0000000140099c50 f i libcpmtd:wlocale.obj
 0001:00098c90       ??$?0_W@?$allocator@U_Container_proxy@std@@@std@@QEAA@AEBV?$allocator@_W@1@@Z 0000000140099c90 f i libcpmtd:wlocale.obj
 0001:00098ca0       ??$?8GU?$char_traits@G@std@@@std@@YA_NAEBV?$istreambuf_iterator@GU?$char_traits@G@std@@@0@0@Z 0000000140099ca0 f i libcpmtd:wlocale.obj
 0001:00098cd0       ??$?8_WU?$char_traits@_W@std@@@std@@YA_NAEBV?$istreambuf_iterator@_WU?$char_traits@_W@std@@@0@0@Z 0000000140099cd0 f i libcpmtd:wlocale.obj
 0001:00098d00       ??$?9GU?$char_traits@G@std@@@std@@YA_NAEBV?$istreambuf_iterator@GU?$char_traits@G@std@@@0@0@Z 0000000140099d00 f i libcpmtd:wlocale.obj
 0001:00098d40       ??$?9_WU?$char_traits@_W@std@@@std@@YA_NAEBV?$istreambuf_iterator@_WU?$char_traits@_W@std@@@0@0@Z 0000000140099d40 f i libcpmtd:wlocale.obj
 0001:00098d80       ??$_Adl_verify_range@PEADPEAD@std@@YAXAEBQEAD0@Z 0000000140099d80 f i libcpmtd:wlocale.obj
 0001:00098db0       ??$_Adl_verify_range@PEAGPEAG@std@@YAXAEBQEAG0@Z 0000000140099db0 f i libcpmtd:wlocale.obj
 0001:00098de0       ??$_Adl_verify_range@PEAGPEBG@std@@YAXAEBQEAGAEBQEBG@Z 0000000140099de0 f i libcpmtd:wlocale.obj
 0001:00098e10       ??$_Adl_verify_range@PEA_WPEA_W@std@@YAXAEBQEA_W0@Z 0000000140099e10 f i libcpmtd:wlocale.obj
 0001:00098e40       ??$_Adl_verify_range@PEA_WPEB_W@std@@YAXAEBQEA_WAEBQEB_W@Z 0000000140099e40 f i libcpmtd:wlocale.obj
 0001:00098e70       ??$_Adl_verify_range@PEBGPEBG@std@@YAXAEBQEBG0@Z 0000000140099e70 f i libcpmtd:wlocale.obj
 0001:00098ea0       ??$_Adl_verify_range@PEB_WPEB_W@std@@YAXAEBQEB_W0@Z 0000000140099ea0 f i libcpmtd:wlocale.obj
 0001:00098ed0       ??$_Adl_verify_range@V?$istreambuf_iterator@GU?$char_traits@G@std@@@std@@V12@@std@@YAXAEBV?$istreambuf_iterator@GU?$char_traits@G@std@@@0@0@Z 0000000140099ed0 f i libcpmtd:wlocale.obj
 0001:00098ee0       ??$_Adl_verify_range@V?$istreambuf_iterator@_WU?$char_traits@_W@std@@@std@@V12@@std@@YAXAEBV?$istreambuf_iterator@_WU?$char_traits@_W@std@@@0@0@Z 0000000140099ee0 f i libcpmtd:wlocale.obj
 0001:00098ef0       ??$_Construct_in_place@PEAGAEBQEAG@std@@YAXAEAPEAGAEBQEAG@Z 0000000140099ef0 f i libcpmtd:wlocale.obj
 0001:00098f40       ??$_Copy_unchecked@PEA_WV?$ostreambuf_iterator@GU?$char_traits@G@std@@@std@@@std@@YA?AV?$ostreambuf_iterator@GU?$char_traits@G@std@@@0@PEA_W0V10@@Z 0000000140099f40 f i libcpmtd:wlocale.obj
 0001:00098fd0       ??$_Copy_unchecked@PEA_WV?$ostreambuf_iterator@_WU?$char_traits@_W@std@@@std@@@std@@YA?AV?$ostreambuf_iterator@_WU?$char_traits@_W@std@@@0@PEA_W0V10@@Z 0000000140099fd0 f i libcpmtd:wlocale.obj
 0001:00099060       ??$_Destroy_in_place@PEAG@std@@YAXAEAPEAG@Z 000000014009a060 f i libcpmtd:wlocale.obj
 0001:00099070       ??$_Find_elem@G$0BL@@std@@YA_KAEAY0BL@$$CBGG@Z 000000014009a070 f i libcpmtd:wlocale.obj
 0001:000990b0       ??$_Find_elem@G$0BN@@std@@YA_KAEAY0BN@$$CBGG@Z 000000014009a0b0 f i libcpmtd:wlocale.obj
 0001:000990f0       ??$_Find_elem@G$0M@@std@@YA_KAEAY0M@$$CBGG@Z 000000014009a0f0 f i libcpmtd:wlocale.obj
 0001:00099130       ??$_Find_elem@G$0P@@std@@YA_KAEAY0P@$$CBGG@Z 000000014009a130 f i libcpmtd:wlocale.obj
 0001:00099170       ??$_Find_elem@_W$0BL@@std@@YA_KAEAY0BL@$$CB_W_W@Z 000000014009a170 f i libcpmtd:wlocale.obj
 0001:000991b0       ??$_Find_elem@_W$0BN@@std@@YA_KAEAY0BN@$$CB_W_W@Z 000000014009a1b0 f i libcpmtd:wlocale.obj
 0001:000991f0       ??$_Find_elem@_W$0M@@std@@YA_KAEAY0M@$$CB_W_W@Z 000000014009a1f0 f i libcpmtd:wlocale.obj
 0001:00099230       ??$_Find_elem@_W$0P@@std@@YA_KAEAY0P@$$CB_W_W@Z 000000014009a230 f i libcpmtd:wlocale.obj
 0001:00099270       ??$_Find_unchecked1@PEBGG@std@@YAPEBGPEBGQEBGAEBGU?$integral_constant@_N$0A@@0@@Z 000000014009a270 f i libcpmtd:wlocale.obj
 0001:000992c0       ??$_Find_unchecked1@PEB_W_W@std@@YAPEB_WPEB_WQEB_WAEB_WU?$integral_constant@_N$0A@@0@@Z 000000014009a2c0 f i libcpmtd:wlocale.obj
 0001:00099310       ??$_Find_unchecked@PEBGG@std@@YAPEBGQEBG0AEBG@Z 000000014009a310 f i libcpmtd:wlocale.obj
 0001:00099360       ??$_Find_unchecked@PEB_W_W@std@@YAPEB_WQEB_W0AEB_W@Z 000000014009a360 f i libcpmtd:wlocale.obj
 0001:000993b0       ??$_Get_size_of_n@$01@std@@YA_K_K@Z 000000014009a3b0 f i libcpmtd:wlocale.obj
 0001:000993f0       ??$_Get_unwrapped@AEAPEA_W@std@@YAPEA_WAEAPEA_W@Z 000000014009a3f0 f i libcpmtd:wlocale.obj
 0001:00099400       ??$_Get_unwrapped_n@AEAV?$ostreambuf_iterator@GU?$char_traits@G@std@@@std@@_J@std@@YAAEAV?$ostreambuf_iterator@GU?$char_traits@G@std@@@0@AEAV10@_J@Z 000000014009a400 f i libcpmtd:wlocale.obj
 0001:00099410       ??$_Get_unwrapped_n@AEAV?$ostreambuf_iterator@_WU?$char_traits@_W@std@@@std@@_J@std@@YAAEAV?$ostreambuf_iterator@_WU?$char_traits@_W@std@@@0@AEAV10@_J@Z 000000014009a410 f i libcpmtd:wlocale.obj
 0001:00099420       ??$_Getloctxt@DV?$istreambuf_iterator@GU?$char_traits@G@std@@@std@@@std@@YAHAEAV?$istreambuf_iterator@GU?$char_traits@G@std@@@0@0_KPEBD@Z 000000014009a420 f i libcpmtd:wlocale.obj
 0001:000997d0       ??$_Getloctxt@DV?$istreambuf_iterator@_WU?$char_traits@_W@std@@@std@@@std@@YAHAEAV?$istreambuf_iterator@_WU?$char_traits@_W@std@@@0@0_KPEBD@Z 000000014009a7d0 f i libcpmtd:wlocale.obj
 0001:00099b80       ??$_Getloctxt@GV?$istreambuf_iterator@GU?$char_traits@G@std@@@std@@@std@@YAHAEAV?$istreambuf_iterator@GU?$char_traits@G@std@@@0@0_KPEBG@Z 000000014009ab80 f i libcpmtd:wlocale.obj
 0001:00099f10       ??$_Getloctxt@_WV?$istreambuf_iterator@_WU?$char_traits@_W@std@@@std@@@std@@YAHAEAV?$istreambuf_iterator@_WU?$char_traits@_W@std@@@0@0_KPEB_W@Z 000000014009af10 f i libcpmtd:wlocale.obj
 0001:0009a2a0       ??$_Getvals@G@?$_Mpunct@G@std@@IEAAXGPEBUlconv@@@Z 000000014009b2a0 f i libcpmtd:wlocale.obj
 0001:0009a440       ??$_Getvals@G@?$numpunct@G@std@@IEAAXGPEBUlconv@@U_Cvtvec@@@Z 000000014009b440 f i libcpmtd:wlocale.obj
 0001:0009a4c0       ??$_Getvals@G@?$time_get@GV?$istreambuf_iterator@GU?$char_traits@G@std@@@std@@@std@@IEAAXGAEBV_Locinfo@1@@Z 000000014009b4c0 f i libcpmtd:wlocale.obj
 0001:0009a630       ??$_Getvals@_W@?$time_get@_WV?$istreambuf_iterator@_WU?$char_traits@_W@std@@@std@@@std@@IEAAX_WAEBV_Locinfo@1@@Z 000000014009b630 f i libcpmtd:wlocale.obj
 0001:0009a7a0       ??$_Hash_array_representation@G@std@@YA_KQEBG_K@Z 000000014009b7a0 f i libcpmtd:wlocale.obj
 0001:0009a7e0       ??$_Hash_array_representation@_W@std@@YA_KQEB_W_K@Z 000000014009b7e0 f i libcpmtd:wlocale.obj
 0001:0009a820       ??$_Idl_distance@PEA_WPEA_W@std@@YA_JAEBQEA_W0@Z 000000014009b820 f i libcpmtd:wlocale.obj
 0001:0009a850       ??$_LStrcoll@G@std@@YAHPEBG000PEBU_Collvec@@@Z 000000014009b850 f i libcpmtd:wlocale.obj
 0001:0009a920       ??$_LStrcoll@_W@std@@YAHPEB_W000PEBU_Collvec@@@Z 000000014009b920 f i libcpmtd:wlocale.obj
 0001:0009a960       ??$_LStrxfrm@G@std@@YA_KPEAG0PEBG1PEBU_Collvec@@@Z 000000014009b960 f i libcpmtd:wlocale.obj
 0001:0009a9d0       ??$_LStrxfrm@_W@std@@YA_KPEA_W0PEB_W1PEBU_Collvec@@@Z 000000014009b9d0 f i libcpmtd:wlocale.obj
 0001:0009aa10       ??$_Maklocchr@G@std@@YAGDPEAGAEBU_Cvtvec@@@Z 000000014009ba10 f i libcpmtd:wlocale.obj
 0001:0009aa70       ??$_Maklocchr@_W@std@@YA_WDPEA_WAEBU_Cvtvec@@@Z 000000014009ba70 f i libcpmtd:wlocale.obj
 0001:0009aad0       ??$_Maklocstr@G@std@@YAPEAGPEBDPEAGAEBU_Cvtvec@@@Z 000000014009bad0 f i libcpmtd:wlocale.obj
 0001:0009acb0       ??$_Maklocstr@_W@std@@YAPEA_WPEBDPEA_WAEBU_Cvtvec@@@Z 000000014009bcb0 f i libcpmtd:wlocale.obj
 0001:0009ae90       ??$_Pocma@V?$allocator@G@std@@@std@@YAXAEAV?$allocator@G@0@0@Z 000000014009be90 f i libcpmtd:wlocale.obj
 0001:0009aeb0       ??$_Reallocate_for@V<lambda_1>@?1??assign@?$basic_string@GU?$char_traits@G@std@@V?$allocator@G@2@@std@@QEAAAEAV34@QEBG_K@Z@PEBG@?$basic_string@GU?$char_traits@G@std@@V?$allocator@G@2@@std@@AEAAAEAV01@_KV<lambda_1>@?1??assign@01@QEAAAEAV01@QEBG0@Z@PEBG@Z 000000014009beb0 f i libcpmtd:wlocale.obj
 0001:0009afd0       ??$_Reallocate_for@V<lambda_1>@?1??assign@?$basic_string@GU?$char_traits@G@std@@V?$allocator@G@2@@std@@QEAAAEAV34@_KG@Z@G@?$basic_string@GU?$char_traits@G@std@@V?$allocator@G@2@@std@@AEAAAEAV01@_KV<lambda_1>@?1??assign@01@QEAAAEAV01@0G@Z@G@Z 000000014009bfd0 f i libcpmtd:wlocale.obj
 0001:0009b0f0       ??$_Reallocate_for@V<lambda_1>@?1??assign@?$basic_string@_WU?$char_traits@_W@std@@V?$allocator@_W@2@@std@@QEAAAEAV34@QEB_W_K@Z@PEB_W@?$basic_string@_WU?$char_traits@_W@std@@V?$allocator@_W@2@@std@@AEAAAEAV01@_KV<lambda_1>@?1??assign@01@QEAAAEAV01@QEB_W0@Z@PEB_W@Z 000000014009c0f0 f i libcpmtd:wlocale.obj
 0001:0009b210       ??$_Reallocate_for@V<lambda_1>@?1??assign@?$basic_string@_WU?$char_traits@_W@std@@V?$allocator@_W@2@@std@@QEAAAEAV34@_K_W@Z@_W@?$basic_string@_WU?$char_traits@_W@std@@V?$allocator@_W@2@@std@@AEAAAEAV01@_KV<lambda_1>@?1??assign@01@QEAAAEAV01@0_W@Z@_W@Z 000000014009c210 f i libcpmtd:wlocale.obj
 0001:0009b330       ??$_Reallocate_grow_by@V<lambda_1>@?1??append@?$basic_string@GU?$char_traits@G@std@@V?$allocator@G@2@@std@@QEAAAEAV34@QEBG_K@Z@PEBG_K@?$basic_string@GU?$char_traits@G@std@@V?$allocator@G@2@@std@@AEAAAEAV01@_KV<lambda_1>@?1??append@01@QEAAAEAV01@QEBG0@Z@PEBG_K@Z 000000014009c330 f i libcpmtd:wlocale.obj
 0001:0009b510       ??$_Reallocate_grow_by@V<lambda_1>@?1??append@?$basic_string@GU?$char_traits@G@std@@V?$allocator@G@2@@std@@QEAAAEAV34@_KG@Z@_KG@?$basic_string@GU?$char_traits@G@std@@V?$allocator@G@2@@std@@AEAAAEAV01@_KV<lambda_1>@?1??append@01@QEAAAEAV01@0G@Z@_KG@Z 000000014009c510 f i libcpmtd:wlocale.obj
 0001:0009b6f0       ??$_Reallocate_grow_by@V<lambda_1>@?1??append@?$basic_string@_WU?$char_traits@_W@std@@V?$allocator@_W@2@@std@@QEAAAEAV34@QEB_W_K@Z@PEB_W_K@?$basic_string@_WU?$char_traits@_W@std@@V?$allocator@_W@2@@std@@AEAAAEAV01@_KV<lambda_1>@?1??append@01@QEAAAEAV01@QEB_W0@Z@PEB_W_K@Z 000000014009c6f0 f i libcpmtd:wlocale.obj
 0001:0009b8d0       ??$_Reallocate_grow_by@V<lambda_1>@?1??append@?$basic_string@_WU?$char_traits@_W@std@@V?$allocator@_W@2@@std@@QEAAAEAV34@_K_W@Z@_K_W@?$basic_string@_WU?$char_traits@_W@std@@V?$allocator@_W@2@@std@@AEAAAEAV01@_KV<lambda_1>@?1??append@01@QEAAAEAV01@0_W@Z@_K_W@Z 000000014009c8d0 f i libcpmtd:wlocale.obj
 0001:0009bab0       ??$_Reallocate_grow_by@V<lambda_1>@?1??insert@?$basic_string@GU?$char_traits@G@std@@V?$allocator@G@2@@std@@QEAAAEAV34@_K0G@Z@_K_KG@?$basic_string@GU?$char_traits@G@std@@V?$allocator@G@2@@std@@AEAAAEAV01@_KV<lambda_1>@?1??insert@01@QEAAAEAV01@00G@Z@_K2G@Z 000000014009cab0 f i libcpmtd:wlocale.obj
 0001:0009bcb0       ??$_Reallocate_grow_by@V<lambda_1>@?1??insert@?$basic_string@_WU?$char_traits@_W@std@@V?$allocator@_W@2@@std@@QEAAAEAV34@_K0_W@Z@_K_K_W@?$basic_string@_WU?$char_traits@_W@std@@V?$allocator@_W@2@@std@@AEAAAEAV01@_KV<lambda_1>@?1??insert@01@QEAAAEAV01@00_W@Z@_K3_W@Z 000000014009ccb0 f i libcpmtd:wlocale.obj
 0001:0009beb0       ??$_Reallocate_grow_by@V<lambda_1>@?1??push_back@?$basic_string@GU?$char_traits@G@std@@V?$allocator@G@2@@std@@QEAAXG@Z@G@?$basic_string@GU?$char_traits@G@std@@V?$allocator@G@2@@std@@AEAAAEAV01@_KV<lambda_1>@?1??push_back@01@QEAAXG@Z@G@Z 000000014009ceb0 f i libcpmtd:wlocale.obj
 0001:0009c070       ??$_Reallocate_grow_by@V<lambda_1>@?1??push_back@?$basic_string@_WU?$char_traits@_W@std@@V?$allocator@_W@2@@std@@QEAAX_W@Z@_W@?$basic_string@_WU?$char_traits@_W@std@@V?$allocator@_W@2@@std@@AEAAAEAV01@_KV<lambda_1>@?1??push_back@01@QEAAX_W@Z@_W@Z 000000014009d070 f i libcpmtd:wlocale.obj
 0001:0009c230       ??$_Refancy@PEAG$0A@@std@@YAPEAGPEAG@Z 000000014009d230 f i libcpmtd:wlocale.obj
 0001:0009c240       ??$_Seek_wrapped@V?$ostreambuf_iterator@GU?$char_traits@G@std@@@std@@V12@@std@@YAXAEAV?$ostreambuf_iterator@GU?$char_traits@G@std@@@0@$$QEAV10@@Z 000000014009d240 f i libcpmtd:wlocale.obj
 0001:0009c260       ??$_Seek_wrapped@V?$ostreambuf_iterator@_WU?$char_traits@_W@std@@@std@@V12@@std@@YAXAEAV?$ostreambuf_iterator@_WU?$char_traits@_W@std@@@0@$$QEAV10@@Z 000000014009d260 f i libcpmtd:wlocale.obj
 0001:0009c280       ??$_Unfancy@$$CBG@std@@YAPEBGPEBG@Z 000000014009d280 f i libcpmtd:wlocale.obj
 0001:0009c290       ??$_Unfancy@$$CB_W@std@@YAPEB_WPEB_W@Z 000000014009d290 f i libcpmtd:wlocale.obj
 0001:0009c2a0       ??$_Unfancy@G@std@@YAPEAGPEAG@Z 000000014009d2a0 f i libcpmtd:wlocale.obj
 0001:0009c2b0       ??$_Unfancy@_W@std@@YAPEA_WPEA_W@Z 000000014009d2b0 f i libcpmtd:wlocale.obj
 0001:0009c2c0       ??$_Verify_range@G@std@@YAXQEBG0@Z 000000014009d2c0 f i libcpmtd:wlocale.obj
 0001:0009c350       ??$addressof@$$CBV?$_String_val@U?$_Simple_types@G@std@@@std@@@std@@YAPEBV?$_String_val@U?$_Simple_types@G@std@@@0@AEBV10@@Z 000000014009d350 f i libcpmtd:wlocale.obj
 0001:0009c360       ??$addressof@$$CBV?$_String_val@U?$_Simple_types@_W@std@@@std@@@std@@YAPEBV?$_String_val@U?$_Simple_types@_W@std@@@0@AEBV10@@Z 000000014009d360 f i libcpmtd:wlocale.obj
 0001:0009c370       ??$addressof@$$CBV?$moneypunct@G$00@std@@@std@@YAPEBV?$moneypunct@G$00@0@AEBV10@@Z 000000014009d370 f i libcpmtd:wlocale.obj
 0001:0009c380       ??$addressof@$$CBV?$moneypunct@G$0A@@std@@@std@@YAPEBV?$moneypunct@G$0A@@0@AEBV10@@Z 000000014009d380 f i libcpmtd:wlocale.obj
 0001:0009c390       ??$addressof@$$CBV?$moneypunct@_W$00@std@@@std@@YAPEBV?$moneypunct@_W$00@0@AEBV10@@Z 000000014009d390 f i libcpmtd:wlocale.obj
 0001:0009c3a0       ??$addressof@$$CBV?$moneypunct@_W$0A@@std@@@std@@YAPEBV?$moneypunct@_W$0A@@0@AEBV10@@Z 000000014009d3a0 f i libcpmtd:wlocale.obj
 0001:0009c3b0       ??$addressof@PEAG@std@@YAPEAPEAGAEAPEAG@Z 000000014009d3b0 f i libcpmtd:wlocale.obj
 0001:0009c3c0       ??$addressof@PEA_W@std@@YAPEAPEA_WAEAPEA_W@Z 000000014009d3c0 f i libcpmtd:wlocale.obj
 0001:0009c3d0       ??$addressof@V?$_String_val@U?$_Simple_types@G@std@@@std@@@std@@YAPEAV?$_String_val@U?$_Simple_types@G@std@@@0@AEAV10@@Z 000000014009d3d0 f i libcpmtd:wlocale.obj
 0001:0009c3e0       ??$addressof@V?$_String_val@U?$_Simple_types@_W@std@@@std@@@std@@YAPEAV?$_String_val@U?$_Simple_types@_W@std@@@0@AEAV10@@Z 000000014009d3e0 f i libcpmtd:wlocale.obj
 0001:0009c3f0       ??$addressof@V?$basic_string@GU?$char_traits@G@std@@V?$allocator@G@2@@std@@@std@@YAPEAV?$basic_string@GU?$char_traits@G@std@@V?$allocator@G@2@@0@AEAV10@@Z 000000014009d3f0 f i libcpmtd:wlocale.obj
 0001:0009c400       ??$addressof@V?$basic_string@_WU?$char_traits@_W@std@@V?$allocator@_W@2@@std@@@std@@YAPEAV?$basic_string@_WU?$char_traits@_W@std@@V?$allocator@_W@2@@0@AEAV10@@Z 000000014009d400 f i libcpmtd:wlocale.obj
 0001:0009c410       ??$begin@$$CBD$0M@@std@@YAPEBDAEAY0M@$$CBD@Z 000000014009d410 f i libcpmtd:wlocale.obj
 0001:0009c420       ??$copy@PEA_WV?$ostreambuf_iterator@GU?$char_traits@G@std@@@std@@@std@@YA?AV?$ostreambuf_iterator@GU?$char_traits@G@std@@@0@PEA_W0V10@@Z 000000014009d420 f i libcpmtd:wlocale.obj
 0001:0009c540       ??$copy@PEA_WV?$ostreambuf_iterator@_WU?$char_traits@_W@std@@@std@@@std@@YA?AV?$ostreambuf_iterator@_WU?$char_traits@_W@std@@@0@PEA_W0V10@@Z 000000014009d540 f i libcpmtd:wlocale.obj
 0001:0009c660       ??$end@$$CBD$0M@@std@@YAPEBDAEAY0M@$$CBD@Z 000000014009d660 f i libcpmtd:wlocale.obj
 0001:0009c670       ??$forward@AEBQEAG@std@@YAAEBQEAGAEBQEAG@Z 000000014009d670 f i libcpmtd:wlocale.obj
 0001:0009c680       ??$forward@AEBQEA_W@std@@YAAEBQEA_WAEBQEA_W@Z 000000014009d680 f i libcpmtd:wlocale.obj
 0001:0009c690       ??$forward@V?$allocator@G@std@@@std@@YA$$QEAV?$allocator@G@0@AEAV10@@Z 000000014009d690 f i libcpmtd:wlocale.obj
 0001:0009c6a0       ??$forward@V?$allocator@_W@std@@@std@@YA$$QEAV?$allocator@_W@0@AEAV10@@Z 000000014009d6a0 f i libcpmtd:wlocale.obj
 0001:0009c6b0       ??$move@AEAV?$allocator@G@std@@@std@@YA$$QEAV?$allocator@G@0@AEAV10@@Z 000000014009d6b0 f i libcpmtd:wlocale.obj
 0001:0009c6c0       ??$move@AEAV?$allocator@_W@std@@@std@@YA$$QEAV?$allocator@_W@0@AEAV10@@Z 000000014009d6c0 f i libcpmtd:wlocale.obj
 0001:0009c6d0       ??$move@AEAV?$basic_string@GU?$char_traits@G@std@@V?$allocator@G@2@@std@@@std@@YA$$QEAV?$basic_string@GU?$char_traits@G@std@@V?$allocator@G@2@@0@AEAV10@@Z 000000014009d6d0 f i libcpmtd:wlocale.obj
 0001:0009c6e0       ??$move@AEAV?$basic_string@_WU?$char_traits@_W@std@@V?$allocator@_W@2@@std@@@std@@YA$$QEAV?$basic_string@_WU?$char_traits@_W@std@@V?$allocator@_W@2@@0@AEAV10@@Z 000000014009d6e0 f i libcpmtd:wlocale.obj
 0001:0009c6f0       ??$use_facet@V?$codecvt@GDU_Mbstatet@@@std@@@std@@YAAEBV?$codecvt@GDU_Mbstatet@@@0@AEBVlocale@0@@Z 000000014009d6f0 f i libcpmtd:wlocale.obj
 0001:0009c810       ??$use_facet@V?$codecvt@_WDU_Mbstatet@@@std@@@std@@YAAEBV?$codecvt@_WDU_Mbstatet@@@0@AEBVlocale@0@@Z 000000014009d810 f i libcpmtd:wlocale.obj
 0001:0009c930       ??$use_facet@V?$collate@G@std@@@std@@YAAEBV?$collate@G@0@AEBVlocale@0@@Z 000000014009d930 f i libcpmtd:wlocale.obj
 0001:0009ca50       ??$use_facet@V?$collate@_W@std@@@std@@YAAEBV?$collate@_W@0@AEBVlocale@0@@Z 000000014009da50 f i libcpmtd:wlocale.obj
 0001:0009cb70       ??$use_facet@V?$ctype@G@std@@@std@@YAAEBV?$ctype@G@0@AEBVlocale@0@@Z 000000014009db70 f i libcpmtd:wlocale.obj
 0001:0009cc90       ??$use_facet@V?$ctype@_W@std@@@std@@YAAEBV?$ctype@_W@0@AEBVlocale@0@@Z 000000014009dc90 f i libcpmtd:wlocale.obj
 0001:0009cdb0       ??$use_facet@V?$messages@G@std@@@std@@YAAEBV?$messages@G@0@AEBVlocale@0@@Z 000000014009ddb0 f i libcpmtd:wlocale.obj
 0001:0009ced0       ??$use_facet@V?$messages@_W@std@@@std@@YAAEBV?$messages@_W@0@AEBVlocale@0@@Z 000000014009ded0 f i libcpmtd:wlocale.obj
 0001:0009cff0       ??$use_facet@V?$money_get@GV?$istreambuf_iterator@GU?$char_traits@G@std@@@std@@@std@@@std@@YAAEBV?$money_get@GV?$istreambuf_iterator@GU?$char_traits@G@std@@@std@@@0@AEBVlocale@0@@Z 000000014009dff0 f i libcpmtd:wlocale.obj
 0001:0009d110       ??$use_facet@V?$money_get@_WV?$istreambuf_iterator@_WU?$char_traits@_W@std@@@std@@@std@@@std@@YAAEBV?$money_get@_WV?$istreambuf_iterator@_WU?$char_traits@_W@std@@@std@@@0@AEBVlocale@0@@Z 000000014009e110 f i libcpmtd:wlocale.obj
 0001:0009d230       ??$use_facet@V?$money_put@GV?$ostreambuf_iterator@GU?$char_traits@G@std@@@std@@@std@@@std@@YAAEBV?$money_put@GV?$ostreambuf_iterator@GU?$char_traits@G@std@@@std@@@0@AEBVlocale@0@@Z 000000014009e230 f i libcpmtd:wlocale.obj
 0001:0009d350       ??$use_facet@V?$money_put@_WV?$ostreambuf_iterator@_WU?$char_traits@_W@std@@@std@@@std@@@std@@YAAEBV?$money_put@_WV?$ostreambuf_iterator@_WU?$char_traits@_W@std@@@std@@@0@AEBVlocale@0@@Z 000000014009e350 f i libcpmtd:wlocale.obj
 0001:0009d470       ??$use_facet@V?$moneypunct@G$00@std@@@std@@YAAEBV?$moneypunct@G$00@0@AEBVlocale@0@@Z 000000014009e470 f i libcpmtd:wlocale.obj
 0001:0009d590       ??$use_facet@V?$moneypunct@G$0A@@std@@@std@@YAAEBV?$moneypunct@G$0A@@0@AEBVlocale@0@@Z 000000014009e590 f i libcpmtd:wlocale.obj
 0001:0009d6b0       ??$use_facet@V?$moneypunct@_W$00@std@@@std@@YAAEBV?$moneypunct@_W$00@0@AEBVlocale@0@@Z 000000014009e6b0 f i libcpmtd:wlocale.obj
 0001:0009d7d0       ??$use_facet@V?$moneypunct@_W$0A@@std@@@std@@YAAEBV?$moneypunct@_W$0A@@0@AEBVlocale@0@@Z 000000014009e7d0 f i libcpmtd:wlocale.obj
 0001:0009d8f0       ??$use_facet@V?$num_get@GV?$istreambuf_iterator@GU?$char_traits@G@std@@@std@@@std@@@std@@YAAEBV?$num_get@GV?$istreambuf_iterator@GU?$char_traits@G@std@@@std@@@0@AEBVlocale@0@@Z 000000014009e8f0 f i libcpmtd:wlocale.obj
 0001:0009da10       ??$use_facet@V?$num_get@_WV?$istreambuf_iterator@_WU?$char_traits@_W@std@@@std@@@std@@@std@@YAAEBV?$num_get@_WV?$istreambuf_iterator@_WU?$char_traits@_W@std@@@std@@@0@AEBVlocale@0@@Z 000000014009ea10 f i libcpmtd:wlocale.obj
 0001:0009db30       ??$use_facet@V?$num_put@GV?$ostreambuf_iterator@GU?$char_traits@G@std@@@std@@@std@@@std@@YAAEBV?$num_put@GV?$ostreambuf_iterator@GU?$char_traits@G@std@@@std@@@0@AEBVlocale@0@@Z 000000014009eb30 f i libcpmtd:wlocale.obj
 0001:0009dc50       ??$use_facet@V?$num_put@_WV?$ostreambuf_iterator@_WU?$char_traits@_W@std@@@std@@@std@@@std@@YAAEBV?$num_put@_WV?$ostreambuf_iterator@_WU?$char_traits@_W@std@@@std@@@0@AEBVlocale@0@@Z 000000014009ec50 f i libcpmtd:wlocale.obj
 0001:0009dd70       ??$use_facet@V?$numpunct@G@std@@@std@@YAAEBV?$numpunct@G@0@AEBVlocale@0@@Z 000000014009ed70 f i libcpmtd:wlocale.obj
 0001:0009de90       ??$use_facet@V?$numpunct@_W@std@@@std@@YAAEBV?$numpunct@_W@0@AEBVlocale@0@@Z 000000014009ee90 f i libcpmtd:wlocale.obj
 0001:0009dfb0       ??$use_facet@V?$time_get@GV?$istreambuf_iterator@GU?$char_traits@G@std@@@std@@@std@@@std@@YAAEBV?$time_get@GV?$istreambuf_iterator@GU?$char_traits@G@std@@@std@@@0@AEBVlocale@0@@Z 000000014009efb0 f i libcpmtd:wlocale.obj
 0001:0009e0d0       ??$use_facet@V?$time_get@_WV?$istreambuf_iterator@_WU?$char_traits@_W@std@@@std@@@std@@@std@@YAAEBV?$time_get@_WV?$istreambuf_iterator@_WU?$char_traits@_W@std@@@std@@@0@AEBVlocale@0@@Z 000000014009f0d0 f i libcpmtd:wlocale.obj
 0001:0009e1f0       ??$use_facet@V?$time_put@GV?$ostreambuf_iterator@GU?$char_traits@G@std@@@std@@@std@@@std@@YAAEBV?$time_put@GV?$ostreambuf_iterator@GU?$char_traits@G@std@@@std@@@0@AEBVlocale@0@@Z 000000014009f1f0 f i libcpmtd:wlocale.obj
 0001:0009e310       ??$use_facet@V?$time_put@_WV?$ostreambuf_iterator@_WU?$char_traits@_W@std@@@std@@@std@@@std@@YAAEBV?$time_put@_WV?$ostreambuf_iterator@_WU?$char_traits@_W@std@@@std@@@0@AEBVlocale@0@@Z 000000014009f310 f i libcpmtd:wlocale.obj
 0001:0009e430       ??0?$_Mpunct@G@std@@QEAA@AEBV_Locinfo@1@_K_N2@Z 000000014009f430 f i libcpmtd:wlocale.obj
 0001:0009e4a0       ??0?$_Mpunct@_W@std@@QEAA@AEBV_Locinfo@1@_K_N2@Z 000000014009f4a0 f i libcpmtd:wlocale.obj
 0001:0009e510       ??0?$_String_const_iterator@V?$_String_val@U?$_Simple_types@G@std@@@std@@@std@@QEAA@$$QEAV01@@Z 000000014009f510 f i libcpmtd:wlocale.obj
 0001:0009e550       ??0?$_String_const_iterator@V?$_String_val@U?$_Simple_types@G@std@@@std@@@std@@QEAA@AEBV01@@Z 000000014009f550 f i libcpmtd:wlocale.obj
 0001:0009e590       ??0?$_String_const_iterator@V?$_String_val@U?$_Simple_types@G@std@@@std@@@std@@QEAA@PEBGPEBU_Container_base12@1@@Z 000000014009f590 f i libcpmtd:wlocale.obj
 0001:0009e5e0       ??0?$_String_const_iterator@V?$_String_val@U?$_Simple_types@G@std@@@std@@@std@@QEAA@XZ 000000014009f5e0 f i libcpmtd:wlocale.obj
 0001:0009e610       ??0?$_String_const_iterator@V?$_String_val@U?$_Simple_types@_W@std@@@std@@@std@@QEAA@$$QEAV01@@Z 000000014009f610 f i libcpmtd:wlocale.obj
 0001:0009e650       ??0?$_String_const_iterator@V?$_String_val@U?$_Simple_types@_W@std@@@std@@@std@@QEAA@AEBV01@@Z 000000014009f650 f i libcpmtd:wlocale.obj
 0001:0009e690       ??0?$_String_const_iterator@V?$_String_val@U?$_Simple_types@_W@std@@@std@@@std@@QEAA@PEB_WPEBU_Container_base12@1@@Z 000000014009f690 f i libcpmtd:wlocale.obj
 0001:0009e6e0       ??0?$_String_const_iterator@V?$_String_val@U?$_Simple_types@_W@std@@@std@@@std@@QEAA@XZ 000000014009f6e0 f i libcpmtd:wlocale.obj
 0001:0009e710       ??0?$_String_iterator@V?$_String_val@U?$_Simple_types@G@std@@@std@@@std@@QEAA@AEBV01@@Z 000000014009f710 f i libcpmtd:wlocale.obj
 0001:0009e740       ??0?$_String_iterator@V?$_String_val@U?$_Simple_types@G@std@@@std@@@std@@QEAA@PEBGPEBU_Container_base12@1@@Z 000000014009f740 f i libcpmtd:wlocale.obj
 0001:0009e780       ??0?$_String_iterator@V?$_String_val@U?$_Simple_types@_W@std@@@std@@@std@@QEAA@AEBV01@@Z 000000014009f780 f i libcpmtd:wlocale.obj
 0001:0009e7b0       ??0?$_String_iterator@V?$_String_val@U?$_Simple_types@_W@std@@@std@@@std@@QEAA@PEB_WPEBU_Container_base12@1@@Z 000000014009f7b0 f i libcpmtd:wlocale.obj
 0001:0009e7f0       ??0?$_String_val@U?$_Simple_types@G@std@@@std@@QEAA@XZ 000000014009f7f0 f i libcpmtd:wlocale.obj
 0001:0009e840       ??0?$_String_val@U?$_Simple_types@_W@std@@@std@@QEAA@XZ 000000014009f840 f i libcpmtd:wlocale.obj
 0001:0009e890       ??0?$allocator@G@std@@QEAA@XZ 000000014009f890 f i libcpmtd:wlocale.obj
 0001:0009e8a0       ??0?$allocator@_W@std@@QEAA@XZ 000000014009f8a0 f i libcpmtd:wlocale.obj
 0001:0009e8b0       ??0?$basic_string@GU?$char_traits@G@std@@V?$allocator@G@2@@std@@QEAA@$$QEAV01@@Z 000000014009f8b0 f i libcpmtd:wlocale.obj
 0001:0009e960       ??0?$basic_string@GU?$char_traits@G@std@@V?$allocator@G@2@@std@@QEAA@AEBV01@@Z 000000014009f960 f i libcpmtd:wlocale.obj
 0001:0009ea20       ??0?$basic_string@GU?$char_traits@G@std@@V?$allocator@G@2@@std@@QEAA@QEBG@Z 000000014009fa20 f i libcpmtd:wlocale.obj
 0001:0009eac0       ??0?$basic_string@GU?$char_traits@G@std@@V?$allocator@G@2@@std@@QEAA@QEBG_K@Z 000000014009fac0 f i libcpmtd:wlocale.obj
 0001:0009eb70       ??0?$basic_string@GU?$char_traits@G@std@@V?$allocator@G@2@@std@@QEAA@XZ 000000014009fb70 f i libcpmtd:wlocale.obj
 0001:0009ebe0       ??0?$basic_string@GU?$char_traits@G@std@@V?$allocator@G@2@@std@@QEAA@_KG@Z 000000014009fbe0 f i libcpmtd:wlocale.obj
 0001:0009ec90       ??0?$basic_string@_WU?$char_traits@_W@std@@V?$allocator@_W@2@@std@@QEAA@QEB_W_K@Z 000000014009fc90 f i libcpmtd:wlocale.obj
 0001:0009ed40       ??0?$basic_string@_WU?$char_traits@_W@std@@V?$allocator@_W@2@@std@@QEAA@_K_W@Z 000000014009fd40 f i libcpmtd:wlocale.obj
 0001:0009edf0       ??0?$codecvt@GDU_Mbstatet@@@std@@QEAA@AEBV_Locinfo@1@_K@Z 000000014009fdf0 f i libcpmtd:wlocale.obj
 0001:0009ee40       ??0?$codecvt@_WDU_Mbstatet@@@std@@QEAA@AEBV_Locinfo@1@_K@Z 000000014009fe40 f i libcpmtd:wlocale.obj
 0001:0009ee90       ??0?$collate@G@std@@QEAA@AEBV_Locinfo@1@_K@Z 000000014009fe90 f i libcpmtd:wlocale.obj
 0001:0009eee0       ??0?$collate@_W@std@@QEAA@AEBV_Locinfo@1@_K@Z 000000014009fee0 f i libcpmtd:wlocale.obj
 0001:0009ef30       ??0?$ctype@G@std@@QEAA@AEBV_Locinfo@1@_K@Z 000000014009ff30 f i libcpmtd:wlocale.obj
 0001:0009ef80       ??0?$ctype@_W@std@@QEAA@AEBV_Locinfo@1@_K@Z 000000014009ff80 f i libcpmtd:wlocale.obj
 0001:0009efd0       ??0?$messages@G@std@@QEAA@AEBV_Locinfo@1@_K@Z 000000014009ffd0 f i libcpmtd:wlocale.obj
 0001:0009f020       ??0?$messages@_W@std@@QEAA@AEBV_Locinfo@1@_K@Z 00000001400a0020 f i libcpmtd:wlocale.obj
 0001:0009f070       ??0?$money_get@GV?$istreambuf_iterator@GU?$char_traits@G@std@@@std@@@std@@QEAA@AEBV_Locinfo@1@_K@Z 00000001400a0070 f i libcpmtd:wlocale.obj
 0001:0009f0c0       ??0?$money_get@_WV?$istreambuf_iterator@_WU?$char_traits@_W@std@@@std@@@std@@QEAA@AEBV_Locinfo@1@_K@Z 00000001400a00c0 f i libcpmtd:wlocale.obj
 0001:0009f110       ??0?$money_put@GV?$ostreambuf_iterator@GU?$char_traits@G@std@@@std@@@std@@QEAA@AEBV_Locinfo@1@_K@Z 00000001400a0110 f i libcpmtd:wlocale.obj
 0001:0009f160       ??0?$money_put@_WV?$ostreambuf_iterator@_WU?$char_traits@_W@std@@@std@@@std@@QEAA@AEBV_Locinfo@1@_K@Z 00000001400a0160 f i libcpmtd:wlocale.obj
 0001:0009f1b0       ??0?$moneypunct@G$00@std@@QEAA@AEBV_Locinfo@1@_K_N@Z 00000001400a01b0 f i libcpmtd:wlocale.obj
 0001:0009f210       ??0?$moneypunct@G$0A@@std@@QEAA@AEBV_Locinfo@1@_K_N@Z 00000001400a0210 f i libcpmtd:wlocale.obj
 0001:0009f270       ??0?$moneypunct@_W$00@std@@QEAA@AEBV_Locinfo@1@_K_N@Z 00000001400a0270 f i libcpmtd:wlocale.obj
 0001:0009f2d0       ??0?$moneypunct@_W$0A@@std@@QEAA@AEBV_Locinfo@1@_K_N@Z 00000001400a02d0 f i libcpmtd:wlocale.obj
 0001:0009f330       ??0?$num_get@GV?$istreambuf_iterator@GU?$char_traits@G@std@@@std@@@std@@QEAA@AEBV_Locinfo@1@_K@Z 00000001400a0330 f i libcpmtd:wlocale.obj
 0001:0009f380       ??0?$num_get@_WV?$istreambuf_iterator@_WU?$char_traits@_W@std@@@std@@@std@@QEAA@AEBV_Locinfo@1@_K@Z 00000001400a0380 f i libcpmtd:wlocale.obj
 0001:0009f3d0       ??0?$num_put@GV?$ostreambuf_iterator@GU?$char_traits@G@std@@@std@@@std@@QEAA@AEBV_Locinfo@1@_K@Z 00000001400a03d0 f i libcpmtd:wlocale.obj
 0001:0009f420       ??0?$num_put@_WV?$ostreambuf_iterator@_WU?$char_traits@_W@std@@@std@@@std@@QEAA@AEBV_Locinfo@1@_K@Z 00000001400a0420 f i libcpmtd:wlocale.obj
 0001:0009f470       ??0?$numpunct@G@std@@QEAA@AEBV_Locinfo@1@_K_N@Z 00000001400a0470 f i libcpmtd:wlocale.obj
 0001:0009f4d0       ??0?$numpunct@_W@std@@QEAA@AEBV_Locinfo@1@_K_N@Z 00000001400a04d0 f i libcpmtd:wlocale.obj
 0001:0009f530       ??0?$time_get@GV?$istreambuf_iterator@GU?$char_traits@G@std@@@std@@@std@@QEAA@AEBV_Locinfo@1@_K@Z 00000001400a0530 f i libcpmtd:wlocale.obj
 0001:0009f580       ??0?$time_get@_WV?$istreambuf_iterator@_WU?$char_traits@_W@std@@@std@@@std@@QEAA@AEBV_Locinfo@1@_K@Z 00000001400a0580 f i libcpmtd:wlocale.obj
 0001:0009f5d0       ??0?$time_put@GV?$ostreambuf_iterator@GU?$char_traits@G@std@@@std@@@std@@QEAA@AEBV_Locinfo@1@_K@Z 00000001400a05d0 f i libcpmtd:wlocale.obj
 0001:0009f640       ??0?$time_put@_WV?$ostreambuf_iterator@_WU?$char_traits@_W@std@@@std@@@std@@QEAA@AEBV_Locinfo@1@_K@Z 00000001400a0640 f i libcpmtd:wlocale.obj
 0001:0009f6b0       ??0_Bxty@?$_String_val@U?$_Simple_types@G@std@@@std@@QEAA@XZ 00000001400a06b0 f i libcpmtd:wlocale.obj
 0001:0009f6c0       ??0_Bxty@?$_String_val@U?$_Simple_types@_W@std@@@std@@QEAA@XZ 00000001400a06c0 f i libcpmtd:wlocale.obj
 0001:0009f6d0       ??0_Iterator_base12@std@@QEAA@AEBU01@@Z 00000001400a06d0 f i libcpmtd:wlocale.obj
 0001:0009f710       ??0_Iterator_base12@std@@QEAA@XZ 00000001400a0710 f i libcpmtd:wlocale.obj
 0001:0009f740       ??0_Timevec@std@@QEAA@PEAX@Z 00000001400a0740 f i libcpmtd:wlocale.obj
 0001:0009f760       ??0messages_base@std@@QEAA@_K@Z 00000001400a0760 f i libcpmtd:wlocale.obj
 0001:0009f7a0       ??0money_base@std@@QEAA@_K@Z 00000001400a07a0 f i libcpmtd:wlocale.obj
 0001:0009f7e0       ??0time_base@std@@QEAA@_K@Z 00000001400a07e0 f i libcpmtd:wlocale.obj
 0001:0009f820       ??1?$_Compressed_pair@V?$allocator@G@std@@V?$_String_val@U?$_Simple_types@G@std@@@2@$00@std@@QEAA@XZ 00000001400a0820 f i libcpmtd:wlocale.obj
 0001:0009f840       ??1?$_Mpunct@G@std@@MEAA@XZ 00000001400a0840 f i libcpmtd:wlocale.obj
 0001:0009f880       ??1?$_Mpunct@_W@std@@MEAA@XZ 00000001400a0880 f i libcpmtd:wlocale.obj
 0001:0009f8c0       ??1?$_String_const_iterator@V?$_String_val@U?$_Simple_types@G@std@@@std@@@std@@QEAA@XZ 00000001400a08c0 f i libcpmtd:wlocale.obj
 0001:0009f8e0       ??1?$_String_const_iterator@V?$_String_val@U?$_Simple_types@_W@std@@@std@@@std@@QEAA@XZ 00000001400a08e0 f i libcpmtd:wlocale.obj
 0001:0009f900       ??1?$_String_iterator@V?$_String_val@U?$_Simple_types@G@std@@@std@@@std@@QEAA@XZ 00000001400a0900 f i libcpmtd:wlocale.obj
 0001:0009f920       ??1?$_String_val@U?$_Simple_types@G@std@@@std@@QEAA@XZ 00000001400a0920 f i libcpmtd:wlocale.obj
 0001:0009f940       ??1?$_String_val@U?$_Simple_types@_W@std@@@std@@QEAA@XZ 00000001400a0940 f i libcpmtd:wlocale.obj
 0001:0009f960       ??1?$_Tidy_guard@V?$_Mpunct@G@std@@@std@@QEAA@XZ 00000001400a0960 f i libcpmtd:wlocale.obj
 0001:0009f990       ??1?$_Tidy_guard@V?$_Mpunct@_W@std@@@std@@QEAA@XZ 00000001400a0990 f i libcpmtd:wlocale.obj
 0001:0009f9c0       ??1?$_Tidy_guard@V?$numpunct@G@std@@@std@@QEAA@XZ 00000001400a09c0 f i libcpmtd:wlocale.obj
 0001:0009f9f0       ??1?$_Tidy_guard@V?$numpunct@_W@std@@@std@@QEAA@XZ 00000001400a09f0 f i libcpmtd:wlocale.obj
 0001:0009fa20       ??1?$_Tidy_guard@V?$time_get@GV?$istreambuf_iterator@GU?$char_traits@G@std@@@std@@@std@@@std@@QEAA@XZ 00000001400a0a20 f i libcpmtd:wlocale.obj
 0001:0009fa50       ??1?$_Tidy_guard@V?$time_get@_WV?$istreambuf_iterator@_WU?$char_traits@_W@std@@@std@@@std@@@std@@QEAA@XZ 00000001400a0a50 f i libcpmtd:wlocale.obj
 0001:0009fa80       ??1?$basic_string@GU?$char_traits@G@std@@V?$allocator@G@2@@std@@QEAA@XZ 00000001400a0a80 f i libcpmtd:wlocale.obj
 0001:0009faf0       ??1?$codecvt@GDU_Mbstatet@@@std@@MEAA@XZ 00000001400a0af0 f i libcpmtd:wlocale.obj
 0001:0009fb20       ??1?$codecvt@_WDU_Mbstatet@@@std@@MEAA@XZ 00000001400a0b20 f i libcpmtd:wlocale.obj
 0001:0009fb50       ??1?$collate@G@std@@MEAA@XZ 00000001400a0b50 f i libcpmtd:wlocale.obj
 0001:0009fb90       ??1?$collate@_W@std@@MEAA@XZ 00000001400a0b90 f i libcpmtd:wlocale.obj
 0001:0009fbd0       ??1?$ctype@G@std@@MEAA@XZ  00000001400a0bd0 f i libcpmtd:wlocale.obj
 0001:0009fc20       ??1?$ctype@_W@std@@MEAA@XZ 00000001400a0c20 f i libcpmtd:wlocale.obj
 0001:0009fc70       ??1?$messages@G@std@@MEAA@XZ 00000001400a0c70 f i libcpmtd:wlocale.obj
 0001:0009fca0       ??1?$messages@_W@std@@MEAA@XZ 00000001400a0ca0 f i libcpmtd:wlocale.obj
 0001:0009fcd0       ??1?$money_get@GV?$istreambuf_iterator@GU?$char_traits@G@std@@@std@@@std@@MEAA@XZ 00000001400a0cd0 f i libcpmtd:wlocale.obj
 0001:0009fd00       ??1?$money_get@_WV?$istreambuf_iterator@_WU?$char_traits@_W@std@@@std@@@std@@MEAA@XZ 00000001400a0d00 f i libcpmtd:wlocale.obj
 0001:0009fd30       ??1?$money_put@GV?$ostreambuf_iterator@GU?$char_traits@G@std@@@std@@@std@@MEAA@XZ 00000001400a0d30 f i libcpmtd:wlocale.obj
 0001:0009fd60       ??1?$money_put@_WV?$ostreambuf_iterator@_WU?$char_traits@_W@std@@@std@@@std@@MEAA@XZ 00000001400a0d60 f i libcpmtd:wlocale.obj
 0001:0009fd90       ??1?$moneypunct@G$00@std@@MEAA@XZ 00000001400a0d90 f i libcpmtd:wlocale.obj
 0001:0009fdc0       ??1?$moneypunct@G$0A@@std@@MEAA@XZ 00000001400a0dc0 f i libcpmtd:wlocale.obj
 0001:0009fdf0       ??1?$moneypunct@_W$00@std@@MEAA@XZ 00000001400a0df0 f i libcpmtd:wlocale.obj
 0001:0009fe20       ??1?$moneypunct@_W$0A@@std@@MEAA@XZ 00000001400a0e20 f i libcpmtd:wlocale.obj
 0001:0009fe50       ??1?$num_get@GV?$istreambuf_iterator@GU?$char_traits@G@std@@@std@@@std@@MEAA@XZ 00000001400a0e50 f i libcpmtd:wlocale.obj
 0001:0009fe80       ??1?$num_get@_WV?$istreambuf_iterator@_WU?$char_traits@_W@std@@@std@@@std@@MEAA@XZ 00000001400a0e80 f i libcpmtd:wlocale.obj
 0001:0009feb0       ??1?$num_put@GV?$ostreambuf_iterator@GU?$char_traits@G@std@@@std@@@std@@MEAA@XZ 00000001400a0eb0 f i libcpmtd:wlocale.obj
 0001:0009fee0       ??1?$num_put@_WV?$ostreambuf_iterator@_WU?$char_traits@_W@std@@@std@@@std@@MEAA@XZ 00000001400a0ee0 f i libcpmtd:wlocale.obj
 0001:0009ff10       ??1?$numpunct@G@std@@MEAA@XZ 00000001400a0f10 f i libcpmtd:wlocale.obj
 0001:0009ff50       ??1?$numpunct@_W@std@@MEAA@XZ 00000001400a0f50 f i libcpmtd:wlocale.obj
 0001:0009ff90       ??1?$time_get@GV?$istreambuf_iterator@GU?$char_traits@G@std@@@std@@@std@@MEAA@XZ 00000001400a0f90 f i libcpmtd:wlocale.obj
 0001:0009ffd0       ??1?$time_get@_WV?$istreambuf_iterator@_WU?$char_traits@_W@std@@@std@@@std@@MEAA@XZ 00000001400a0fd0 f i libcpmtd:wlocale.obj
 0001:000a0010       ??1?$time_put@GV?$ostreambuf_iterator@GU?$char_traits@G@std@@@std@@@std@@MEAA@XZ 00000001400a1010 f i libcpmtd:wlocale.obj
 0001:000a0050       ??1?$time_put@_WV?$ostreambuf_iterator@_WU?$char_traits@_W@std@@@std@@@std@@MEAA@XZ 00000001400a1050 f i libcpmtd:wlocale.obj
 0001:000a0090       ??1_Bxty@?$_String_val@U?$_Simple_types@G@std@@@std@@QEAA@XZ 00000001400a1090 f i libcpmtd:wlocale.obj
 0001:000a00a0       ??1_Bxty@?$_String_val@U?$_Simple_types@_W@std@@@std@@QEAA@XZ 00000001400a10a0 f i libcpmtd:wlocale.obj
 0001:000a00b0       ??1_Iterator_base12@std@@QEAA@XZ 00000001400a10b0 f i libcpmtd:wlocale.obj
 0001:000a00f0       ??1_Timevec@std@@QEAA@XZ   00000001400a10f0 f i libcpmtd:wlocale.obj
 0001:000a0110       ??1messages_base@std@@UEAA@XZ 00000001400a1110 f i libcpmtd:wlocale.obj
 0001:000a0130       ??1money_base@std@@UEAA@XZ 00000001400a1130 f i libcpmtd:wlocale.obj
 0001:000a0150       ??1time_base@std@@UEAA@XZ  00000001400a1150 f i libcpmtd:wlocale.obj
 0001:000a0180       ??4?$_String_const_iterator@V?$_String_val@U?$_Simple_types@G@std@@@std@@@std@@QEAAAEAV01@$$QEAV01@@Z 00000001400a1180 f i libcpmtd:wlocale.obj
 0001:000a01c0       ??4?$_String_const_iterator@V?$_String_val@U?$_Simple_types@_W@std@@@std@@@std@@QEAAAEAV01@$$QEAV01@@Z 00000001400a11c0 f i libcpmtd:wlocale.obj
 0001:000a0200       ??4?$_Yarn@_W@std@@QEAAAEAV01@PEB_W@Z 00000001400a1200 f i libcpmtd:wlocale.obj
 0001:000a02e0       ??4?$basic_string@GU?$char_traits@G@std@@V?$allocator@G@2@@std@@QEAAAEAV01@$$QEAV01@@Z 00000001400a12e0 f i libcpmtd:wlocale.obj
 0001:000a0340       ??4?$basic_string@_WU?$char_traits@_W@std@@V?$allocator@_W@2@@std@@QEAAAEAV01@$$QEAV01@@Z 00000001400a1340 f i libcpmtd:wlocale.obj
 0001:000a03a0       ??4?$ostreambuf_iterator@GU?$char_traits@G@std@@@std@@QEAAAEAV01@G@Z 00000001400a13a0 f i libcpmtd:wlocale.obj
 0001:000a0410       ??4?$ostreambuf_iterator@_WU?$char_traits@_W@std@@@std@@QEAAAEAV01@_W@Z 00000001400a1410 f i libcpmtd:wlocale.obj
 0001:000a0480       ??4_Timevec@std@@QEAAAEAV01@AEBV01@@Z 00000001400a1480 f i libcpmtd:wlocale.obj
 0001:000a04d0       ??8?$_String_const_iterator@V?$_String_val@U?$_Simple_types@G@std@@@std@@@std@@QEBA_NAEBV01@@Z 00000001400a14d0 f i libcpmtd:wlocale.obj
 0001:000a0520       ??8?$_String_const_iterator@V?$_String_val@U?$_Simple_types@_W@std@@@std@@@std@@QEBA_NAEBV01@@Z 00000001400a1520 f i libcpmtd:wlocale.obj
 0001:000a0570       ??9?$_String_const_iterator@V?$_String_val@U?$_Simple_types@G@std@@@std@@@std@@QEBA_NAEBV01@@Z 00000001400a1570 f i libcpmtd:wlocale.obj
 0001:000a05b0       ??9?$_String_const_iterator@V?$_String_val@U?$_Simple_types@_W@std@@@std@@@std@@QEBA_NAEBV01@@Z 00000001400a15b0 f i libcpmtd:wlocale.obj
 0001:000a05f0       ??A?$basic_string@GU?$char_traits@G@std@@V?$allocator@G@2@@std@@QEAAAEAG_K@Z 00000001400a15f0 f i libcpmtd:wlocale.obj
 0001:000a06a0       ??A?$basic_string@GU?$char_traits@G@std@@V?$allocator@G@2@@std@@QEBAAEBG_K@Z 00000001400a16a0 f i libcpmtd:wlocale.obj
 0001:000a0750       ??A?$basic_string@_WU?$char_traits@_W@std@@V?$allocator@_W@2@@std@@QEBAAEB_W_K@Z 00000001400a1750 f i libcpmtd:wlocale.obj
 0001:000a0800       ??D?$_String_const_iterator@V?$_String_val@U?$_Simple_types@G@std@@@std@@@std@@QEBAAEBGXZ 00000001400a1800 f i libcpmtd:wlocale.obj
 0001:000a09e0       ??D?$_String_const_iterator@V?$_String_val@U?$_Simple_types@_W@std@@@std@@@std@@QEBAAEB_WXZ 00000001400a19e0 f i libcpmtd:wlocale.obj
 0001:000a0bc0       ??D?$_String_iterator@V?$_String_val@U?$_Simple_types@G@std@@@std@@@std@@QEBAAEAGXZ 00000001400a1bc0 f i libcpmtd:wlocale.obj
 0001:000a0be0       ??D?$_String_iterator@V?$_String_val@U?$_Simple_types@_W@std@@@std@@@std@@QEBAAEA_WXZ 00000001400a1be0 f i libcpmtd:wlocale.obj
 0001:000a0c00       ??D?$istreambuf_iterator@GU?$char_traits@G@std@@@std@@QEBAGXZ 00000001400a1c00 f i libcpmtd:wlocale.obj
 0001:000a0cb0       ??D?$istreambuf_iterator@_WU?$char_traits@_W@std@@@std@@QEBA_WXZ 00000001400a1cb0 f i libcpmtd:wlocale.obj
 0001:000a0d60       ??D?$ostreambuf_iterator@GU?$char_traits@G@std@@@std@@QEAAAEAV01@XZ 00000001400a1d60 f i libcpmtd:wlocale.obj
 0001:000a0d70       ??D?$ostreambuf_iterator@_WU?$char_traits@_W@std@@@std@@QEAAAEAV01@XZ 00000001400a1d70 f i libcpmtd:wlocale.obj
 0001:000a0d80       ??E?$_String_const_iterator@V?$_String_val@U?$_Simple_types@G@std@@@std@@@std@@QEAAAEAV01@XZ 00000001400a1d80 f i libcpmtd:wlocale.obj
 0001:000a0f60       ??E?$_String_const_iterator@V?$_String_val@U?$_Simple_types@_W@std@@@std@@@std@@QEAAAEAV01@XZ 00000001400a1f60 f i libcpmtd:wlocale.obj
 0001:000a1140       ??E?$_String_iterator@V?$_String_val@U?$_Simple_types@G@std@@@std@@@std@@QEAAAEAV01@XZ 00000001400a2140 f i libcpmtd:wlocale.obj
 0001:000a1160       ??E?$_String_iterator@V?$_String_val@U?$_Simple_types@_W@std@@@std@@@std@@QEAAAEAV01@XZ 00000001400a2160 f i libcpmtd:wlocale.obj
 0001:000a1180       ??E?$istreambuf_iterator@GU?$char_traits@G@std@@@std@@QEAAAEAV01@XZ 00000001400a2180 f i libcpmtd:wlocale.obj
 0001:000a1220       ??E?$istreambuf_iterator@_WU?$char_traits@_W@std@@@std@@QEAAAEAV01@XZ 00000001400a2220 f i libcpmtd:wlocale.obj
 0001:000a12c0       ??E?$ostreambuf_iterator@GU?$char_traits@G@std@@@std@@QEAAAEAV01@H@Z 00000001400a22c0 f i libcpmtd:wlocale.obj
 0001:000a12d0       ??E?$ostreambuf_iterator@GU?$char_traits@G@std@@@std@@QEAAAEAV01@XZ 00000001400a22d0 f i libcpmtd:wlocale.obj
 0001:000a12e0       ??E?$ostreambuf_iterator@_WU?$char_traits@_W@std@@@std@@QEAAAEAV01@H@Z 00000001400a22e0 f i libcpmtd:wlocale.obj
 0001:000a12f0       ??E?$ostreambuf_iterator@_WU?$char_traits@_W@std@@@std@@QEAAAEAV01@XZ 00000001400a22f0 f i libcpmtd:wlocale.obj
 0001:000a1300       ??G?$_String_iterator@V?$_String_val@U?$_Simple_types@G@std@@@std@@@std@@QEBA?AV01@_J@Z 00000001400a2300 f i libcpmtd:wlocale.obj
 0001:000a1360       ??G?$_String_iterator@V?$_String_val@U?$_Simple_types@_W@std@@@std@@@std@@QEBA?AV01@_J@Z 00000001400a2360 f i libcpmtd:wlocale.obj
 0001:000a13c0       ??H?$_String_iterator@V?$_String_val@U?$_Simple_types@G@std@@@std@@@std@@QEBA?AV01@_J@Z 00000001400a23c0 f i libcpmtd:wlocale.obj
 0001:000a1420       ??H?$_String_iterator@V?$_String_val@U?$_Simple_types@_W@std@@@std@@@std@@QEBA?AV01@_J@Z 00000001400a2420 f i libcpmtd:wlocale.obj
 0001:000a1480       ??R<lambda_1>@?1??append@?$basic_string@GU?$char_traits@G@std@@V?$allocator@G@2@@std@@QEAAAEAV23@QEBG_K@Z@QEBAXQEAG0101@Z 00000001400a2480 f i libcpmtd:wlocale.obj
 0001:000a1500       ??R<lambda_1>@?1??append@?$basic_string@GU?$char_traits@G@std@@V?$allocator@G@2@@std@@QEAAAEAV23@_KG@Z@QEBAXQEAGQEBG00G@Z 00000001400a2500 f i libcpmtd:wlocale.obj
 0001:000a1580       ??R<lambda_1>@?1??append@?$basic_string@_WU?$char_traits@_W@std@@V?$allocator@_W@2@@std@@QEAAAEAV23@QEB_W_K@Z@QEBAXQEA_W0101@Z 00000001400a2580 f i libcpmtd:wlocale.obj
 0001:000a1600       ??R<lambda_1>@?1??append@?$basic_string@_WU?$char_traits@_W@std@@V?$allocator@_W@2@@std@@QEAAAEAV23@_K_W@Z@QEBAXQEA_WQEB_W001@Z 00000001400a2600 f i libcpmtd:wlocale.obj
 0001:000a1680       ??R<lambda_1>@?1??assign@?$basic_string@GU?$char_traits@G@std@@V?$allocator@G@2@@std@@QEAAAEAV23@QEBG_K@Z@QEBAXQEAG10@Z 00000001400a2680 f i libcpmtd:wlocale.obj
 0001:000a16e0       ??R<lambda_1>@?1??assign@?$basic_string@GU?$char_traits@G@std@@V?$allocator@G@2@@std@@QEAAAEAV23@_KG@Z@QEBAXQEAG0G@Z 00000001400a26e0 f i libcpmtd:wlocale.obj
 0001:000a1740       ??R<lambda_1>@?1??assign@?$basic_string@_WU?$char_traits@_W@std@@V?$allocator@_W@2@@std@@QEAAAEAV23@QEB_W_K@Z@QEBAXQEA_W10@Z 00000001400a2740 f i libcpmtd:wlocale.obj
 0001:000a17a0       ??R<lambda_1>@?1??assign@?$basic_string@_WU?$char_traits@_W@std@@V?$allocator@_W@2@@std@@QEAAAEAV23@_K_W@Z@QEBAXQEA_W01@Z 00000001400a27a0 f i libcpmtd:wlocale.obj
 0001:000a1800       ??R<lambda_1>@?1??insert@?$basic_string@GU?$char_traits@G@std@@V?$allocator@G@2@@std@@QEAAAEAV23@_K0G@Z@QEBAXQEAGQEBG000G@Z 00000001400a2800 f i libcpmtd:wlocale.obj
 0001:000a18b0       ??R<lambda_1>@?1??insert@?$basic_string@_WU?$char_traits@_W@std@@V?$allocator@_W@2@@std@@QEAAAEAV23@_K0_W@Z@QEBAXQEA_WQEB_W0001@Z 00000001400a28b0 f i libcpmtd:wlocale.obj
 0001:000a1960       ??R<lambda_1>@?1??push_back@?$basic_string@GU?$char_traits@G@std@@V?$allocator@G@2@@std@@QEAAXG@Z@QEBAXQEAGQEBG_KG@Z 00000001400a2960 f i libcpmtd:wlocale.obj
 0001:000a19d0       ??R<lambda_1>@?1??push_back@?$basic_string@_WU?$char_traits@_W@std@@V?$allocator@_W@2@@std@@QEAAX_W@Z@QEBAXQEA_WQEB_W_K0@Z 00000001400a29d0 f i libcpmtd:wlocale.obj
 0001:000a1a40       ??Y?$_String_const_iterator@V?$_String_val@U?$_Simple_types@G@std@@@std@@@std@@QEAAAEAV01@_J@Z 00000001400a2a40 f i libcpmtd:wlocale.obj
 0001:000a1a90       ??Y?$_String_const_iterator@V?$_String_val@U?$_Simple_types@_W@std@@@std@@@std@@QEAAAEAV01@_J@Z 00000001400a2a90 f i libcpmtd:wlocale.obj
 0001:000a1ae0       ??Y?$_String_iterator@V?$_String_val@U?$_Simple_types@G@std@@@std@@@std@@QEAAAEAV01@_J@Z 00000001400a2ae0 f i libcpmtd:wlocale.obj
 0001:000a1b10       ??Y?$_String_iterator@V?$_String_val@U?$_Simple_types@_W@std@@@std@@@std@@QEAAAEAV01@_J@Z 00000001400a2b10 f i libcpmtd:wlocale.obj
 0001:000a1b40       ??Y?$basic_string@DU?$char_traits@D@std@@V?$allocator@D@2@@std@@QEAAAEAV01@D@Z 00000001400a2b40 f i libcpmtd:wlocale.obj
 0001:000a1b70       ??Y?$basic_string@GU?$char_traits@G@std@@V?$allocator@G@2@@std@@QEAAAEAV01@AEBV01@@Z 00000001400a2b70 f i libcpmtd:wlocale.obj
 0001:000a1ba0       ??Y?$basic_string@_WU?$char_traits@_W@std@@V?$allocator@_W@2@@std@@QEAAAEAV01@AEBV01@@Z 00000001400a2ba0 f i libcpmtd:wlocale.obj
 0001:000a1bd0       ??Z?$_String_const_iterator@V?$_String_val@U?$_Simple_types@G@std@@@std@@@std@@QEAAAEAV01@_J@Z 00000001400a2bd0 f i libcpmtd:wlocale.obj
 0001:000a1c00       ??Z?$_String_const_iterator@V?$_String_val@U?$_Simple_types@_W@std@@@std@@@std@@QEAAAEAV01@_J@Z 00000001400a2c00 f i libcpmtd:wlocale.obj
 0001:000a1c30       ??Z?$_String_iterator@V?$_String_val@U?$_Simple_types@G@std@@@std@@@std@@QEAAAEAV01@_J@Z 00000001400a2c30 f i libcpmtd:wlocale.obj
 0001:000a1c60       ??Z?$_String_iterator@V?$_String_val@U?$_Simple_types@_W@std@@@std@@@std@@QEAAAEAV01@_J@Z 00000001400a2c60 f i libcpmtd:wlocale.obj
 0001:000a1c90       ??_E?$_Mpunct@G@std@@MEAAPEAXI@Z 00000001400a2c90 f i libcpmtd:wlocale.obj
 0001:000a1c90       ??_G?$_Mpunct@G@std@@MEAAPEAXI@Z 00000001400a2c90 f i libcpmtd:wlocale.obj
 0001:000a1cf0       ??_E?$_Mpunct@_W@std@@MEAAPEAXI@Z 00000001400a2cf0 f i libcpmtd:wlocale.obj
 0001:000a1cf0       ??_G?$_Mpunct@_W@std@@MEAAPEAXI@Z 00000001400a2cf0 f i libcpmtd:wlocale.obj
 0001:000a1d50       ??_G?$codecvt@GDU_Mbstatet@@@std@@MEAAPEAXI@Z 00000001400a2d50 f i libcpmtd:wlocale.obj
 0001:000a1d50       ??_E?$codecvt@GDU_Mbstatet@@@std@@MEAAPEAXI@Z 00000001400a2d50 f i libcpmtd:wlocale.obj
 0001:000a1db0       ??_G?$collate@G@std@@MEAAPEAXI@Z 00000001400a2db0 f i libcpmtd:wlocale.obj
 0001:000a1db0       ??_E?$collate@G@std@@MEAAPEAXI@Z 00000001400a2db0 f i libcpmtd:wlocale.obj
 0001:000a1e10       ??_G?$collate@_W@std@@MEAAPEAXI@Z 00000001400a2e10 f i libcpmtd:wlocale.obj
 0001:000a1e10       ??_E?$collate@_W@std@@MEAAPEAXI@Z 00000001400a2e10 f i libcpmtd:wlocale.obj
 0001:000a1e70       ??_G?$ctype@G@std@@MEAAPEAXI@Z 00000001400a2e70 f i libcpmtd:wlocale.obj
 0001:000a1e70       ??_E?$ctype@G@std@@MEAAPEAXI@Z 00000001400a2e70 f i libcpmtd:wlocale.obj
 0001:000a1ed0       ??_G?$ctype@_W@std@@MEAAPEAXI@Z 00000001400a2ed0 f i libcpmtd:wlocale.obj
 0001:000a1ed0       ??_E?$ctype@_W@std@@MEAAPEAXI@Z 00000001400a2ed0 f i libcpmtd:wlocale.obj
 0001:000a1f30       ??_G?$messages@G@std@@MEAAPEAXI@Z 00000001400a2f30 f i libcpmtd:wlocale.obj
 0001:000a1f30       ??_E?$messages@G@std@@MEAAPEAXI@Z 00000001400a2f30 f i libcpmtd:wlocale.obj
 0001:000a1f90       ??_G?$messages@_W@std@@MEAAPEAXI@Z 00000001400a2f90 f i libcpmtd:wlocale.obj
 0001:000a1f90       ??_E?$messages@_W@std@@MEAAPEAXI@Z 00000001400a2f90 f i libcpmtd:wlocale.obj
 0001:000a1ff0       ??_E?$money_get@GV?$istreambuf_iterator@GU?$char_traits@G@std@@@std@@@std@@MEAAPEAXI@Z 00000001400a2ff0 f i libcpmtd:wlocale.obj
 0001:000a1ff0       ??_G?$money_get@GV?$istreambuf_iterator@GU?$char_traits@G@std@@@std@@@std@@MEAAPEAXI@Z 00000001400a2ff0 f i libcpmtd:wlocale.obj
 0001:000a2050       ??_G?$money_get@_WV?$istreambuf_iterator@_WU?$char_traits@_W@std@@@std@@@std@@MEAAPEAXI@Z 00000001400a3050 f i libcpmtd:wlocale.obj
 0001:000a2050       ??_E?$money_get@_WV?$istreambuf_iterator@_WU?$char_traits@_W@std@@@std@@@std@@MEAAPEAXI@Z 00000001400a3050 f i libcpmtd:wlocale.obj
 0001:000a20b0       ??_G?$money_put@GV?$ostreambuf_iterator@GU?$char_traits@G@std@@@std@@@std@@MEAAPEAXI@Z 00000001400a30b0 f i libcpmtd:wlocale.obj
 0001:000a20b0       ??_E?$money_put@GV?$ostreambuf_iterator@GU?$char_traits@G@std@@@std@@@std@@MEAAPEAXI@Z 00000001400a30b0 f i libcpmtd:wlocale.obj
 0001:000a2110       ??_E?$money_put@_WV?$ostreambuf_iterator@_WU?$char_traits@_W@std@@@std@@@std@@MEAAPEAXI@Z 00000001400a3110 f i libcpmtd:wlocale.obj
 0001:000a2110       ??_G?$money_put@_WV?$ostreambuf_iterator@_WU?$char_traits@_W@std@@@std@@@std@@MEAAPEAXI@Z 00000001400a3110 f i libcpmtd:wlocale.obj
 0001:000a2170       ??_E?$moneypunct@G$00@std@@MEAAPEAXI@Z 00000001400a3170 f i libcpmtd:wlocale.obj
 0001:000a2170       ??_G?$moneypunct@G$00@std@@MEAAPEAXI@Z 00000001400a3170 f i libcpmtd:wlocale.obj
 0001:000a21d0       ??_E?$moneypunct@G$0A@@std@@MEAAPEAXI@Z 00000001400a31d0 f i libcpmtd:wlocale.obj
 0001:000a21d0       ??_G?$moneypunct@G$0A@@std@@MEAAPEAXI@Z 00000001400a31d0 f i libcpmtd:wlocale.obj
 0001:000a2230       ??_E?$moneypunct@_W$00@std@@MEAAPEAXI@Z 00000001400a3230 f i libcpmtd:wlocale.obj
 0001:000a2230       ??_G?$moneypunct@_W$00@std@@MEAAPEAXI@Z 00000001400a3230 f i libcpmtd:wlocale.obj
 0001:000a2290       ??_E?$moneypunct@_W$0A@@std@@MEAAPEAXI@Z 00000001400a3290 f i libcpmtd:wlocale.obj
 0001:000a2290       ??_G?$moneypunct@_W$0A@@std@@MEAAPEAXI@Z 00000001400a3290 f i libcpmtd:wlocale.obj
 0001:000a22f0       ??_E?$num_get@GV?$istreambuf_iterator@GU?$char_traits@G@std@@@std@@@std@@MEAAPEAXI@Z 00000001400a32f0 f i libcpmtd:wlocale.obj
 0001:000a22f0       ??_G?$num_get@GV?$istreambuf_iterator@GU?$char_traits@G@std@@@std@@@std@@MEAAPEAXI@Z 00000001400a32f0 f i libcpmtd:wlocale.obj
 0001:000a2350       ??_G?$num_get@_WV?$istreambuf_iterator@_WU?$char_traits@_W@std@@@std@@@std@@MEAAPEAXI@Z 00000001400a3350 f i libcpmtd:wlocale.obj
 0001:000a2350       ??_E?$num_get@_WV?$istreambuf_iterator@_WU?$char_traits@_W@std@@@std@@@std@@MEAAPEAXI@Z 00000001400a3350 f i libcpmtd:wlocale.obj
 0001:000a23b0       ??_G?$num_put@GV?$ostreambuf_iterator@GU?$char_traits@G@std@@@std@@@std@@MEAAPEAXI@Z 00000001400a33b0 f i libcpmtd:wlocale.obj
 0001:000a23b0       ??_E?$num_put@GV?$ostreambuf_iterator@GU?$char_traits@G@std@@@std@@@std@@MEAAPEAXI@Z 00000001400a33b0 f i libcpmtd:wlocale.obj
 0001:000a2410       ??_G?$num_put@_WV?$ostreambuf_iterator@_WU?$char_traits@_W@std@@@std@@@std@@MEAAPEAXI@Z 00000001400a3410 f i libcpmtd:wlocale.obj
 0001:000a2410       ??_E?$num_put@_WV?$ostreambuf_iterator@_WU?$char_traits@_W@std@@@std@@@std@@MEAAPEAXI@Z 00000001400a3410 f i libcpmtd:wlocale.obj
 0001:000a2470       ??_G?$numpunct@G@std@@MEAAPEAXI@Z 00000001400a3470 f i libcpmtd:wlocale.obj
 0001:000a2470       ??_E?$numpunct@G@std@@MEAAPEAXI@Z 00000001400a3470 f i libcpmtd:wlocale.obj
 0001:000a24d0       ??_G?$numpunct@_W@std@@MEAAPEAXI@Z 00000001400a34d0 f i libcpmtd:wlocale.obj
 0001:000a24d0       ??_E?$numpunct@_W@std@@MEAAPEAXI@Z 00000001400a34d0 f i libcpmtd:wlocale.obj
 0001:000a2530       ??_G?$time_get@GV?$istreambuf_iterator@GU?$char_traits@G@std@@@std@@@std@@MEAAPEAXI@Z 00000001400a3530 f i libcpmtd:wlocale.obj
 0001:000a2530       ??_E?$time_get@GV?$istreambuf_iterator@GU?$char_traits@G@std@@@std@@@std@@MEAAPEAXI@Z 00000001400a3530 f i libcpmtd:wlocale.obj
 0001:000a2590       ??_G?$time_get@_WV?$istreambuf_iterator@_WU?$char_traits@_W@std@@@std@@@std@@MEAAPEAXI@Z 00000001400a3590 f i libcpmtd:wlocale.obj
 0001:000a2590       ??_E?$time_get@_WV?$istreambuf_iterator@_WU?$char_traits@_W@std@@@std@@@std@@MEAAPEAXI@Z 00000001400a3590 f i libcpmtd:wlocale.obj
 0001:000a25f0       ??_E?$time_put@GV?$ostreambuf_iterator@GU?$char_traits@G@std@@@std@@@std@@MEAAPEAXI@Z 00000001400a35f0 f i libcpmtd:wlocale.obj
 0001:000a25f0       ??_G?$time_put@GV?$ostreambuf_iterator@GU?$char_traits@G@std@@@std@@@std@@MEAAPEAXI@Z 00000001400a35f0 f i libcpmtd:wlocale.obj
 0001:000a2650       ??_E?$time_put@_WV?$ostreambuf_iterator@_WU?$char_traits@_W@std@@@std@@@std@@MEAAPEAXI@Z 00000001400a3650 f i libcpmtd:wlocale.obj
 0001:000a2650       ??_G?$time_put@_WV?$ostreambuf_iterator@_WU?$char_traits@_W@std@@@std@@@std@@MEAAPEAXI@Z 00000001400a3650 f i libcpmtd:wlocale.obj
 0001:000a26b0       ??_Gmessages_base@std@@UEAAPEAXI@Z 00000001400a36b0 f i libcpmtd:wlocale.obj
 0001:000a26b0       ??_Emessages_base@std@@UEAAPEAXI@Z 00000001400a36b0 f i libcpmtd:wlocale.obj
 0001:000a2710       ??_Emoney_base@std@@UEAAPEAXI@Z 00000001400a3710 f i libcpmtd:wlocale.obj
 0001:000a2710       ??_Gmoney_base@std@@UEAAPEAXI@Z 00000001400a3710 f i libcpmtd:wlocale.obj
 0001:000a2770       ??_Gtime_base@std@@UEAAPEAXI@Z 00000001400a3770 f i libcpmtd:wlocale.obj
 0001:000a2770       ??_Etime_base@std@@UEAAPEAXI@Z 00000001400a3770 f i libcpmtd:wlocale.obj
 0001:000a27d0       ?_C_str@?$_Yarn@_W@std@@QEBAPEB_WXZ 00000001400a37d0 f i libcpmtd:wlocale.obj
 0001:000a2810       ?_Calculate_growth@?$basic_string@GU?$char_traits@G@std@@V?$allocator@G@2@@std@@AEBA_K_K@Z 00000001400a3810 f i libcpmtd:wlocale.obj
 0001:000a2860       ?_Calculate_growth@?$basic_string@GU?$char_traits@G@std@@V?$allocator@G@2@@std@@CA_K_K00@Z 00000001400a3860 f i libcpmtd:wlocale.obj
 0001:000a2900       ?_Check_offset@?$_String_val@U?$_Simple_types@G@std@@@std@@QEBAX_K@Z 00000001400a3900 f i libcpmtd:wlocale.obj
 0001:000a2930       ?_Check_offset@?$_String_val@U?$_Simple_types@_W@std@@@std@@QEBAX_K@Z 00000001400a3930 f i libcpmtd:wlocale.obj
 0001:000a2960       ?_Compat@?$_String_const_iterator@V?$_String_val@U?$_Simple_types@G@std@@@std@@@std@@QEBAXAEBV12@@Z 00000001400a3960 f i libcpmtd:wlocale.obj
 0001:000a2a10       ?_Compat@?$_String_const_iterator@V?$_String_val@U?$_Simple_types@_W@std@@@std@@@std@@QEBAXAEBV12@@Z 00000001400a3a10 f i libcpmtd:wlocale.obj
 0001:000a2ac0       ?_Construct_lv_contents@?$basic_string@GU?$char_traits@G@std@@V?$allocator@G@2@@std@@AEAAXAEBV12@@Z 00000001400a3ac0 f i libcpmtd:wlocale.obj
 0001:000a2c10       ?_Donarrow@?$ctype@G@std@@IEBADGD@Z 00000001400a3c10 f i libcpmtd:wlocale.obj
 0001:000a2ca0       ?_Donarrow@?$ctype@_W@std@@IEBAD_WD@Z 00000001400a3ca0 f i libcpmtd:wlocale.obj
 0001:000a2d30       ?_Dowiden@?$ctype@G@std@@IEBAGD@Z 00000001400a3d30 f i libcpmtd:wlocale.obj
 0001:000a2d90       ?_Dowiden@?$ctype@_W@std@@IEBA_WD@Z 00000001400a3d90 f i libcpmtd:wlocale.obj
 0001:000a2e00       ?_Empty@?$_Yarn@_W@std@@QEBA_NXZ 00000001400a3e00 f i libcpmtd:wlocale.obj
 0001:000a2e30       ?_Eos@?$basic_string@GU?$char_traits@G@std@@V?$allocator@G@2@@std@@AEAAX_K@Z 00000001400a3e30 f i libcpmtd:wlocale.obj
 0001:000a2ea0       ?_Eos@?$basic_string@_WU?$char_traits@_W@std@@V?$allocator@_W@2@@std@@AEAAX_K@Z 00000001400a3ea0 f i libcpmtd:wlocale.obj
 0001:000a2f10       ?_Ffmt@?$num_put@GV?$ostreambuf_iterator@GU?$char_traits@G@std@@@std@@@std@@AEBAPEADPEADDH@Z 00000001400a3f10 f i libcpmtd:wlocale.obj
 0001:000a3080       ?_Ffmt@?$num_put@_WV?$ostreambuf_iterator@_WU?$char_traits@_W@std@@@std@@@std@@AEBAPEADPEADDH@Z 00000001400a4080 f i libcpmtd:wlocale.obj
 0001:000a31f0       ?_Fnv1a_append_bytes@std@@YA_K_KQEBE_K@Z 00000001400a41f0 f i libcpmtd:wlocale.obj
 0001:000a3270       ?_Fput@?$num_put@GV?$ostreambuf_iterator@GU?$char_traits@G@std@@@std@@@std@@AEBA?AV?$ostreambuf_iterator@GU?$char_traits@G@std@@@2@V32@AEAVios_base@2@GPEBD_K@Z 00000001400a4270 f i libcpmtd:wlocale.obj
 0001:000a3ab0       ?_Fput@?$num_put@_WV?$ostreambuf_iterator@_WU?$char_traits@_W@std@@@std@@@std@@AEBA?AV?$ostreambuf_iterator@_WU?$char_traits@_W@std@@@2@V32@AEAVios_base@2@_WPEBD_K@Z 00000001400a4ab0 f i libcpmtd:wlocale.obj
 0001:000a42f0       ?_Get_first@?$_Compressed_pair@V?$allocator@G@std@@V?$_String_val@U?$_Simple_types@G@std@@@2@$00@std@@QEAAAEAV?$allocator@G@2@XZ 00000001400a52f0 f i libcpmtd:wlocale.obj
 0001:000a4300       ?_Get_first@?$_Compressed_pair@V?$allocator@G@std@@V?$_String_val@U?$_Simple_types@G@std@@@2@$00@std@@QEBAAEBV?$allocator@G@2@XZ 00000001400a5300 f i libcpmtd:wlocale.obj
 0001:000a4310       ?_Get_first@?$_Compressed_pair@V?$allocator@_W@std@@V?$_String_val@U?$_Simple_types@_W@std@@@2@$00@std@@QEAAAEAV?$allocator@_W@2@XZ 00000001400a5310 f i libcpmtd:wlocale.obj
 0001:000a4320       ?_Get_first@?$_Compressed_pair@V?$allocator@_W@std@@V?$_String_val@U?$_Simple_types@_W@std@@@2@$00@std@@QEBAAEBV?$allocator@_W@2@XZ 00000001400a5320 f i libcpmtd:wlocale.obj
 0001:000a4330       ?_Getal@?$basic_string@GU?$char_traits@G@std@@V?$allocator@G@2@@std@@AEAAAEAV?$allocator@G@2@XZ 00000001400a5330 f i libcpmtd:wlocale.obj
 0001:000a4350       ?_Getal@?$basic_string@GU?$char_traits@G@std@@V?$allocator@G@2@@std@@AEBAAEBV?$allocator@G@2@XZ 00000001400a5350 f i libcpmtd:wlocale.obj
 0001:000a4370       ?_Getal@?$basic_string@_WU?$char_traits@_W@std@@V?$allocator@_W@2@@std@@AEAAAEAV?$allocator@_W@2@XZ 00000001400a5370 f i libcpmtd:wlocale.obj
 0001:000a4390       ?_Getal@?$basic_string@_WU?$char_traits@_W@std@@V?$allocator@_W@2@@std@@AEBAAEBV?$allocator@_W@2@XZ 00000001400a5390 f i libcpmtd:wlocale.obj
 0001:000a43b0       ?_Getcat@?$codecvt@GDU_Mbstatet@@@std@@SA_KPEAPEBVfacet@locale@2@PEBV42@@Z 00000001400a53b0 f i libcpmtd:wlocale.obj
 0001:000a44b0       ?_Getcat@?$codecvt@_WDU_Mbstatet@@@std@@SA_KPEAPEBVfacet@locale@2@PEBV42@@Z 00000001400a54b0 f i libcpmtd:wlocale.obj
 0001:000a45b0       ?_Getcat@?$collate@G@std@@SA_KPEAPEBVfacet@locale@2@PEBV42@@Z 00000001400a55b0 f i libcpmtd:wlocale.obj
 0001:000a4720       ?_Getcat@?$collate@_W@std@@SA_KPEAPEBVfacet@locale@2@PEBV42@@Z 00000001400a5720 f i libcpmtd:wlocale.obj
 0001:000a4890       ?_Getcat@?$ctype@G@std@@SA_KPEAPEBVfacet@locale@2@PEBV42@@Z 00000001400a5890 f i libcpmtd:wlocale.obj
 0001:000a4990       ?_Getcat@?$ctype@_W@std@@SA_KPEAPEBVfacet@locale@2@PEBV42@@Z 00000001400a5990 f i libcpmtd:wlocale.obj
 0001:000a4a90       ?_Getcat@?$messages@G@std@@SA_KPEAPEBVfacet@locale@2@PEBV42@@Z 00000001400a5a90 f i libcpmtd:wlocale.obj
 0001:000a4b90       ?_Getcat@?$messages@_W@std@@SA_KPEAPEBVfacet@locale@2@PEBV42@@Z 00000001400a5b90 f i libcpmtd:wlocale.obj
 0001:000a4c90       ?_Getcat@?$money_get@GV?$istreambuf_iterator@GU?$char_traits@G@std@@@std@@@std@@SA_KPEAPEBVfacet@locale@2@PEBV42@@Z 00000001400a5c90 f i libcpmtd:wlocale.obj
 0001:000a4d90       ?_Getcat@?$money_get@_WV?$istreambuf_iterator@_WU?$char_traits@_W@std@@@std@@@std@@SA_KPEAPEBVfacet@locale@2@PEBV42@@Z 00000001400a5d90 f i libcpmtd:wlocale.obj
 0001:000a4e90       ?_Getcat@?$money_put@GV?$ostreambuf_iterator@GU?$char_traits@G@std@@@std@@@std@@SA_KPEAPEBVfacet@locale@2@PEBV42@@Z 00000001400a5e90 f i libcpmtd:wlocale.obj
 0001:000a4f90       ?_Getcat@?$money_put@_WV?$ostreambuf_iterator@_WU?$char_traits@_W@std@@@std@@@std@@SA_KPEAPEBVfacet@locale@2@PEBV42@@Z 00000001400a5f90 f i libcpmtd:wlocale.obj
 0001:000a5090       ?_Getcat@?$moneypunct@G$00@std@@SA_KPEAPEBVfacet@locale@2@PEBV42@@Z 00000001400a6090 f i libcpmtd:wlocale.obj
 0001:000a5190       ?_Getcat@?$moneypunct@G$0A@@std@@SA_KPEAPEBVfacet@locale@2@PEBV42@@Z 00000001400a6190 f i libcpmtd:wlocale.obj
 0001:000a5290       ?_Getcat@?$moneypunct@_W$00@std@@SA_KPEAPEBVfacet@locale@2@PEBV42@@Z 00000001400a6290 f i libcpmtd:wlocale.obj
 0001:000a5390       ?_Getcat@?$moneypunct@_W$0A@@std@@SA_KPEAPEBVfacet@locale@2@PEBV42@@Z 00000001400a6390 f i libcpmtd:wlocale.obj
 0001:000a5490       ?_Getcat@?$num_get@GV?$istreambuf_iterator@GU?$char_traits@G@std@@@std@@@std@@SA_KPEAPEBVfacet@locale@2@PEBV42@@Z 00000001400a6490 f i libcpmtd:wlocale.obj
 0001:000a5590       ?_Getcat@?$num_get@_WV?$istreambuf_iterator@_WU?$char_traits@_W@std@@@std@@@std@@SA_KPEAPEBVfacet@locale@2@PEBV42@@Z 00000001400a6590 f i libcpmtd:wlocale.obj
 0001:000a5690       ?_Getcat@?$num_put@GV?$ostreambuf_iterator@GU?$char_traits@G@std@@@std@@@std@@SA_KPEAPEBVfacet@locale@2@PEBV42@@Z 00000001400a6690 f i libcpmtd:wlocale.obj
 0001:000a5790       ?_Getcat@?$num_put@_WV?$ostreambuf_iterator@_WU?$char_traits@_W@std@@@std@@@std@@SA_KPEAPEBVfacet@locale@2@PEBV42@@Z 00000001400a6790 f i libcpmtd:wlocale.obj
 0001:000a5890       ?_Getcat@?$numpunct@G@std@@SA_KPEAPEBVfacet@locale@2@PEBV42@@Z 00000001400a6890 f i libcpmtd:wlocale.obj
 0001:000a5990       ?_Getcat@?$numpunct@_W@std@@SA_KPEAPEBVfacet@locale@2@PEBV42@@Z 00000001400a6990 f i libcpmtd:wlocale.obj
 0001:000a5a90       ?_Getcat@?$time_get@GV?$istreambuf_iterator@GU?$char_traits@G@std@@@std@@@std@@SA_KPEAPEBVfacet@locale@2@PEBV42@@Z 00000001400a6a90 f i libcpmtd:wlocale.obj
 0001:000a5b90       ?_Getcat@?$time_get@_WV?$istreambuf_iterator@_WU?$char_traits@_W@std@@@std@@@std@@SA_KPEAPEBVfacet@locale@2@PEBV42@@Z 00000001400a6b90 f i libcpmtd:wlocale.obj
 0001:000a5c90       ?_Getcat@?$time_put@GV?$ostreambuf_iterator@GU?$char_traits@G@std@@@std@@@std@@SA_KPEAPEBVfacet@locale@2@PEBV42@@Z 00000001400a6c90 f i libcpmtd:wlocale.obj
 0001:000a5d90       ?_Getcat@?$time_put@_WV?$ostreambuf_iterator@_WU?$char_traits@_W@std@@@std@@@std@@SA_KPEAPEBVfacet@locale@2@PEBV42@@Z 00000001400a6d90 f i libcpmtd:wlocale.obj
 0001:000a5e90       ?_Getcoll@_Locinfo@std@@QEBA?AU_Collvec@@XZ 00000001400a6e90 f i libcpmtd:wlocale.obj
 0001:000a5ee0       ?_Getcont@_Iterator_base12@std@@QEBAPEBU_Container_base12@2@XZ 00000001400a6ee0 f i libcpmtd:wlocale.obj
 0001:000a5f20       ?_Getdateorder@_Locinfo@std@@QEBAHXZ 00000001400a6f20 f i libcpmtd:wlocale.obj
 0001:000a5f40       ?_Getdays@_Locinfo@std@@QEBAPEBDXZ 00000001400a6f40 f i libcpmtd:wlocale.obj
 0001:000a5fd0       ?_Getffld@?$num_get@GV?$istreambuf_iterator@GU?$char_traits@G@std@@@std@@@std@@AEBAHPEADAEAV?$istreambuf_iterator@GU?$char_traits@G@std@@@2@1AEAVios_base@2@PEAH@Z 00000001400a6fd0 f i libcpmtd:wlocale.obj
 0001:000a6bb0       ?_Getffld@?$num_get@_WV?$istreambuf_iterator@_WU?$char_traits@_W@std@@@std@@@std@@AEBAHPEADAEAV?$istreambuf_iterator@_WU?$char_traits@_W@std@@@2@1AEAVios_base@2@PEAH@Z 00000001400a7bb0 f i libcpmtd:wlocale.obj
 0001:000a7790       ?_Getffldx@?$num_get@GV?$istreambuf_iterator@GU?$char_traits@G@std@@@std@@@std@@AEBAHPEADAEAV?$istreambuf_iterator@GU?$char_traits@G@std@@@2@1AEAVios_base@2@PEAH@Z 00000001400a8790 f i libcpmtd:wlocale.obj
 0001:000a8310       ?_Getffldx@?$num_get@_WV?$istreambuf_iterator@_WU?$char_traits@_W@std@@@std@@@std@@AEBAHPEADAEAV?$istreambuf_iterator@_WU?$char_traits@_W@std@@@2@1AEAVios_base@2@PEAH@Z 00000001400a9310 f i libcpmtd:wlocale.obj
 0001:000a8e90       ?_Getfmt@?$time_get@GV?$istreambuf_iterator@GU?$char_traits@G@std@@@std@@@std@@IEBA?AV?$istreambuf_iterator@GU?$char_traits@G@std@@@2@V32@0AEAVios_base@2@AEAHPEAUtm@@PEBD@Z 00000001400a9e90 f i libcpmtd:wlocale.obj
 0001:000a9120       ?_Getfmt@?$time_get@_WV?$istreambuf_iterator@_WU?$char_traits@_W@std@@@std@@@std@@IEBA?AV?$istreambuf_iterator@_WU?$char_traits@_W@std@@@2@V32@0AEAVios_base@2@AEAHPEAUtm@@PEBD@Z 00000001400aa120 f i libcpmtd:wlocale.obj
 0001:000a93b0       ?_Getifld@?$num_get@GV?$istreambuf_iterator@GU?$char_traits@G@std@@@std@@@std@@AEBAHPEADAEAV?$istreambuf_iterator@GU?$char_traits@G@std@@@2@1HAEBVlocale@2@@Z 00000001400aa3b0 f i libcpmtd:wlocale.obj
 0001:000a9a50       ?_Getifld@?$num_get@_WV?$istreambuf_iterator@_WU?$char_traits@_W@std@@@std@@@std@@AEBAHPEADAEAV?$istreambuf_iterator@_WU?$char_traits@_W@std@@@2@1HAEBVlocale@2@@Z 00000001400aaa50 f i libcpmtd:wlocale.obj
 0001:000aa0f0       ?_Getint@?$time_get@GV?$istreambuf_iterator@GU?$char_traits@G@std@@@std@@@std@@AEBAHAEAV?$istreambuf_iterator@GU?$char_traits@G@std@@@2@0HHAEAHAEBV?$ctype@G@2@@Z 00000001400ab0f0 f i libcpmtd:wlocale.obj
 0001:000aa3c0       ?_Getint@?$time_get@_WV?$istreambuf_iterator@_WU?$char_traits@_W@std@@@std@@@std@@AEBAHAEAV?$istreambuf_iterator@_WU?$char_traits@_W@std@@@2@0HHAEAHAEBV?$ctype@_W@2@@Z 00000001400ab3c0 f i libcpmtd:wlocale.obj
 0001:000aa690       ?_Getmfld@?$money_get@GV?$istreambuf_iterator@GU?$char_traits@G@std@@@std@@@std@@AEBA?AV?$basic_string@DU?$char_traits@D@std@@V?$allocator@D@2@@2@AEAV?$istreambuf_iterator@GU?$char_traits@G@std@@@2@0_NAEAVios_base@2@AEAY0M@G@Z 00000001400ab690 f i libcpmtd:wlocale.obj
 0001:000ab780       ?_Getmfld@?$money_get@_WV?$istreambuf_iterator@_WU?$char_traits@_W@std@@@std@@@std@@AEBA?AV?$basic_string@DU?$char_traits@D@std@@V?$allocator@D@2@@2@AEAV?$istreambuf_iterator@_WU?$char_traits@_W@std@@@2@0_NAEAVios_base@2@AEAY0M@_W@Z 00000001400ac780 f i libcpmtd:wlocale.obj
 0001:000ac870       ?_Getmonths@_Locinfo@std@@QEBAPEBDXZ 00000001400ad870 f i libcpmtd:wlocale.obj
 0001:000ac900       ?_Getptr@_Timevec@std@@QEBAPEAXXZ 00000001400ad900 f i libcpmtd:wlocale.obj
 0001:000ac910       ?_Getvals@?$_Mpunct@_W@std@@IEAAX_WPEBUlconv@@@Z 00000001400ad910 f i libcpmtd:wlocale.obj
 0001:000aca30       ?_Getvals@?$numpunct@_W@std@@IEAAX_WPEBUlconv@@U_Cvtvec@@@Z 00000001400ada30 f i libcpmtd:wlocale.obj
 0001:000aca90       ?_Gnavail@?$basic_streambuf@GU?$char_traits@G@std@@@std@@IEBA_JXZ 00000001400ada90 f i libcpmtd:wlocale.obj
 0001:000acad0       ?_Gnavail@?$basic_streambuf@_WU?$char_traits@_W@std@@@std@@IEBA_JXZ 00000001400adad0 f i libcpmtd:wlocale.obj
 0001:000acb10       ?_Gninc@?$basic_streambuf@GU?$char_traits@G@std@@@std@@IEAAPEAGXZ 00000001400adb10 f i libcpmtd:wlocale.obj
 0001:000acb70       ?_Gninc@?$basic_streambuf@_WU?$char_traits@_W@std@@@std@@IEAAPEA_WXZ 00000001400adb70 f i libcpmtd:wlocale.obj
 0001:000acbd0       ?_Ifmt@?$num_put@GV?$ostreambuf_iterator@GU?$char_traits@G@std@@@std@@@std@@AEBAPEADPEADPEBDH@Z 00000001400adbd0 f i libcpmtd:wlocale.obj
 0001:000acd60       ?_Ifmt@?$num_put@_WV?$ostreambuf_iterator@_WU?$char_traits@_W@std@@@std@@@std@@AEBAPEADPEADPEBDH@Z 00000001400add60 f i libcpmtd:wlocale.obj
 0001:000acef0       ?_Inc@?$istreambuf_iterator@GU?$char_traits@G@std@@@std@@AEAAXXZ 00000001400adef0 f i libcpmtd:wlocale.obj
 0001:000acf60       ?_Inc@?$istreambuf_iterator@_WU?$char_traits@_W@std@@@std@@AEAAXXZ 00000001400adf60 f i libcpmtd:wlocale.obj
 0001:000acfd0       ?_Init@?$_Mpunct@G@std@@IEAAXAEBV_Locinfo@2@_N@Z 00000001400adfd0 f i libcpmtd:wlocale.obj
 0001:000ad220       ?_Init@?$_Mpunct@_W@std@@IEAAXAEBV_Locinfo@2@_N@Z 00000001400ae220 f i libcpmtd:wlocale.obj
 0001:000ad470       ?_Init@?$codecvt@GDU_Mbstatet@@@std@@IEAAXAEBV_Locinfo@2@@Z 00000001400ae470 f i libcpmtd:wlocale.obj
 0001:000ad4d0       ?_Init@?$codecvt@_WDU_Mbstatet@@@std@@IEAAXAEBV_Locinfo@2@@Z 00000001400ae4d0 f i libcpmtd:wlocale.obj
 0001:000ad530       ?_Init@?$collate@G@std@@IEAAXAEBV_Locinfo@2@@Z 00000001400ae530 f i libcpmtd:wlocale.obj
 0001:000ad570       ?_Init@?$collate@_W@std@@IEAAXAEBV_Locinfo@2@@Z 00000001400ae570 f i libcpmtd:wlocale.obj
 0001:000ad5b0       ?_Init@?$ctype@G@std@@IEAAXAEBV_Locinfo@2@@Z 00000001400ae5b0 f i libcpmtd:wlocale.obj
 0001:000ad640       ?_Init@?$ctype@_W@std@@IEAAXAEBV_Locinfo@2@@Z 00000001400ae640 f i libcpmtd:wlocale.obj
 0001:000ad6d0       ?_Init@?$messages@G@std@@IEAAXAEBV_Locinfo@2@@Z 00000001400ae6d0 f i libcpmtd:wlocale.obj
 0001:000ad6e0       ?_Init@?$messages@_W@std@@IEAAXAEBV_Locinfo@2@@Z 00000001400ae6e0 f i libcpmtd:wlocale.obj
 0001:000ad6f0       ?_Init@?$money_get@GV?$istreambuf_iterator@GU?$char_traits@G@std@@@std@@@std@@IEAAXAEBV_Locinfo@2@@Z 00000001400ae6f0 f i libcpmtd:wlocale.obj
 0001:000ad700       ?_Init@?$money_get@_WV?$istreambuf_iterator@_WU?$char_traits@_W@std@@@std@@@std@@IEAAXAEBV_Locinfo@2@@Z 00000001400ae700 f i libcpmtd:wlocale.obj
 0001:000ad710       ?_Init@?$money_put@GV?$ostreambuf_iterator@GU?$char_traits@G@std@@@std@@@std@@IEAAXAEBV_Locinfo@2@@Z 00000001400ae710 f i libcpmtd:wlocale.obj
 0001:000ad720       ?_Init@?$money_put@_WV?$ostreambuf_iterator@_WU?$char_traits@_W@std@@@std@@@std@@IEAAXAEBV_Locinfo@2@@Z 00000001400ae720 f i libcpmtd:wlocale.obj
 0001:000ad730       ?_Init@?$num_get@GV?$istreambuf_iterator@GU?$char_traits@G@std@@@std@@@std@@IEAAXAEBV_Locinfo@2@@Z 00000001400ae730 f i libcpmtd:wlocale.obj
 0001:000ad740       ?_Init@?$num_get@_WV?$istreambuf_iterator@_WU?$char_traits@_W@std@@@std@@@std@@IEAAXAEBV_Locinfo@2@@Z 00000001400ae740 f i libcpmtd:wlocale.obj
 0001:000ad750       ?_Init@?$num_put@GV?$ostreambuf_iterator@GU?$char_traits@G@std@@@std@@@std@@IEAAXAEBV_Locinfo@2@@Z 00000001400ae750 f i libcpmtd:wlocale.obj
 0001:000ad760       ?_Init@?$num_put@_WV?$ostreambuf_iterator@_WU?$char_traits@_W@std@@@std@@@std@@IEAAXAEBV_Locinfo@2@@Z 00000001400ae760 f i libcpmtd:wlocale.obj
 0001:000ad770       ?_Init@?$numpunct@G@std@@IEAAXAEBV_Locinfo@2@_N@Z 00000001400ae770 f i libcpmtd:wlocale.obj
 0001:000ad950       ?_Init@?$numpunct@_W@std@@IEAAXAEBV_Locinfo@2@_N@Z 00000001400ae950 f i libcpmtd:wlocale.obj
 0001:000adb30       ?_Init@?$time_get@GV?$istreambuf_iterator@GU?$char_traits@G@std@@@std@@@std@@IEAAXAEBV_Locinfo@2@@Z 00000001400aeb30 f i libcpmtd:wlocale.obj
 0001:000adbb0       ?_Init@?$time_get@_WV?$istreambuf_iterator@_WU?$char_traits@_W@std@@@std@@@std@@IEAAXAEBV_Locinfo@2@@Z 00000001400aebb0 f i libcpmtd:wlocale.obj
 0001:000adc30       ?_Init@?$time_put@GV?$ostreambuf_iterator@GU?$char_traits@G@std@@@std@@@std@@IEAAXAEBV_Locinfo@2@@Z 00000001400aec30 f i libcpmtd:wlocale.obj
 0001:000adc90       ?_Init@?$time_put@_WV?$ostreambuf_iterator@_WU?$char_traits@_W@std@@@std@@@std@@IEAAXAEBV_Locinfo@2@@Z 00000001400aec90 f i libcpmtd:wlocale.obj
 0001:000adcf0       ?_Iput@?$num_put@GV?$ostreambuf_iterator@GU?$char_traits@G@std@@@std@@@std@@AEBA?AV?$ostreambuf_iterator@GU?$char_traits@G@std@@@2@V32@AEAVios_base@2@GPEAD_K@Z 00000001400aecf0 f i libcpmtd:wlocale.obj
 0001:000ae430       ?_Iput@?$num_put@_WV?$ostreambuf_iterator@_WU?$char_traits@_W@std@@@std@@@std@@AEBA?AV?$ostreambuf_iterator@_WU?$char_traits@_W@std@@@2@V32@AEAVios_base@2@_WPEAD_K@Z 00000001400af430 f i libcpmtd:wlocale.obj
 0001:000aeb70       ?_Large_string_engaged@?$_String_val@U?$_Simple_types@G@std@@@std@@QEBA_NXZ 00000001400afb70 f i libcpmtd:wlocale.obj
 0001:000aeba0       ?_Large_string_engaged@?$_String_val@U?$_Simple_types@_W@std@@@std@@QEBA_NXZ 00000001400afba0 f i libcpmtd:wlocale.obj
 0001:000aebd0       ?_Makeushloc@_Locimp@locale@std@@CAXAEBV_Locinfo@3@HPEAV123@PEBV23@@Z 00000001400afbd0 f   libcpmtd:wlocale.obj
 0001:000afa70       ?_Makewloc@_Locimp@locale@std@@CAXAEBV_Locinfo@3@HPEAV123@PEBV23@@Z 00000001400b0a70 f   libcpmtd:wlocale.obj
 0001:000b0910       ?_Maklocwcs@std@@YAPEA_WPEB_W@Z 00000001400b1910 f i libcpmtd:wlocale.obj
 0001:000b0980       ?_Makpat@?$_Mpunct@G@std@@AEAAXAEAUpattern@money_base@2@III@Z 00000001400b1980 f i libcpmtd:wlocale.obj
 0001:000b0a20       ?_Makpat@?$_Mpunct@_W@std@@AEAAXAEAUpattern@money_base@2@III@Z 00000001400b1a20 f i libcpmtd:wlocale.obj
 0001:000b0ac0       ?_Memcpy_val_from@?$basic_string@GU?$char_traits@G@std@@V?$allocator@G@2@@std@@AEAAXAEBV12@@Z 00000001400b1ac0 f i libcpmtd:wlocale.obj
 0001:000b0b20       ?_Memcpy_val_from@?$basic_string@_WU?$char_traits@_W@std@@V?$allocator@_W@2@@std@@AEAAXAEBV12@@Z 00000001400b1b20 f i libcpmtd:wlocale.obj
 0001:000b0b80       ?_Move_assign@?$basic_string@GU?$char_traits@G@std@@V?$allocator@G@2@@std@@AEAAXAEAV12@U_Equal_allocators@2@@Z 00000001400b1b80 f i libcpmtd:wlocale.obj
 0001:000b0c00       ?_Myptr@?$_String_val@U?$_Simple_types@G@std@@@std@@QEAAPEAGXZ 00000001400b1c00 f i libcpmtd:wlocale.obj
 0001:000b0c50       ?_Myptr@?$_String_val@U?$_Simple_types@G@std@@@std@@QEBAPEBGXZ 00000001400b1c50 f i libcpmtd:wlocale.obj
 0001:000b0ca0       ?_Peek@?$istreambuf_iterator@GU?$char_traits@G@std@@@std@@AEBAGXZ 00000001400b1ca0 f i libcpmtd:wlocale.obj
 0001:000b0d20       ?_Peek@?$istreambuf_iterator@_WU?$char_traits@_W@std@@@std@@AEBA_WXZ 00000001400b1d20 f i libcpmtd:wlocale.obj
 0001:000b0da0       ?_Pnavail@?$basic_streambuf@GU?$char_traits@G@std@@@std@@IEBA_JXZ 00000001400b1da0 f i libcpmtd:wlocale.obj
 0001:000b0de0       ?_Pnavail@?$basic_streambuf@_WU?$char_traits@_W@std@@@std@@IEBA_JXZ 00000001400b1de0 f i libcpmtd:wlocale.obj
 0001:000b0e20       ?_Pninc@?$basic_streambuf@GU?$char_traits@G@std@@@std@@IEAAPEAGXZ 00000001400b1e20 f i libcpmtd:wlocale.obj
 0001:000b0e80       ?_Pninc@?$basic_streambuf@_WU?$char_traits@_W@std@@@std@@IEAAPEA_WXZ 00000001400b1e80 f i libcpmtd:wlocale.obj
 0001:000b0ee0       ?_Put@?$money_put@GV?$ostreambuf_iterator@GU?$char_traits@G@std@@@std@@@std@@CA?AV?$ostreambuf_iterator@GU?$char_traits@G@std@@@2@V32@V?$_String_const_iterator@V?$_String_val@U?$_Simple_types@G@std@@@std@@@2@_K@Z 00000001400b1ee0 f i libcpmtd:wlocale.obj
 0001:000b0f80       ?_Put@?$money_put@_WV?$ostreambuf_iterator@_WU?$char_traits@_W@std@@@std@@@std@@CA?AV?$ostreambuf_iterator@_WU?$char_traits@_W@std@@@2@V32@V?$_String_const_iterator@V?$_String_val@U?$_Simple_types@_W@std@@@std@@@2@_K@Z 00000001400b1f80 f i libcpmtd:wlocale.obj
 0001:000b1020       ?_Put@?$num_put@GV?$ostreambuf_iterator@GU?$char_traits@G@std@@@std@@@std@@AEBA?AV?$ostreambuf_iterator@GU?$char_traits@G@std@@@2@V32@PEBG_K@Z 00000001400b2020 f i libcpmtd:wlocale.obj
 0001:000b10b0       ?_Put@?$num_put@_WV?$ostreambuf_iterator@_WU?$char_traits@_W@std@@@std@@@std@@AEBA?AV?$ostreambuf_iterator@_WU?$char_traits@_W@std@@@2@V32@PEB_W_K@Z 00000001400b20b0 f i libcpmtd:wlocale.obj
 0001:000b1140       ?_Putmfld@?$money_put@GV?$ostreambuf_iterator@GU?$char_traits@G@std@@@std@@@std@@AEBA?AV?$ostreambuf_iterator@GU?$char_traits@G@std@@@2@V32@_NAEAVios_base@2@G1V?$basic_string@GU?$char_traits@G@std@@V?$allocator@G@2@@2@G@Z 00000001400b2140 f i libcpmtd:wlocale.obj
 0001:000b2270       ?_Putmfld@?$money_put@_WV?$ostreambuf_iterator@_WU?$char_traits@_W@std@@@std@@@std@@AEBA?AV?$ostreambuf_iterator@_WU?$char_traits@_W@std@@@2@V32@_NAEAVios_base@2@_W1V?$basic_string@_WU?$char_traits@_W@std@@V?$allocator@_W@2@@2@3@Z 00000001400b3270 f i libcpmtd:wlocale.obj
 0001:000b33a0       ?_Rep@?$money_put@GV?$ostreambuf_iterator@GU?$char_traits@G@std@@@std@@@std@@CA?AV?$ostreambuf_iterator@GU?$char_traits@G@std@@@2@V32@G_K@Z 00000001400b43a0 f i libcpmtd:wlocale.obj
 0001:000b3420       ?_Rep@?$money_put@_WV?$ostreambuf_iterator@_WU?$char_traits@_W@std@@@std@@@std@@CA?AV?$ostreambuf_iterator@_WU?$char_traits@_W@std@@@2@V32@_W_K@Z 00000001400b4420 f i libcpmtd:wlocale.obj
 0001:000b34a0       ?_Rep@?$num_put@GV?$ostreambuf_iterator@GU?$char_traits@G@std@@@std@@@std@@AEBA?AV?$ostreambuf_iterator@GU?$char_traits@G@std@@@2@V32@G_K@Z 00000001400b44a0 f i libcpmtd:wlocale.obj
 0001:000b3520       ?_Rep@?$num_put@_WV?$ostreambuf_iterator@_WU?$char_traits@_W@std@@@std@@@std@@AEBA?AV?$ostreambuf_iterator@_WU?$char_traits@_W@std@@@2@V32@_W_K@Z 00000001400b4520 f i libcpmtd:wlocale.obj
 0001:000b35a0       ?_Swap_proxy_and_iterators@?$basic_string@GU?$char_traits@G@std@@V?$allocator@G@2@@std@@AEAAXAEAV12@@Z 00000001400b45a0 f i libcpmtd:wlocale.obj
 0001:000b35d0       ?_Swap_proxy_and_iterators@?$basic_string@_WU?$char_traits@_W@std@@V?$allocator@_W@2@@std@@AEAAXAEAV12@@Z 00000001400b45d0 f i libcpmtd:wlocale.obj
 0001:000b3600       ?_Take_contents@?$basic_string@GU?$char_traits@G@std@@V?$allocator@G@2@@std@@AEAAXAEAV12@U?$integral_constant@_N$00@2@@Z 00000001400b4600 f i libcpmtd:wlocale.obj
 0001:000b3670       ?_Tidy@?$_Mpunct@G@std@@AEAAXXZ 00000001400b4670 f i libcpmtd:wlocale.obj
 0001:000b36c0       ?_Tidy@?$_Mpunct@_W@std@@AEAAXXZ 00000001400b46c0 f i libcpmtd:wlocale.obj
 0001:000b3710       ?_Tidy@?$numpunct@G@std@@AEAAXXZ 00000001400b4710 f i libcpmtd:wlocale.obj
 0001:000b3750       ?_Tidy@?$numpunct@_W@std@@AEAAXXZ 00000001400b4750 f i libcpmtd:wlocale.obj
 0001:000b3790       ?_Tidy@?$time_get@GV?$istreambuf_iterator@GU?$char_traits@G@std@@@std@@@std@@AEAAXXZ 00000001400b4790 f i libcpmtd:wlocale.obj
 0001:000b37d0       ?_Tidy@?$time_get@_WV?$istreambuf_iterator@_WU?$char_traits@_W@std@@@std@@@std@@AEAAXXZ 00000001400b47d0 f i libcpmtd:wlocale.obj
 0001:000b3810       ?_Tidy_deallocate@?$basic_string@GU?$char_traits@G@std@@V?$allocator@G@2@@std@@AEAAXXZ 00000001400b4810 f i libcpmtd:wlocale.obj
 0001:000b38d0       ?_Tidy_init@?$basic_string@GU?$char_traits@G@std@@V?$allocator@G@2@@std@@AEAAXXZ 00000001400b48d0 f i libcpmtd:wlocale.obj
 0001:000b3920       ?_Tidy_init@?$basic_string@_WU?$char_traits@_W@std@@V?$allocator@_W@2@@std@@AEAAXXZ 00000001400b4920 f i libcpmtd:wlocale.obj
 0001:000b3970       ?_Verify_offset@?$_String_const_iterator@V?$_String_val@U?$_Simple_types@G@std@@@std@@@std@@QEBAX_J@Z 00000001400b4970 f i libcpmtd:wlocale.obj
 0001:000b3c10       ?_W_Getdays@_Locinfo@std@@QEBAPEBGXZ 00000001400b4c10 f i libcpmtd:wlocale.obj
 0001:000b3ca0       ?_W_Getmonths@_Locinfo@std@@QEBAPEBGXZ 00000001400b4ca0 f i libcpmtd:wlocale.obj
 0001:000b3d30       ?_W_Gettnames@_Locinfo@std@@QEBA?AV_Timevec@2@XZ 00000001400b4d30 f i libcpmtd:wlocale.obj
 0001:000b3d70       ?_Xran@?$_String_val@U?$_Simple_types@G@std@@@std@@SAXXZ 00000001400b4d70 f i libcpmtd:wlocale.obj
 0001:000b3d90       ?allocate@?$allocator@G@std@@QEAAPEAG_K@Z 00000001400b4d90 f i libcpmtd:wlocale.obj
 0001:000b3dc0       ?allocate@?$allocator@_W@std@@QEAAPEA_W_K@Z 00000001400b4dc0 f i libcpmtd:wlocale.obj
 0001:000b3df0       ?append@?$basic_string@GU?$char_traits@G@std@@V?$allocator@G@2@@std@@QEAAAEAV12@AEBV12@@Z 00000001400b4df0 f i libcpmtd:wlocale.obj
 0001:000b3e40       ?append@?$basic_string@GU?$char_traits@G@std@@V?$allocator@G@2@@std@@QEAAAEAV12@QEBG_K@Z 00000001400b4e40 f i libcpmtd:wlocale.obj
 0001:000b3f30       ?append@?$basic_string@GU?$char_traits@G@std@@V?$allocator@G@2@@std@@QEAAAEAV12@_KG@Z 00000001400b4f30 f i libcpmtd:wlocale.obj
 0001:000b4020       ?assign@?$_Char_traits@GG@std@@SAPEAGQEAG_KG@Z 00000001400b5020 f i libcpmtd:wlocale.obj
 0001:000b4080       ?assign@?$_Char_traits@_WG@std@@SAPEA_WQEA_W_K_W@Z 00000001400b5080 f i libcpmtd:wlocale.obj
 0001:000b40e0       ?assign@?$_WChar_traits@G@std@@SAPEAGQEAG_KG@Z 00000001400b50e0 f i libcpmtd:wlocale.obj
 0001:000b4130       ?assign@?$_WChar_traits@G@std@@SAXAEAGAEBG@Z 00000001400b5130 f i libcpmtd:wlocale.obj
 0001:000b4150       ?assign@?$_WChar_traits@_W@std@@SAPEA_WQEA_W_K_W@Z 00000001400b5150 f i libcpmtd:wlocale.obj
 0001:000b41a0       ?assign@?$_WChar_traits@_W@std@@SAXAEA_WAEB_W@Z 00000001400b51a0 f i libcpmtd:wlocale.obj
 0001:000b41c0       ?assign@?$basic_string@GU?$char_traits@G@std@@V?$allocator@G@2@@std@@QEAAAEAV12@$$QEAV12@@Z 00000001400b51c0 f i libcpmtd:wlocale.obj
 0001:000b41f0       ?assign@?$basic_string@GU?$char_traits@G@std@@V?$allocator@G@2@@std@@QEAAAEAV12@QEBG@Z 00000001400b51f0 f i libcpmtd:wlocale.obj
 0001:000b4230       ?assign@?$basic_string@GU?$char_traits@G@std@@V?$allocator@G@2@@std@@QEAAAEAV12@QEBG_K@Z 00000001400b5230 f i libcpmtd:wlocale.obj
 0001:000b42d0       ?assign@?$basic_string@GU?$char_traits@G@std@@V?$allocator@G@2@@std@@QEAAAEAV12@_KG@Z 00000001400b52d0 f i libcpmtd:wlocale.obj
 0001:000b4380       ?assign@?$basic_string@_WU?$char_traits@_W@std@@V?$allocator@_W@2@@std@@QEAAAEAV12@$$QEAV12@@Z 00000001400b5380 f i libcpmtd:wlocale.obj
 0001:000b43b0       ?assign@?$basic_string@_WU?$char_traits@_W@std@@V?$allocator@_W@2@@std@@QEAAAEAV12@QEB_W@Z 00000001400b53b0 f i libcpmtd:wlocale.obj
 0001:000b43f0       ?assign@?$basic_string@_WU?$char_traits@_W@std@@V?$allocator@_W@2@@std@@QEAAAEAV12@_K_W@Z 00000001400b53f0 f i libcpmtd:wlocale.obj
 0001:000b44a0       ?begin@?$basic_string@GU?$char_traits@G@std@@V?$allocator@G@2@@std@@QEAA?AV?$_String_iterator@V?$_String_val@U?$_Simple_types@G@std@@@std@@@2@XZ 00000001400b54a0 f i libcpmtd:wlocale.obj
 0001:000b4500       ?c_str@?$basic_string@GU?$char_traits@G@std@@V?$allocator@G@2@@std@@QEBAPEBGXZ 00000001400b5500 f i libcpmtd:wlocale.obj
 0001:000b4520       ?c_str@?$basic_string@_WU?$char_traits@_W@std@@V?$allocator@_W@2@@std@@QEBAPEB_WXZ 00000001400b5520 f i libcpmtd:wlocale.obj
 0001:000b4540       ?copy@?$_Char_traits@GG@std@@SAPEAGQEAGQEBG_K@Z 00000001400b5540 f i libcpmtd:wlocale.obj
 0001:000b45d0       ?copy@?$_Char_traits@_WG@std@@SAPEA_WQEA_WQEB_W_K@Z 00000001400b55d0 f i libcpmtd:wlocale.obj
 0001:000b4660       ?curr_symbol@?$_Mpunct@G@std@@QEBA?AV?$basic_string@GU?$char_traits@G@std@@V?$allocator@G@2@@2@XZ 00000001400b5660 f i libcpmtd:wlocale.obj
 0001:000b46c0       ?curr_symbol@?$_Mpunct@_W@std@@QEBA?AV?$basic_string@_WU?$char_traits@_W@std@@V?$allocator@_W@2@@2@XZ 00000001400b56c0 f i libcpmtd:wlocale.obj
 0001:000b4720       ?date_order@?$time_get@GV?$istreambuf_iterator@GU?$char_traits@G@std@@@std@@@std@@QEBA?AW4dateorder@time_base@2@XZ 00000001400b5720 f i libcpmtd:wlocale.obj
 0001:000b4750       ?date_order@?$time_get@_WV?$istreambuf_iterator@_WU?$char_traits@_W@std@@@std@@@std@@QEBA?AW4dateorder@time_base@2@XZ 00000001400b5750 f i libcpmtd:wlocale.obj
 0001:000b4780       ?deallocate@?$allocator@_W@std@@QEAAXQEA_W_K@Z 00000001400b5780 f i libcpmtd:wlocale.obj
 0001:000b47b0       ?decimal_point@?$_Mpunct@G@std@@QEBAGXZ 00000001400b57b0 f i libcpmtd:wlocale.obj
 0001:000b47e0       ?decimal_point@?$_Mpunct@_W@std@@QEBA_WXZ 00000001400b57e0 f i libcpmtd:wlocale.obj
 0001:000b4810       ?decimal_point@?$numpunct@G@std@@QEBAGXZ 00000001400b5810 f i libcpmtd:wlocale.obj
 0001:000b4840       ?decimal_point@?$numpunct@_W@std@@QEBA_WXZ 00000001400b5840 f i libcpmtd:wlocale.obj
 0001:000b4870       ?do_always_noconv@?$codecvt@GDU_Mbstatet@@@std@@MEBA_NXZ 00000001400b5870 f i libcpmtd:wlocale.obj
 0001:000b4880       ?do_close@?$messages@G@std@@MEBAXH@Z 00000001400b5880 f i libcpmtd:wlocale.obj
 0001:000b4890       ?do_close@?$messages@_W@std@@MEBAXH@Z 00000001400b5890 f i libcpmtd:wlocale.obj
 0001:000b48a0       ?do_compare@?$collate@G@std@@MEBAHPEBG000@Z 00000001400b58a0 f i libcpmtd:wlocale.obj
 0001:000b4940       ?do_compare@?$collate@_W@std@@MEBAHPEB_W000@Z 00000001400b5940 f i libcpmtd:wlocale.obj
 0001:000b49e0       ?do_curr_symbol@?$_Mpunct@G@std@@MEBA?AV?$basic_string@GU?$char_traits@G@std@@V?$allocator@G@2@@2@XZ 00000001400b59e0 f i libcpmtd:wlocale.obj
 0001:000b4a20       ?do_curr_symbol@?$_Mpunct@_W@std@@MEBA?AV?$basic_string@_WU?$char_traits@_W@std@@V?$allocator@_W@2@@2@XZ 00000001400b5a20 f i libcpmtd:wlocale.obj
 0001:000b4a60       ?do_date_order@?$time_get@GV?$istreambuf_iterator@GU?$char_traits@G@std@@@std@@@std@@MEBA?AW4dateorder@time_base@2@XZ 00000001400b5a60 f i libcpmtd:wlocale.obj
 0001:000b4a70       ?do_date_order@?$time_get@_WV?$istreambuf_iterator@_WU?$char_traits@_W@std@@@std@@@std@@MEBA?AW4dateorder@time_base@2@XZ 00000001400b5a70 f i libcpmtd:wlocale.obj
 0001:000b4a80       ?do_decimal_point@?$_Mpunct@G@std@@MEBAGXZ 00000001400b5a80 f i libcpmtd:wlocale.obj
 0001:000b4a90       ?do_decimal_point@?$_Mpunct@_W@std@@MEBA_WXZ 00000001400b5a90 f i libcpmtd:wlocale.obj
 0001:000b4aa0       ?do_decimal_point@?$numpunct@G@std@@MEBAGXZ 00000001400b5aa0 f i libcpmtd:wlocale.obj
 0001:000b4ab0       ?do_decimal_point@?$numpunct@_W@std@@MEBA_WXZ 00000001400b5ab0 f i libcpmtd:wlocale.obj
 0001:000b4ac0       ?do_encoding@?$codecvt@GDU_Mbstatet@@@std@@MEBAHXZ 00000001400b5ac0 f i libcpmtd:wlocale.obj
 0001:000b4af0       ?do_falsename@?$numpunct@G@std@@MEBA?AV?$basic_string@GU?$char_traits@G@std@@V?$allocator@G@2@@2@XZ 00000001400b5af0 f i libcpmtd:wlocale.obj
 0001:000b4b30       ?do_falsename@?$numpunct@_W@std@@MEBA?AV?$basic_string@_WU?$char_traits@_W@std@@V?$allocator@_W@2@@2@XZ 00000001400b5b30 f i libcpmtd:wlocale.obj
 0001:000b4b70       ?do_frac_digits@?$_Mpunct@G@std@@MEBAHXZ 00000001400b5b70 f i libcpmtd:wlocale.obj
 0001:000b4b80       ?do_frac_digits@?$_Mpunct@_W@std@@MEBAHXZ 00000001400b5b80 f i libcpmtd:wlocale.obj
 0001:000b4b90       ?do_get@?$messages@G@std@@MEBA?AV?$basic_string@GU?$char_traits@G@std@@V?$allocator@G@2@@2@HHHAEBV32@@Z 00000001400b5b90 f i libcpmtd:wlocale.obj
 0001:000b4be0       ?do_get@?$messages@_W@std@@MEBA?AV?$basic_string@_WU?$char_traits@_W@std@@V?$allocator@_W@2@@2@HHHAEBV32@@Z 00000001400b5be0 f i libcpmtd:wlocale.obj
 0001:000b4c30       ?do_get@?$money_get@GV?$istreambuf_iterator@GU?$char_traits@G@std@@@std@@@std@@MEBA?AV?$istreambuf_iterator@GU?$char_traits@G@std@@@2@V32@0_NAEAVios_base@2@AEAHAEAO@Z 00000001400b5c30 f i libcpmtd:wlocale.obj
 0001:000b4dc0       ?do_get@?$money_get@GV?$istreambuf_iterator@GU?$char_traits@G@std@@@std@@@std@@MEBA?AV?$istreambuf_iterator@GU?$char_traits@G@std@@@2@V32@0_NAEAVios_base@2@AEAHAEAV?$basic_string@GU?$char_traits@G@std@@V?$allocator@G@2@@2@@Z 00000001400b5dc0 f i libcpmtd:wlocale.obj
 0001:000b4fc0       ?do_get@?$money_get@_WV?$istreambuf_iterator@_WU?$char_traits@_W@std@@@std@@@std@@MEBA?AV?$istreambuf_iterator@_WU?$char_traits@_W@std@@@2@V32@0_NAEAVios_base@2@AEAHAEAO@Z 00000001400b5fc0 f i libcpmtd:wlocale.obj
 0001:000b5150       ?do_get@?$money_get@_WV?$istreambuf_iterator@_WU?$char_traits@_W@std@@@std@@@std@@MEBA?AV?$istreambuf_iterator@_WU?$char_traits@_W@std@@@2@V32@0_NAEAVios_base@2@AEAHAEAV?$basic_string@_WU?$char_traits@_W@std@@V?$allocator@_W@2@@2@@Z 00000001400b6150 f i libcpmtd:wlocale.obj
 0001:000b5350       ?do_get@?$num_get@GV?$istreambuf_iterator@GU?$char_traits@G@std@@@std@@@std@@MEBA?AV?$istreambuf_iterator@GU?$char_traits@G@std@@@2@V32@0AEAVios_base@2@AEAHAEAG@Z 00000001400b6350 f i libcpmtd:wlocale.obj
 0001:000b55b0       ?do_get@?$num_get@GV?$istreambuf_iterator@GU?$char_traits@G@std@@@std@@@std@@MEBA?AV?$istreambuf_iterator@GU?$char_traits@G@std@@@2@V32@0AEAVios_base@2@AEAHAEAI@Z 00000001400b65b0 f i libcpmtd:wlocale.obj
 0001:000b5690       ?do_get@?$num_get@GV?$istreambuf_iterator@GU?$char_traits@G@std@@@std@@@std@@MEBA?AV?$istreambuf_iterator@GU?$char_traits@G@std@@@2@V32@0AEAVios_base@2@AEAHAEAJ@Z 00000001400b6690 f i libcpmtd:wlocale.obj
 0001:000b5860       ?do_get@?$num_get@GV?$istreambuf_iterator@GU?$char_traits@G@std@@@std@@@std@@MEBA?AV?$istreambuf_iterator@GU?$char_traits@G@std@@@2@V32@0AEAVios_base@2@AEAHAEAK@Z 00000001400b6860 f i libcpmtd:wlocale.obj
 0001:000b5a30       ?do_get@?$num_get@GV?$istreambuf_iterator@GU?$char_traits@G@std@@@std@@@std@@MEBA?AV?$istreambuf_iterator@GU?$char_traits@G@std@@@2@V32@0AEAVios_base@2@AEAHAEAM@Z 00000001400b6a30 f i libcpmtd:wlocale.obj
 0001:000b5bf0       ?do_get@?$num_get@GV?$istreambuf_iterator@GU?$char_traits@G@std@@@std@@@std@@MEBA?AV?$istreambuf_iterator@GU?$char_traits@G@std@@@2@V32@0AEAVios_base@2@AEAHAEAN@Z 00000001400b6bf0 f i libcpmtd:wlocale.obj
 0001:000b5db0       ?do_get@?$num_get@GV?$istreambuf_iterator@GU?$char_traits@G@std@@@std@@@std@@MEBA?AV?$istreambuf_iterator@GU?$char_traits@G@std@@@2@V32@0AEAVios_base@2@AEAHAEAO@Z 00000001400b6db0 f i libcpmtd:wlocale.obj
 0001:000b5e90       ?do_get@?$num_get@GV?$istreambuf_iterator@GU?$char_traits@G@std@@@std@@@std@@MEBA?AV?$istreambuf_iterator@GU?$char_traits@G@std@@@2@V32@0AEAVios_base@2@AEAHAEAPEAX@Z 00000001400b6e90 f i libcpmtd:wlocale.obj
 0001:000b6050       ?do_get@?$num_get@GV?$istreambuf_iterator@GU?$char_traits@G@std@@@std@@@std@@MEBA?AV?$istreambuf_iterator@GU?$char_traits@G@std@@@2@V32@0AEAVios_base@2@AEAHAEA_J@Z 00000001400b7050 f i libcpmtd:wlocale.obj
 0001:000b6220       ?do_get@?$num_get@GV?$istreambuf_iterator@GU?$char_traits@G@std@@@std@@@std@@MEBA?AV?$istreambuf_iterator@GU?$char_traits@G@std@@@2@V32@0AEAVios_base@2@AEAHAEA_K@Z 00000001400b7220 f i libcpmtd:wlocale.obj
 0001:000b63f0       ?do_get@?$num_get@GV?$istreambuf_iterator@GU?$char_traits@G@std@@@std@@@std@@MEBA?AV?$istreambuf_iterator@GU?$char_traits@G@std@@@2@V32@0AEAVios_base@2@AEAHAEA_N@Z 00000001400b73f0 f i libcpmtd:wlocale.obj
 0001:000b67e0       ?do_get@?$num_get@_WV?$istreambuf_iterator@_WU?$char_traits@_W@std@@@std@@@std@@MEBA?AV?$istreambuf_iterator@_WU?$char_traits@_W@std@@@2@V32@0AEAVios_base@2@AEAHAEAG@Z 00000001400b77e0 f i libcpmtd:wlocale.obj
 0001:000b6a40       ?do_get@?$num_get@_WV?$istreambuf_iterator@_WU?$char_traits@_W@std@@@std@@@std@@MEBA?AV?$istreambuf_iterator@_WU?$char_traits@_W@std@@@2@V32@0AEAVios_base@2@AEAHAEAI@Z 00000001400b7a40 f i libcpmtd:wlocale.obj
 0001:000b6b20       ?do_get@?$num_get@_WV?$istreambuf_iterator@_WU?$char_traits@_W@std@@@std@@@std@@MEBA?AV?$istreambuf_iterator@_WU?$char_traits@_W@std@@@2@V32@0AEAVios_base@2@AEAHAEAJ@Z 00000001400b7b20 f i libcpmtd:wlocale.obj
 0001:000b6cf0       ?do_get@?$num_get@_WV?$istreambuf_iterator@_WU?$char_traits@_W@std@@@std@@@std@@MEBA?AV?$istreambuf_iterator@_WU?$char_traits@_W@std@@@2@V32@0AEAVios_base@2@AEAHAEAK@Z 00000001400b7cf0 f i libcpmtd:wlocale.obj
 0001:000b6ec0       ?do_get@?$num_get@_WV?$istreambuf_iterator@_WU?$char_traits@_W@std@@@std@@@std@@MEBA?AV?$istreambuf_iterator@_WU?$char_traits@_W@std@@@2@V32@0AEAVios_base@2@AEAHAEAM@Z 00000001400b7ec0 f i libcpmtd:wlocale.obj
 0001:000b7080       ?do_get@?$num_get@_WV?$istreambuf_iterator@_WU?$char_traits@_W@std@@@std@@@std@@MEBA?AV?$istreambuf_iterator@_WU?$char_traits@_W@std@@@2@V32@0AEAVios_base@2@AEAHAEAN@Z 00000001400b8080 f i libcpmtd:wlocale.obj
 0001:000b7240       ?do_get@?$num_get@_WV?$istreambuf_iterator@_WU?$char_traits@_W@std@@@std@@@std@@MEBA?AV?$istreambuf_iterator@_WU?$char_traits@_W@std@@@2@V32@0AEAVios_base@2@AEAHAEAO@Z 00000001400b8240 f i libcpmtd:wlocale.obj
 0001:000b7320       ?do_get@?$num_get@_WV?$istreambuf_iterator@_WU?$char_traits@_W@std@@@std@@@std@@MEBA?AV?$istreambuf_iterator@_WU?$char_traits@_W@std@@@2@V32@0AEAVios_base@2@AEAHAEAPEAX@Z 00000001400b8320 f i libcpmtd:wlocale.obj
 0001:000b74e0       ?do_get@?$num_get@_WV?$istreambuf_iterator@_WU?$char_traits@_W@std@@@std@@@std@@MEBA?AV?$istreambuf_iterator@_WU?$char_traits@_W@std@@@2@V32@0AEAVios_base@2@AEAHAEA_J@Z 00000001400b84e0 f i libcpmtd:wlocale.obj
 0001:000b76b0       ?do_get@?$num_get@_WV?$istreambuf_iterator@_WU?$char_traits@_W@std@@@std@@@std@@MEBA?AV?$istreambuf_iterator@_WU?$char_traits@_W@std@@@2@V32@0AEAVios_base@2@AEAHAEA_K@Z 00000001400b86b0 f i libcpmtd:wlocale.obj
 0001:000b7880       ?do_get@?$num_get@_WV?$istreambuf_iterator@_WU?$char_traits@_W@std@@@std@@@std@@MEBA?AV?$istreambuf_iterator@_WU?$char_traits@_W@std@@@2@V32@0AEAVios_base@2@AEAHAEA_N@Z 00000001400b8880 f i libcpmtd:wlocale.obj
 0001:000b7c70       ?do_get@?$time_get@GV?$istreambuf_iterator@GU?$char_traits@G@std@@@std@@@std@@MEBA?AV?$istreambuf_iterator@GU?$char_traits@G@std@@@2@V32@0AEAVios_base@2@AEAHPEAUtm@@DD@Z 00000001400b8c70 f i libcpmtd:wlocale.obj
 0001:000b8b30       ?do_get@?$time_get@_WV?$istreambuf_iterator@_WU?$char_traits@_W@std@@@std@@@std@@MEBA?AV?$istreambuf_iterator@_WU?$char_traits@_W@std@@@2@V32@0AEAVios_base@2@AEAHPEAUtm@@DD@Z 00000001400b9b30 f i libcpmtd:wlocale.obj
 0001:000b99f0       ?do_get_date@?$time_get@GV?$istreambuf_iterator@GU?$char_traits@G@std@@@std@@@std@@MEBA?AV?$istreambuf_iterator@GU?$char_traits@G@std@@@2@V32@0AEAVios_base@2@AEAHPEAUtm@@@Z 00000001400ba9f0 f i libcpmtd:wlocale.obj
 0001:000ba450       ?do_get_date@?$time_get@_WV?$istreambuf_iterator@_WU?$char_traits@_W@std@@@std@@@std@@MEBA?AV?$istreambuf_iterator@_WU?$char_traits@_W@std@@@2@V32@0AEAVios_base@2@AEAHPEAUtm@@@Z 00000001400bb450 f i libcpmtd:wlocale.obj
 0001:000baeb0       ?do_get_monthname@?$time_get@GV?$istreambuf_iterator@GU?$char_traits@G@std@@@std@@@std@@MEBA?AV?$istreambuf_iterator@GU?$char_traits@G@std@@@2@V32@0AEAVios_base@2@AEAHPEAUtm@@@Z 00000001400bbeb0 f i libcpmtd:wlocale.obj
 0001:000baf40       ?do_get_monthname@?$time_get@_WV?$istreambuf_iterator@_WU?$char_traits@_W@std@@@std@@@std@@MEBA?AV?$istreambuf_iterator@_WU?$char_traits@_W@std@@@2@V32@0AEAVios_base@2@AEAHPEAUtm@@@Z 00000001400bbf40 f i libcpmtd:wlocale.obj
 0001:000bafd0       ?do_get_time@?$time_get@GV?$istreambuf_iterator@GU?$char_traits@G@std@@@std@@@std@@MEBA?AV?$istreambuf_iterator@GU?$char_traits@G@std@@@2@V32@0AEAVios_base@2@AEAHPEAUtm@@@Z 00000001400bbfd0 f i libcpmtd:wlocale.obj
 0001:000bb270       ?do_get_time@?$time_get@_WV?$istreambuf_iterator@_WU?$char_traits@_W@std@@@std@@@std@@MEBA?AV?$istreambuf_iterator@_WU?$char_traits@_W@std@@@2@V32@0AEAVios_base@2@AEAHPEAUtm@@@Z 00000001400bc270 f i libcpmtd:wlocale.obj
 0001:000bb510       ?do_get_weekday@?$time_get@GV?$istreambuf_iterator@GU?$char_traits@G@std@@@std@@@std@@MEBA?AV?$istreambuf_iterator@GU?$char_traits@G@std@@@2@V32@0AEAVios_base@2@AEAHPEAUtm@@@Z 00000001400bc510 f i libcpmtd:wlocale.obj
 0001:000bb5a0       ?do_get_weekday@?$time_get@_WV?$istreambuf_iterator@_WU?$char_traits@_W@std@@@std@@@std@@MEBA?AV?$istreambuf_iterator@_WU?$char_traits@_W@std@@@2@V32@0AEAVios_base@2@AEAHPEAUtm@@@Z 00000001400bc5a0 f i libcpmtd:wlocale.obj
 0001:000bb630       ?do_get_year@?$time_get@GV?$istreambuf_iterator@GU?$char_traits@G@std@@@std@@@std@@MEBA?AV?$istreambuf_iterator@GU?$char_traits@G@std@@@2@V32@0AEAVios_base@2@AEAHPEAUtm@@@Z 00000001400bc630 f i libcpmtd:wlocale.obj
 0001:000bb760       ?do_get_year@?$time_get@_WV?$istreambuf_iterator@_WU?$char_traits@_W@std@@@std@@@std@@MEBA?AV?$istreambuf_iterator@_WU?$char_traits@_W@std@@@2@V32@0AEAVios_base@2@AEAHPEAUtm@@@Z 00000001400bc760 f i libcpmtd:wlocale.obj
 0001:000bb890       ?do_grouping@?$_Mpunct@G@std@@MEBA?AV?$basic_string@DU?$char_traits@D@std@@V?$allocator@D@2@@2@XZ 00000001400bc890 f i libcpmtd:wlocale.obj
 0001:000bb8d0       ?do_grouping@?$_Mpunct@_W@std@@MEBA?AV?$basic_string@DU?$char_traits@D@std@@V?$allocator@D@2@@2@XZ 00000001400bc8d0 f i libcpmtd:wlocale.obj
 0001:000bb910       ?do_grouping@?$numpunct@G@std@@MEBA?AV?$basic_string@DU?$char_traits@D@std@@V?$allocator@D@2@@2@XZ 00000001400bc910 f i libcpmtd:wlocale.obj
 0001:000bb950       ?do_grouping@?$numpunct@_W@std@@MEBA?AV?$basic_string@DU?$char_traits@D@std@@V?$allocator@D@2@@2@XZ 00000001400bc950 f i libcpmtd:wlocale.obj
 0001:000bb990       ?do_hash@?$collate@G@std@@MEBAJPEBG0@Z 00000001400bc990 f i libcpmtd:wlocale.obj
 0001:000bb9e0       ?do_hash@?$collate@_W@std@@MEBAJPEB_W0@Z 00000001400bc9e0 f i libcpmtd:wlocale.obj
 0001:000bba30       ?do_in@?$codecvt@GDU_Mbstatet@@@std@@MEBAHAEAU_Mbstatet@@PEBD1AEAPEBDPEAG3AEAPEAG@Z 00000001400bca30 f i libcpmtd:wlocale.obj
 0001:000bbb90       ?do_is@?$ctype@G@std@@MEBAPEBGPEBG0PEAF@Z 00000001400bcb90 f i libcpmtd:wlocale.obj
 0001:000bbbe0       ?do_is@?$ctype@G@std@@MEBA_NFG@Z 00000001400bcbe0 f i libcpmtd:wlocale.obj
 0001:000bbc40       ?do_is@?$ctype@_W@std@@MEBAPEB_WPEB_W0PEAF@Z 00000001400bcc40 f i libcpmtd:wlocale.obj
 0001:000bbc90       ?do_is@?$ctype@_W@std@@MEBA_NF_W@Z 00000001400bcc90 f i libcpmtd:wlocale.obj
 0001:000bbcf0       ?do_length@?$codecvt@GDU_Mbstatet@@@std@@MEBAHAEAU_Mbstatet@@PEBD1_K@Z 00000001400bccf0 f i libcpmtd:wlocale.obj
 0001:000bbdf0       ?do_max_length@?$codecvt@GDU_Mbstatet@@@std@@MEBAHXZ 00000001400bcdf0 f i libcpmtd:wlocale.obj
 0001:000bbe00       ?do_narrow@?$ctype@G@std@@MEBADGD@Z 00000001400bce00 f i libcpmtd:wlocale.obj
 0001:000bbe30       ?do_narrow@?$ctype@G@std@@MEBAPEBGPEBG0DPEAD@Z 00000001400bce30 f i libcpmtd:wlocale.obj
 0001:000bbeb0       ?do_narrow@?$ctype@_W@std@@MEBAD_WD@Z 00000001400bceb0 f i libcpmtd:wlocale.obj
 0001:000bbee0       ?do_narrow@?$ctype@_W@std@@MEBAPEB_WPEB_W0DPEAD@Z 00000001400bcee0 f i libcpmtd:wlocale.obj
 0001:000bbf60       ?do_neg_format@?$_Mpunct@G@std@@MEBA?AUpattern@money_base@2@XZ 00000001400bcf60 f i libcpmtd:wlocale.obj
 0001:000bbf80       ?do_neg_format@?$_Mpunct@_W@std@@MEBA?AUpattern@money_base@2@XZ 00000001400bcf80 f i libcpmtd:wlocale.obj
 0001:000bbfa0       ?do_negative_sign@?$_Mpunct@G@std@@MEBA?AV?$basic_string@GU?$char_traits@G@std@@V?$allocator@G@2@@2@XZ 00000001400bcfa0 f i libcpmtd:wlocale.obj
 0001:000bbfe0       ?do_negative_sign@?$_Mpunct@_W@std@@MEBA?AV?$basic_string@_WU?$char_traits@_W@std@@V?$allocator@_W@2@@2@XZ 00000001400bcfe0 f i libcpmtd:wlocale.obj
 0001:000bc020       ?do_open@?$messages@G@std@@MEBAHAEBV?$basic_string@DU?$char_traits@D@std@@V?$allocator@D@2@@2@AEBVlocale@2@@Z 00000001400bd020 f i libcpmtd:wlocale.obj
 0001:000bc040       ?do_open@?$messages@_W@std@@MEBAHAEBV?$basic_string@DU?$char_traits@D@std@@V?$allocator@D@2@@2@AEBVlocale@2@@Z 00000001400bd040 f i libcpmtd:wlocale.obj
 0001:000bc060       ?do_out@?$codecvt@GDU_Mbstatet@@@std@@MEBAHAEAU_Mbstatet@@PEBG1AEAPEBGPEAD3AEAPEAD@Z 00000001400bd060 f i libcpmtd:wlocale.obj
 0001:000bc290       ?do_pos_format@?$_Mpunct@G@std@@MEBA?AUpattern@money_base@2@XZ 00000001400bd290 f i libcpmtd:wlocale.obj
 0001:000bc2b0       ?do_pos_format@?$_Mpunct@_W@std@@MEBA?AUpattern@money_base@2@XZ 00000001400bd2b0 f i libcpmtd:wlocale.obj
 0001:000bc2d0       ?do_positive_sign@?$_Mpunct@G@std@@MEBA?AV?$basic_string@GU?$char_traits@G@std@@V?$allocator@G@2@@2@XZ 00000001400bd2d0 f i libcpmtd:wlocale.obj
 0001:000bc310       ?do_positive_sign@?$_Mpunct@_W@std@@MEBA?AV?$basic_string@_WU?$char_traits@_W@std@@V?$allocator@_W@2@@2@XZ 00000001400bd310 f i libcpmtd:wlocale.obj
 0001:000bc350       ?do_put@?$money_put@GV?$ostreambuf_iterator@GU?$char_traits@G@std@@@std@@@std@@MEBA?AV?$ostreambuf_iterator@GU?$char_traits@G@std@@@2@V32@_NAEAVios_base@2@GAEBV?$basic_string@GU?$char_traits@G@std@@V?$allocator@G@2@@2@@Z 00000001400bd350 f i libcpmtd:wlocale.obj
 0001:000bc680       ?do_put@?$money_put@GV?$ostreambuf_iterator@GU?$char_traits@G@std@@@std@@@std@@MEBA?AV?$ostreambuf_iterator@GU?$char_traits@G@std@@@2@V32@_NAEAVios_base@2@GO@Z 00000001400bd680 f i libcpmtd:wlocale.obj
 0001:000bc950       ?do_put@?$money_put@_WV?$ostreambuf_iterator@_WU?$char_traits@_W@std@@@std@@@std@@MEBA?AV?$ostreambuf_iterator@_WU?$char_traits@_W@std@@@2@V32@_NAEAVios_base@2@_WAEBV?$basic_string@_WU?$char_traits@_W@std@@V?$allocator@_W@2@@2@@Z 00000001400bd950 f i libcpmtd:wlocale.obj
 0001:000bcc80       ?do_put@?$money_put@_WV?$ostreambuf_iterator@_WU?$char_traits@_W@std@@@std@@@std@@MEBA?AV?$ostreambuf_iterator@_WU?$char_traits@_W@std@@@2@V32@_NAEAVios_base@2@_WO@Z 00000001400bdc80 f i libcpmtd:wlocale.obj
 0001:000bcf50       ?do_put@?$num_put@GV?$ostreambuf_iterator@GU?$char_traits@G@std@@@std@@@std@@MEBA?AV?$ostreambuf_iterator@GU?$char_traits@G@std@@@2@V32@AEAVios_base@2@GJ@Z 00000001400bdf50 f i libcpmtd:wlocale.obj
 0001:000bd070       ?do_put@?$num_put@GV?$ostreambuf_iterator@GU?$char_traits@G@std@@@std@@@std@@MEBA?AV?$ostreambuf_iterator@GU?$char_traits@G@std@@@2@V32@AEAVios_base@2@GK@Z 00000001400be070 f i libcpmtd:wlocale.obj
 0001:000bd190       ?do_put@?$num_put@GV?$ostreambuf_iterator@GU?$char_traits@G@std@@@std@@@std@@MEBA?AV?$ostreambuf_iterator@GU?$char_traits@G@std@@@2@V32@AEAVios_base@2@GN@Z 00000001400be190 f i libcpmtd:wlocale.obj
 0001:000bd440       ?do_put@?$num_put@GV?$ostreambuf_iterator@GU?$char_traits@G@std@@@std@@@std@@MEBA?AV?$ostreambuf_iterator@GU?$char_traits@G@std@@@2@V32@AEAVios_base@2@GO@Z 00000001400be440 f i libcpmtd:wlocale.obj
 0001:000bd6f0       ?do_put@?$num_put@GV?$ostreambuf_iterator@GU?$char_traits@G@std@@@std@@@std@@MEBA?AV?$ostreambuf_iterator@GU?$char_traits@G@std@@@2@V32@AEAVios_base@2@GPEBX@Z 00000001400be6f0 f i libcpmtd:wlocale.obj
 0001:000bd7e0       ?do_put@?$num_put@GV?$ostreambuf_iterator@GU?$char_traits@G@std@@@std@@@std@@MEBA?AV?$ostreambuf_iterator@GU?$char_traits@G@std@@@2@V32@AEAVios_base@2@G_J@Z 00000001400be7e0 f i libcpmtd:wlocale.obj
 0001:000bd900       ?do_put@?$num_put@GV?$ostreambuf_iterator@GU?$char_traits@G@std@@@std@@@std@@MEBA?AV?$ostreambuf_iterator@GU?$char_traits@G@std@@@2@V32@AEAVios_base@2@G_K@Z 00000001400be900 f i libcpmtd:wlocale.obj
 0001:000bda20       ?do_put@?$num_put@GV?$ostreambuf_iterator@GU?$char_traits@G@std@@@std@@@std@@MEBA?AV?$ostreambuf_iterator@GU?$char_traits@G@std@@@2@V32@AEAVios_base@2@G_N@Z 00000001400bea20 f i libcpmtd:wlocale.obj
 0001:000bde10       ?do_put@?$num_put@_WV?$ostreambuf_iterator@_WU?$char_traits@_W@std@@@std@@@std@@MEBA?AV?$ostreambuf_iterator@_WU?$char_traits@_W@std@@@2@V32@AEAVios_base@2@_WJ@Z 00000001400bee10 f i libcpmtd:wlocale.obj
 0001:000bdf30       ?do_put@?$num_put@_WV?$ostreambuf_iterator@_WU?$char_traits@_W@std@@@std@@@std@@MEBA?AV?$ostreambuf_iterator@_WU?$char_traits@_W@std@@@2@V32@AEAVios_base@2@_WK@Z 00000001400bef30 f i libcpmtd:wlocale.obj
 0001:000be050       ?do_put@?$num_put@_WV?$ostreambuf_iterator@_WU?$char_traits@_W@std@@@std@@@std@@MEBA?AV?$ostreambuf_iterator@_WU?$char_traits@_W@std@@@2@V32@AEAVios_base@2@_WN@Z 00000001400bf050 f i libcpmtd:wlocale.obj
 0001:000be300       ?do_put@?$num_put@_WV?$ostreambuf_iterator@_WU?$char_traits@_W@std@@@std@@@std@@MEBA?AV?$ostreambuf_iterator@_WU?$char_traits@_W@std@@@2@V32@AEAVios_base@2@_WO@Z 00000001400bf300 f i libcpmtd:wlocale.obj
 0001:000be5b0       ?do_put@?$num_put@_WV?$ostreambuf_iterator@_WU?$char_traits@_W@std@@@std@@@std@@MEBA?AV?$ostreambuf_iterator@_WU?$char_traits@_W@std@@@2@V32@AEAVios_base@2@_WPEBX@Z 00000001400bf5b0 f i libcpmtd:wlocale.obj
 0001:000be6a0       ?do_put@?$num_put@_WV?$ostreambuf_iterator@_WU?$char_traits@_W@std@@@std@@@std@@MEBA?AV?$ostreambuf_iterator@_WU?$char_traits@_W@std@@@2@V32@AEAVios_base@2@_W_J@Z 00000001400bf6a0 f i libcpmtd:wlocale.obj
 0001:000be7c0       ?do_put@?$num_put@_WV?$ostreambuf_iterator@_WU?$char_traits@_W@std@@@std@@@std@@MEBA?AV?$ostreambuf_iterator@_WU?$char_traits@_W@std@@@2@V32@AEAVios_base@2@_W_K@Z 00000001400bf7c0 f i libcpmtd:wlocale.obj
 0001:000be8e0       ?do_put@?$num_put@_WV?$ostreambuf_iterator@_WU?$char_traits@_W@std@@@std@@@std@@MEBA?AV?$ostreambuf_iterator@_WU?$char_traits@_W@std@@@2@V32@AEAVios_base@2@_W_N@Z 00000001400bf8e0 f i libcpmtd:wlocale.obj
 0001:000becd0       ?do_put@?$time_put@GV?$ostreambuf_iterator@GU?$char_traits@G@std@@@std@@@std@@MEBA?AV?$ostreambuf_iterator@GU?$char_traits@G@std@@@2@V32@AEAVios_base@2@GPEBUtm@@DD@Z 00000001400bfcd0 f i libcpmtd:wlocale.obj
 0001:000bef00       ?do_put@?$time_put@_WV?$ostreambuf_iterator@_WU?$char_traits@_W@std@@@std@@@std@@MEBA?AV?$ostreambuf_iterator@_WU?$char_traits@_W@std@@@2@V32@AEAVios_base@2@_WPEBUtm@@DD@Z 00000001400bff00 f i libcpmtd:wlocale.obj
 0001:000bf130       ?do_scan_is@?$ctype@G@std@@MEBAPEBGFPEBG0@Z 00000001400c0130 f i libcpmtd:wlocale.obj
 0001:000bf1a0       ?do_scan_is@?$ctype@_W@std@@MEBAPEB_WFPEB_W0@Z 00000001400c01a0 f i libcpmtd:wlocale.obj
 0001:000bf210       ?do_scan_not@?$ctype@G@std@@MEBAPEBGFPEBG0@Z 00000001400c0210 f i libcpmtd:wlocale.obj
 0001:000bf280       ?do_scan_not@?$ctype@_W@std@@MEBAPEB_WFPEB_W0@Z 00000001400c0280 f i libcpmtd:wlocale.obj
 0001:000bf2f0       ?do_thousands_sep@?$_Mpunct@G@std@@MEBAGXZ 00000001400c02f0 f i libcpmtd:wlocale.obj
 0001:000bf300       ?do_thousands_sep@?$_Mpunct@_W@std@@MEBA_WXZ 00000001400c0300 f i libcpmtd:wlocale.obj
 0001:000bf310       ?do_thousands_sep@?$numpunct@G@std@@MEBAGXZ 00000001400c0310 f i libcpmtd:wlocale.obj
 0001:000bf320       ?do_thousands_sep@?$numpunct@_W@std@@MEBA_WXZ 00000001400c0320 f i libcpmtd:wlocale.obj
 0001:000bf330       ?do_tolower@?$ctype@G@std@@MEBAGG@Z 00000001400c0330 f i libcpmtd:wlocale.obj
 0001:000bf360       ?do_tolower@?$ctype@G@std@@MEBAPEBGPEAGPEBG@Z 00000001400c0360 f i libcpmtd:wlocale.obj
 0001:000bf3d0       ?do_tolower@?$ctype@_W@std@@MEBAPEB_WPEA_WPEB_W@Z 00000001400c03d0 f i libcpmtd:wlocale.obj
 0001:000bf440       ?do_tolower@?$ctype@_W@std@@MEBA_W_W@Z 00000001400c0440 f i libcpmtd:wlocale.obj
 0001:000bf470       ?do_toupper@?$ctype@G@std@@MEBAGG@Z 00000001400c0470 f i libcpmtd:wlocale.obj
 0001:000bf4a0       ?do_toupper@?$ctype@G@std@@MEBAPEBGPEAGPEBG@Z 00000001400c04a0 f i libcpmtd:wlocale.obj
 0001:000bf510       ?do_toupper@?$ctype@_W@std@@MEBAPEB_WPEA_WPEB_W@Z 00000001400c0510 f i libcpmtd:wlocale.obj
 0001:000bf580       ?do_toupper@?$ctype@_W@std@@MEBA_W_W@Z 00000001400c0580 f i libcpmtd:wlocale.obj
 0001:000bf5b0       ?do_transform@?$collate@G@std@@MEBA?AV?$basic_string@GU?$char_traits@G@std@@V?$allocator@G@2@@2@PEBG0@Z 00000001400c05b0 f i libcpmtd:wlocale.obj
 0001:000bf740       ?do_transform@?$collate@_W@std@@MEBA?AV?$basic_string@_WU?$char_traits@_W@std@@V?$allocator@_W@2@@2@PEB_W0@Z 00000001400c0740 f i libcpmtd:wlocale.obj
 0001:000bf8d0       ?do_truename@?$numpunct@G@std@@MEBA?AV?$basic_string@GU?$char_traits@G@std@@V?$allocator@G@2@@2@XZ 00000001400c08d0 f i libcpmtd:wlocale.obj
 0001:000bf910       ?do_truename@?$numpunct@_W@std@@MEBA?AV?$basic_string@_WU?$char_traits@_W@std@@V?$allocator@_W@2@@2@XZ 00000001400c0910 f i libcpmtd:wlocale.obj
 0001:000bf950       ?do_unshift@?$codecvt@GDU_Mbstatet@@@std@@MEBAHAEAU_Mbstatet@@PEAD1AEAPEAD@Z 00000001400c0950 f i libcpmtd:wlocale.obj
 0001:000bfa70       ?do_widen@?$ctype@G@std@@MEBAGD@Z 00000001400c0a70 f i libcpmtd:wlocale.obj
 0001:000bfaa0       ?do_widen@?$ctype@G@std@@MEBAPEBDPEBD0PEAG@Z 00000001400c0aa0 f i libcpmtd:wlocale.obj
 0001:000bfb20       ?do_widen@?$ctype@_W@std@@MEBAPEBDPEBD0PEA_W@Z 00000001400c0b20 f i libcpmtd:wlocale.obj
 0001:000bfba0       ?do_widen@?$ctype@_W@std@@MEBA_WD@Z 00000001400c0ba0 f i libcpmtd:wlocale.obj
 0001:000bfbd0       ?empty@?$basic_string@GU?$char_traits@G@std@@V?$allocator@G@2@@std@@QEBA_NXZ 00000001400c0bd0 f i libcpmtd:wlocale.obj
 0001:000bfc10       ?empty@?$basic_string@_WU?$char_traits@_W@std@@V?$allocator@_W@2@@std@@QEBA_NXZ 00000001400c0c10 f i libcpmtd:wlocale.obj
 0001:000bfc50       ?end@?$basic_string@GU?$char_traits@G@std@@V?$allocator@G@2@@std@@QEAA?AV?$_String_iterator@V?$_String_val@U?$_Simple_types@G@std@@@std@@@2@XZ 00000001400c0c50 f i libcpmtd:wlocale.obj
 0001:000bfcc0       ?eof@?$_WChar_traits@G@std@@SAGXZ 00000001400c0cc0 f i libcpmtd:wlocale.obj
 0001:000bfcd0       ?eof@?$_WChar_traits@_W@std@@SAGXZ 00000001400c0cd0 f i libcpmtd:wlocale.obj
 0001:000bfce0       ?eq_int_type@?$_WChar_traits@G@std@@SA_NAEBG0@Z 00000001400c0ce0 f i libcpmtd:wlocale.obj
 0001:000bfd20       ?eq_int_type@?$_WChar_traits@_W@std@@SA_NAEBG0@Z 00000001400c0d20 f i libcpmtd:wlocale.obj
 0001:000bfd60       ?equal@?$istreambuf_iterator@GU?$char_traits@G@std@@@std@@QEBA_NAEBV12@@Z 00000001400c0d60 f i libcpmtd:wlocale.obj
 0001:000bfdf0       ?equal@?$istreambuf_iterator@_WU?$char_traits@_W@std@@@std@@QEBA_NAEBV12@@Z 00000001400c0df0 f i libcpmtd:wlocale.obj
 0001:000bfe80       ?erase@?$basic_string@DU?$char_traits@D@std@@V?$allocator@D@2@@std@@QEAAAEAV12@_K@Z 00000001400c0e80 f i libcpmtd:wlocale.obj
 0001:000bfec0       ?erase@?$basic_string@GU?$char_traits@G@std@@V?$allocator@G@2@@std@@QEAAAEAV12@_K@Z 00000001400c0ec0 f i libcpmtd:wlocale.obj
 0001:000bff00       ?erase@?$basic_string@_WU?$char_traits@_W@std@@V?$allocator@_W@2@@std@@QEAAAEAV12@_K@Z 00000001400c0f00 f i libcpmtd:wlocale.obj
 0001:000bff40       ?falsename@?$numpunct@G@std@@QEBA?AV?$basic_string@GU?$char_traits@G@std@@V?$allocator@G@2@@2@XZ 00000001400c0f40 f i libcpmtd:wlocale.obj
 0001:000bffa0       ?falsename@?$numpunct@_W@std@@QEBA?AV?$basic_string@_WU?$char_traits@_W@std@@V?$allocator@_W@2@@2@XZ 00000001400c0fa0 f i libcpmtd:wlocale.obj
 0001:000c0000       ?frac_digits@?$_Mpunct@G@std@@QEBAHXZ 00000001400c1000 f i libcpmtd:wlocale.obj
 0001:000c0030       ?frac_digits@?$_Mpunct@_W@std@@QEBAHXZ 00000001400c1030 f i libcpmtd:wlocale.obj
 0001:000c0060       ?get_monthname@?$time_get@GV?$istreambuf_iterator@GU?$char_traits@G@std@@@std@@@std@@QEBA?AV?$istreambuf_iterator@GU?$char_traits@G@std@@@2@V32@0AEAVios_base@2@AEAHPEAUtm@@@Z 00000001400c1060 f i libcpmtd:wlocale.obj
 0001:000c0130       ?get_monthname@?$time_get@_WV?$istreambuf_iterator@_WU?$char_traits@_W@std@@@std@@@std@@QEBA?AV?$istreambuf_iterator@_WU?$char_traits@_W@std@@@2@V32@0AEAVios_base@2@AEAHPEAUtm@@@Z 00000001400c1130 f i libcpmtd:wlocale.obj
 0001:000c0200       ?get_weekday@?$time_get@GV?$istreambuf_iterator@GU?$char_traits@G@std@@@std@@@std@@QEBA?AV?$istreambuf_iterator@GU?$char_traits@G@std@@@2@V32@0AEAVios_base@2@AEAHPEAUtm@@@Z 00000001400c1200 f i libcpmtd:wlocale.obj
 0001:000c02d0       ?get_weekday@?$time_get@_WV?$istreambuf_iterator@_WU?$char_traits@_W@std@@@std@@@std@@QEBA?AV?$istreambuf_iterator@_WU?$char_traits@_W@std@@@2@V32@0AEAVios_base@2@AEAHPEAUtm@@@Z 00000001400c12d0 f i libcpmtd:wlocale.obj
 0001:000c03a0       ?get_year@?$time_get@GV?$istreambuf_iterator@GU?$char_traits@G@std@@@std@@@std@@QEBA?AV?$istreambuf_iterator@GU?$char_traits@G@std@@@2@V32@0AEAVios_base@2@AEAHPEAUtm@@@Z 00000001400c13a0 f i libcpmtd:wlocale.obj
 0001:000c0470       ?get_year@?$time_get@_WV?$istreambuf_iterator@_WU?$char_traits@_W@std@@@std@@@std@@QEBA?AV?$istreambuf_iterator@_WU?$char_traits@_W@std@@@2@V32@0AEAVios_base@2@AEAHPEAUtm@@@Z 00000001400c1470 f i libcpmtd:wlocale.obj
 0001:000c0540       ?gptr@?$basic_streambuf@GU?$char_traits@G@std@@@std@@IEBAPEAGXZ 00000001400c1540 f i libcpmtd:wlocale.obj
 0001:000c0560       ?gptr@?$basic_streambuf@_WU?$char_traits@_W@std@@@std@@IEBAPEA_WXZ 00000001400c1560 f i libcpmtd:wlocale.obj
 0001:000c0580       ?grouping@?$_Mpunct@G@std@@QEBA?AV?$basic_string@DU?$char_traits@D@std@@V?$allocator@D@2@@2@XZ 00000001400c1580 f i libcpmtd:wlocale.obj
 0001:000c05e0       ?grouping@?$_Mpunct@_W@std@@QEBA?AV?$basic_string@DU?$char_traits@D@std@@V?$allocator@D@2@@2@XZ 00000001400c15e0 f i libcpmtd:wlocale.obj
 0001:000c0640       ?grouping@?$numpunct@G@std@@QEBA?AV?$basic_string@DU?$char_traits@D@std@@V?$allocator@D@2@@2@XZ 00000001400c1640 f i libcpmtd:wlocale.obj
 0001:000c06a0       ?grouping@?$numpunct@_W@std@@QEBA?AV?$basic_string@DU?$char_traits@D@std@@V?$allocator@D@2@@2@XZ 00000001400c16a0 f i libcpmtd:wlocale.obj
 0001:000c0700       ?insert@?$basic_string@GU?$char_traits@G@std@@V?$allocator@G@2@@std@@QEAAAEAV12@_K0G@Z 00000001400c1700 f i libcpmtd:wlocale.obj
 0001:000c0830       ?insert@?$basic_string@_WU?$char_traits@_W@std@@V?$allocator@_W@2@@std@@QEAAAEAV12@_K0_W@Z 00000001400c1830 f i libcpmtd:wlocale.obj
 0001:000c0960       ?is@?$ctype@G@std@@QEBA_NFG@Z 00000001400c1960 f i libcpmtd:wlocale.obj
 0001:000c09b0       ?is@?$ctype@_W@std@@QEBA_NF_W@Z 00000001400c19b0 f i libcpmtd:wlocale.obj
 0001:000c0a00       ?length@?$_Char_traits@GG@std@@SA_KPEBG@Z 00000001400c1a00 f i libcpmtd:wlocale.obj
 0001:000c0a50       ?length@?$_WChar_traits@G@std@@SA_KPEBG@Z 00000001400c1a50 f i libcpmtd:wlocale.obj
 0001:000c0a70       ?length@?$_WChar_traits@_W@std@@SA_KPEB_W@Z 00000001400c1a70 f i libcpmtd:wlocale.obj
 0001:000c0ab0       ?max_size@?$_Default_allocator_traits@V?$allocator@G@std@@@std@@SA_KAEBV?$allocator@G@2@@Z 00000001400c1ab0 f i libcpmtd:wlocale.obj
 0001:000c0ac0       ?max_size@?$_Default_allocator_traits@V?$allocator@_W@std@@@std@@SA_KAEBV?$allocator@_W@2@@Z 00000001400c1ac0 f i libcpmtd:wlocale.obj
 0001:000c0ad0       ?max_size@?$basic_string@GU?$char_traits@G@std@@V?$allocator@G@2@@std@@QEBA_KXZ 00000001400c1ad0 f i libcpmtd:wlocale.obj
 0001:000c0b40       ?move@?$_Char_traits@GG@std@@SAPEAGQEAGQEBG_K@Z 00000001400c1b40 f i libcpmtd:wlocale.obj
 0001:000c0c90       ?move@?$_Char_traits@_WG@std@@SAPEA_WQEA_WQEB_W_K@Z 00000001400c1c90 f i libcpmtd:wlocale.obj
 0001:000c0de0       ?name@locale@std@@QEBA?AV?$basic_string@DU?$char_traits@D@std@@V?$allocator@D@2@@2@XZ 00000001400c1de0 f i libcpmtd:wlocale.obj
 0001:000c0f00       ?narrow@?$ctype@G@std@@QEBADGD@Z 00000001400c1f00 f i libcpmtd:wlocale.obj
 0001:000c0f50       ?narrow@?$ctype@_W@std@@QEBAD_WD@Z 00000001400c1f50 f i libcpmtd:wlocale.obj
 0001:000c0fa0       ?neg_format@?$_Mpunct@G@std@@QEBA?AUpattern@money_base@2@XZ 00000001400c1fa0 f i libcpmtd:wlocale.obj
 0001:000c0ff0       ?neg_format@?$_Mpunct@_W@std@@QEBA?AUpattern@money_base@2@XZ 00000001400c1ff0 f i libcpmtd:wlocale.obj
 0001:000c1040       ?negative_sign@?$_Mpunct@G@std@@QEBA?AV?$basic_string@GU?$char_traits@G@std@@V?$allocator@G@2@@2@XZ 00000001400c2040 f i libcpmtd:wlocale.obj
 0001:000c10a0       ?negative_sign@?$_Mpunct@_W@std@@QEBA?AV?$basic_string@_WU?$char_traits@_W@std@@V?$allocator@_W@2@@2@XZ 00000001400c20a0 f i libcpmtd:wlocale.obj
 0001:000c1100       ?pos_format@?$_Mpunct@G@std@@QEBA?AUpattern@money_base@2@XZ 00000001400c2100 f i libcpmtd:wlocale.obj
 0001:000c1150       ?pos_format@?$_Mpunct@_W@std@@QEBA?AUpattern@money_base@2@XZ 00000001400c2150 f i libcpmtd:wlocale.obj
 0001:000c11a0       ?positive_sign@?$_Mpunct@G@std@@QEBA?AV?$basic_string@GU?$char_traits@G@std@@V?$allocator@G@2@@2@XZ 00000001400c21a0 f i libcpmtd:wlocale.obj
 0001:000c1200       ?positive_sign@?$_Mpunct@_W@std@@QEBA?AV?$basic_string@_WU?$char_traits@_W@std@@V?$allocator@_W@2@@2@XZ 00000001400c2200 f i libcpmtd:wlocale.obj
 0001:000c1260       ?push_back@?$basic_string@GU?$char_traits@G@std@@V?$allocator@G@2@@std@@QEAAXG@Z 00000001400c2260 f i libcpmtd:wlocale.obj
 0001:000c1310       ?resize@?$basic_string@GU?$char_traits@G@std@@V?$allocator@G@2@@std@@QEAAX_KG@Z 00000001400c2310 f i libcpmtd:wlocale.obj
 0001:000c1380       ?resize@?$basic_string@_WU?$char_traits@_W@std@@V?$allocator@_W@2@@std@@QEAAX_K_W@Z 00000001400c2380 f i libcpmtd:wlocale.obj
 0001:000c13f0       ?sbumpc@?$basic_streambuf@GU?$char_traits@G@std@@@std@@QEAAGXZ 00000001400c23f0 f i libcpmtd:wlocale.obj
 0001:000c1460       ?sbumpc@?$basic_streambuf@_WU?$char_traits@_W@std@@@std@@QEAAGXZ 00000001400c2460 f i libcpmtd:wlocale.obj
 0001:000c14d0       ?select_on_container_copy_construction@?$_Default_allocator_traits@V?$allocator@G@std@@@std@@SA?AV?$allocator@G@2@AEBV32@@Z 00000001400c24d0 f i libcpmtd:wlocale.obj
 0001:000c14e0       ?select_on_container_copy_construction@?$_Default_allocator_traits@V?$allocator@_W@std@@@std@@SA?AV?$allocator@_W@2@AEBV32@@Z 00000001400c24e0 f i libcpmtd:wlocale.obj
 0001:000c14f0       ?sgetc@?$basic_streambuf@GU?$char_traits@G@std@@@std@@QEAAGXZ 00000001400c24f0 f i libcpmtd:wlocale.obj
 0001:000c1560       ?sgetc@?$basic_streambuf@_WU?$char_traits@_W@std@@@std@@QEAAGXZ 00000001400c2560 f i libcpmtd:wlocale.obj
 0001:000c15d0       ?size@?$basic_string@GU?$char_traits@G@std@@V?$allocator@G@2@@std@@QEBA_KXZ 00000001400c25d0 f i libcpmtd:wlocale.obj
 0001:000c15e0       ?size@?$basic_string@_WU?$char_traits@_W@std@@V?$allocator@_W@2@@std@@QEBA_KXZ 00000001400c25e0 f i libcpmtd:wlocale.obj
 0001:000c15f0       ?sputc@?$basic_streambuf@GU?$char_traits@G@std@@@std@@QEAAGG@Z 00000001400c25f0 f i libcpmtd:wlocale.obj
 0001:000c16a0       ?sputc@?$basic_streambuf@_WU?$char_traits@_W@std@@@std@@QEAAG_W@Z 00000001400c26a0 f i libcpmtd:wlocale.obj
 0001:000c1750       ?thousands_sep@?$_Mpunct@G@std@@QEBAGXZ 00000001400c2750 f i libcpmtd:wlocale.obj
 0001:000c1780       ?thousands_sep@?$_Mpunct@_W@std@@QEBA_WXZ 00000001400c2780 f i libcpmtd:wlocale.obj
 0001:000c17b0       ?thousands_sep@?$numpunct@G@std@@QEBAGXZ 00000001400c27b0 f i libcpmtd:wlocale.obj
 0001:000c17e0       ?thousands_sep@?$numpunct@_W@std@@QEBA_WXZ 00000001400c27e0 f i libcpmtd:wlocale.obj
 0001:000c1810       ?to_char_type@?$_WChar_traits@G@std@@SAGAEBG@Z 00000001400c2810 f i libcpmtd:wlocale.obj
 0001:000c1820       ?to_char_type@?$_WChar_traits@_W@std@@SA_WAEBG@Z 00000001400c2820 f i libcpmtd:wlocale.obj
 0001:000c1830       ?to_int_type@?$_WChar_traits@G@std@@SAGAEBG@Z 00000001400c2830 f i libcpmtd:wlocale.obj
 0001:000c1840       ?to_int_type@?$_WChar_traits@_W@std@@SAGAEB_W@Z 00000001400c2840 f i libcpmtd:wlocale.obj
 0001:000c1850       ?tolower@?$ctype@G@std@@QEBAGG@Z 00000001400c2850 f i libcpmtd:wlocale.obj
 0001:000c18a0       ?tolower@?$ctype@_W@std@@QEBA_W_W@Z 00000001400c28a0 f i libcpmtd:wlocale.obj
 0001:000c18f0       ?truename@?$numpunct@G@std@@QEBA?AV?$basic_string@GU?$char_traits@G@std@@V?$allocator@G@2@@2@XZ 00000001400c28f0 f i libcpmtd:wlocale.obj
 0001:000c1950       ?truename@?$numpunct@_W@std@@QEBA?AV?$basic_string@_WU?$char_traits@_W@std@@V?$allocator@_W@2@@2@XZ 00000001400c2950 f i libcpmtd:wlocale.obj
 0001:000c19b0       ?widen@?$ctype@G@std@@QEBAGD@Z 00000001400c29b0 f i libcpmtd:wlocale.obj
 0001:000c1a00       ?widen@?$ctype@G@std@@QEBAPEBDPEBD0PEAG@Z 00000001400c2a00 f i libcpmtd:wlocale.obj
 0001:000c1a60       ?widen@?$ctype@_W@std@@QEBAPEBDPEBD0PEA_W@Z 00000001400c2a60 f i libcpmtd:wlocale.obj
 0001:000c1ac0       ?widen@?$ctype@_W@std@@QEBA_WD@Z 00000001400c2ac0 f i libcpmtd:wlocale.obj
 0001:000c1b10       wmemcpy                    00000001400c2b10 f i libcpmtd:wlocale.obj
 0001:000c1b50       wmemset                    00000001400c2b50 f i libcpmtd:wlocale.obj
 0001:000c1bb0       ??$_Copy_unchecked@PEADV?$ostreambuf_iterator@DU?$char_traits@D@std@@@std@@@std@@YA?AV?$ostreambuf_iterator@DU?$char_traits@D@std@@@0@PEAD0V10@@Z 00000001400c2bb0 f i libcpmtd:xlocale.obj
 0001:000c1c40       ??$_Find_elem@D$0M@@std@@YA_KAEAY0M@$$CBDD@Z 00000001400c2c40 f i libcpmtd:xlocale.obj
 0001:000c1c80       ??$_Get_unwrapped@AEAPEAD@std@@YAPEADAEAPEAD@Z 00000001400c2c80 f i libcpmtd:xlocale.obj
 0001:000c1c90       ??$_Get_unwrapped_n@AEAV?$ostreambuf_iterator@DU?$char_traits@D@std@@@std@@_J@std@@YAAEAV?$ostreambuf_iterator@DU?$char_traits@D@std@@@0@AEAV10@_J@Z 00000001400c2c90 f i libcpmtd:xlocale.obj
 0001:000c1ca0       ??$_Getvals@D@?$_Mpunct@D@std@@IEAAXDPEBUlconv@@@Z 00000001400c2ca0 f i libcpmtd:xlocale.obj
 0001:000c1e40       ??$_Getvals@D@?$time_get@DV?$istreambuf_iterator@DU?$char_traits@D@std@@@std@@@std@@IEAAXDAEBV_Locinfo@1@@Z 00000001400c2e40 f i libcpmtd:xlocale.obj
 0001:000c1fb0       ??$_Hash_array_representation@D@std@@YA_KQEBD_K@Z 00000001400c2fb0 f i libcpmtd:xlocale.obj
 0001:000c1fe0       ??$_Idl_distance@PEADPEAD@std@@YA_JAEBQEAD0@Z 00000001400c2fe0 f i libcpmtd:xlocale.obj
 0001:000c2000       ??$_LStrcoll@D@std@@YAHPEBD000PEBU_Collvec@@@Z 00000001400c3000 f i libcpmtd:xlocale.obj
 0001:000c2040       ??$_LStrxfrm@D@std@@YA_KPEAD0PEBD1PEBU_Collvec@@@Z 00000001400c3040 f i libcpmtd:xlocale.obj
 0001:000c2080       ??$_Seek_wrapped@V?$ostreambuf_iterator@DU?$char_traits@D@std@@@std@@V12@@std@@YAXAEAV?$ostreambuf_iterator@DU?$char_traits@D@std@@@0@$$QEAV10@@Z 00000001400c3080 f i libcpmtd:xlocale.obj
 0001:000c20a0       ??$_Unfancy@$$CBD@std@@YAPEBDPEBD@Z 00000001400c30a0 f i libcpmtd:xlocale.obj
 0001:000c20b0       ??$addressof@$$CBV?$moneypunct@D$00@std@@@std@@YAPEBV?$moneypunct@D$00@0@AEBV10@@Z 00000001400c30b0 f i libcpmtd:xlocale.obj
 0001:000c20c0       ??$addressof@$$CBV?$moneypunct@D$0A@@std@@@std@@YAPEBV?$moneypunct@D$0A@@0@AEBV10@@Z 00000001400c30c0 f i libcpmtd:xlocale.obj
 0001:000c20d0       ??$copy@PEADV?$ostreambuf_iterator@DU?$char_traits@D@std@@@std@@@std@@YA?AV?$ostreambuf_iterator@DU?$char_traits@D@std@@@0@PEAD0V10@@Z 00000001400c30d0 f i libcpmtd:xlocale.obj
 0001:000c21f0       ??$use_facet@V?$collate@D@std@@@std@@YAAEBV?$collate@D@0@AEBVlocale@0@@Z 00000001400c31f0 f i libcpmtd:xlocale.obj
 0001:000c2310       ??$use_facet@V?$messages@D@std@@@std@@YAAEBV?$messages@D@0@AEBVlocale@0@@Z 00000001400c3310 f i libcpmtd:xlocale.obj
 0001:000c2430       ??$use_facet@V?$money_get@DV?$istreambuf_iterator@DU?$char_traits@D@std@@@std@@@std@@@std@@YAAEBV?$money_get@DV?$istreambuf_iterator@DU?$char_traits@D@std@@@std@@@0@AEBVlocale@0@@Z 00000001400c3430 f i libcpmtd:xlocale.obj
 0001:000c2550       ??$use_facet@V?$money_put@DV?$ostreambuf_iterator@DU?$char_traits@D@std@@@std@@@std@@@std@@YAAEBV?$money_put@DV?$ostreambuf_iterator@DU?$char_traits@D@std@@@std@@@0@AEBVlocale@0@@Z 00000001400c3550 f i libcpmtd:xlocale.obj
 0001:000c2670       ??$use_facet@V?$moneypunct@D$00@std@@@std@@YAAEBV?$moneypunct@D$00@0@AEBVlocale@0@@Z 00000001400c3670 f i libcpmtd:xlocale.obj
 0001:000c2790       ??$use_facet@V?$moneypunct@D$0A@@std@@@std@@YAAEBV?$moneypunct@D$0A@@0@AEBVlocale@0@@Z 00000001400c3790 f i libcpmtd:xlocale.obj
 0001:000c28b0       ??$use_facet@V?$time_get@DV?$istreambuf_iterator@DU?$char_traits@D@std@@@std@@@std@@@std@@YAAEBV?$time_get@DV?$istreambuf_iterator@DU?$char_traits@D@std@@@std@@@0@AEBVlocale@0@@Z 00000001400c38b0 f i libcpmtd:xlocale.obj
 0001:000c29d0       ??$use_facet@V?$time_put@DV?$ostreambuf_iterator@DU?$char_traits@D@std@@@std@@@std@@@std@@YAAEBV?$time_put@DV?$ostreambuf_iterator@DU?$char_traits@D@std@@@std@@@0@AEBVlocale@0@@Z 00000001400c39d0 f i libcpmtd:xlocale.obj
 0001:000c2af0       ??0?$_Mpunct@D@std@@QEAA@AEBV_Locinfo@1@_K_N2@Z 00000001400c3af0 f i libcpmtd:xlocale.obj
 0001:000c2b60       ??0?$_String_const_iterator@V?$_String_val@U?$_Simple_types@D@std@@@std@@@std@@QEAA@$$QEAV01@@Z 00000001400c3b60 f i libcpmtd:xlocale.obj
 0001:000c2ba0       ??0?$_String_const_iterator@V?$_String_val@U?$_Simple_types@D@std@@@std@@@std@@QEAA@AEBV01@@Z 00000001400c3ba0 f i libcpmtd:xlocale.obj
 0001:000c2be0       ??0?$_String_const_iterator@V?$_String_val@U?$_Simple_types@D@std@@@std@@@std@@QEAA@PEBDPEBU_Container_base12@1@@Z 00000001400c3be0 f i libcpmtd:xlocale.obj
 0001:000c2c30       ??0?$_String_const_iterator@V?$_String_val@U?$_Simple_types@D@std@@@std@@@std@@QEAA@XZ 00000001400c3c30 f i libcpmtd:xlocale.obj
 0001:000c2c60       ??0?$_String_iterator@V?$_String_val@U?$_Simple_types@D@std@@@std@@@std@@QEAA@PEBDPEBU_Container_base12@1@@Z 00000001400c3c60 f i libcpmtd:xlocale.obj
 0001:000c2ca0       ??0?$collate@D@std@@QEAA@AEBV_Locinfo@1@_K@Z 00000001400c3ca0 f i libcpmtd:xlocale.obj
 0001:000c2cf0       ??0?$messages@D@std@@QEAA@AEBV_Locinfo@1@_K@Z 00000001400c3cf0 f i libcpmtd:xlocale.obj
 0001:000c2d40       ??0?$money_get@DV?$istreambuf_iterator@DU?$char_traits@D@std@@@std@@@std@@QEAA@AEBV_Locinfo@1@_K@Z 00000001400c3d40 f i libcpmtd:xlocale.obj
 0001:000c2d90       ??0?$money_put@DV?$ostreambuf_iterator@DU?$char_traits@D@std@@@std@@@std@@QEAA@AEBV_Locinfo@1@_K@Z 00000001400c3d90 f i libcpmtd:xlocale.obj
 0001:000c2de0       ??0?$moneypunct@D$00@std@@QEAA@AEBV_Locinfo@1@_K_N@Z 00000001400c3de0 f i libcpmtd:xlocale.obj
 0001:000c2e40       ??0?$moneypunct@D$0A@@std@@QEAA@AEBV_Locinfo@1@_K_N@Z 00000001400c3e40 f i libcpmtd:xlocale.obj
 0001:000c2ea0       ??0?$time_get@DV?$istreambuf_iterator@DU?$char_traits@D@std@@@std@@@std@@QEAA@AEBV_Locinfo@1@_K@Z 00000001400c3ea0 f i libcpmtd:xlocale.obj
 0001:000c2ef0       ??0?$time_put@DV?$ostreambuf_iterator@DU?$char_traits@D@std@@@std@@@std@@QEAA@AEBV_Locinfo@1@_K@Z 00000001400c3ef0 f i libcpmtd:xlocale.obj
 0001:000c2f60       ??1?$_Mpunct@D@std@@MEAA@XZ 00000001400c3f60 f i libcpmtd:xlocale.obj
 0001:000c2fa0       ??1?$_Tidy_guard@V?$_Mpunct@D@std@@@std@@QEAA@XZ 00000001400c3fa0 f i libcpmtd:xlocale.obj
 0001:000c2fd0       ??1?$_Tidy_guard@V?$time_get@DV?$istreambuf_iterator@DU?$char_traits@D@std@@@std@@@std@@@std@@QEAA@XZ 00000001400c3fd0 f i libcpmtd:xlocale.obj
 0001:000c3000       ??1?$collate@D@std@@MEAA@XZ 00000001400c4000 f i libcpmtd:xlocale.obj
 0001:000c3040       ??1?$messages@D@std@@MEAA@XZ 00000001400c4040 f i libcpmtd:xlocale.obj
 0001:000c3070       ??1?$money_get@DV?$istreambuf_iterator@DU?$char_traits@D@std@@@std@@@std@@MEAA@XZ 00000001400c4070 f i libcpmtd:xlocale.obj
 0001:000c30a0       ??1?$money_put@DV?$ostreambuf_iterator@DU?$char_traits@D@std@@@std@@@std@@MEAA@XZ 00000001400c40a0 f i libcpmtd:xlocale.obj
 0001:000c30d0       ??1?$moneypunct@D$00@std@@MEAA@XZ 00000001400c40d0 f i libcpmtd:xlocale.obj
 0001:000c3100       ??1?$moneypunct@D$0A@@std@@MEAA@XZ 00000001400c4100 f i libcpmtd:xlocale.obj
 0001:000c3130       ??1?$time_get@DV?$istreambuf_iterator@DU?$char_traits@D@std@@@std@@@std@@MEAA@XZ 00000001400c4130 f i libcpmtd:xlocale.obj
 0001:000c3170       ??1?$time_put@DV?$ostreambuf_iterator@DU?$char_traits@D@std@@@std@@@std@@MEAA@XZ 00000001400c4170 f i libcpmtd:xlocale.obj
 0001:000c31b0       ??4?$_String_const_iterator@V?$_String_val@U?$_Simple_types@D@std@@@std@@@std@@QEAAAEAV01@$$QEAV01@@Z 00000001400c41b0 f i libcpmtd:xlocale.obj
 0001:000c31f0       ??8?$_String_const_iterator@V?$_String_val@U?$_Simple_types@D@std@@@std@@@std@@QEBA_NAEBV01@@Z 00000001400c41f0 f i libcpmtd:xlocale.obj
 0001:000c3240       ??9?$_String_const_iterator@V?$_String_val@U?$_Simple_types@D@std@@@std@@@std@@QEBA_NAEBV01@@Z 00000001400c4240 f i libcpmtd:xlocale.obj
 0001:000c3280       ??D?$_String_const_iterator@V?$_String_val@U?$_Simple_types@D@std@@@std@@@std@@QEBAAEBDXZ 00000001400c4280 f i libcpmtd:xlocale.obj
 0001:000c3460       ??D?$_String_iterator@V?$_String_val@U?$_Simple_types@D@std@@@std@@@std@@QEBAAEADXZ 00000001400c4460 f i libcpmtd:xlocale.obj
 0001:000c3480       ??E?$_String_const_iterator@V?$_String_val@U?$_Simple_types@D@std@@@std@@@std@@QEAAAEAV01@XZ 00000001400c4480 f i libcpmtd:xlocale.obj
 0001:000c3660       ??E?$_String_iterator@V?$_String_val@U?$_Simple_types@D@std@@@std@@@std@@QEAAAEAV01@XZ 00000001400c4660 f i libcpmtd:xlocale.obj
 0001:000c3680       ??E?$ostreambuf_iterator@DU?$char_traits@D@std@@@std@@QEAAAEAV01@H@Z 00000001400c4680 f i libcpmtd:xlocale.obj
 0001:000c3690       ??G?$_String_iterator@V?$_String_val@U?$_Simple_types@D@std@@@std@@@std@@QEBA?AV01@_J@Z 00000001400c4690 f i libcpmtd:xlocale.obj
 0001:000c36f0       ??Y?$_String_const_iterator@V?$_String_val@U?$_Simple_types@D@std@@@std@@@std@@QEAAAEAV01@_J@Z 00000001400c46f0 f i libcpmtd:xlocale.obj
 0001:000c3730       ??Y?$_String_iterator@V?$_String_val@U?$_Simple_types@D@std@@@std@@@std@@QEAAAEAV01@_J@Z 00000001400c4730 f i libcpmtd:xlocale.obj
 0001:000c3760       ??Z?$_String_const_iterator@V?$_String_val@U?$_Simple_types@D@std@@@std@@@std@@QEAAAEAV01@_J@Z 00000001400c4760 f i libcpmtd:xlocale.obj
 0001:000c3790       ??Z?$_String_iterator@V?$_String_val@U?$_Simple_types@D@std@@@std@@@std@@QEAAAEAV01@_J@Z 00000001400c4790 f i libcpmtd:xlocale.obj
 0001:000c37c0       ??_G?$_Mpunct@D@std@@MEAAPEAXI@Z 00000001400c47c0 f i libcpmtd:xlocale.obj
 0001:000c37c0       ??_E?$_Mpunct@D@std@@MEAAPEAXI@Z 00000001400c47c0 f i libcpmtd:xlocale.obj
 0001:000c3820       ??_G?$collate@D@std@@MEAAPEAXI@Z 00000001400c4820 f i libcpmtd:xlocale.obj
 0001:000c3820       ??_E?$collate@D@std@@MEAAPEAXI@Z 00000001400c4820 f i libcpmtd:xlocale.obj
 0001:000c3880       ??_E?$messages@D@std@@MEAAPEAXI@Z 00000001400c4880 f i libcpmtd:xlocale.obj
 0001:000c3880       ??_G?$messages@D@std@@MEAAPEAXI@Z 00000001400c4880 f i libcpmtd:xlocale.obj
 0001:000c38e0       ??_E?$money_get@DV?$istreambuf_iterator@DU?$char_traits@D@std@@@std@@@std@@MEAAPEAXI@Z 00000001400c48e0 f i libcpmtd:xlocale.obj
 0001:000c38e0       ??_G?$money_get@DV?$istreambuf_iterator@DU?$char_traits@D@std@@@std@@@std@@MEAAPEAXI@Z 00000001400c48e0 f i libcpmtd:xlocale.obj
 0001:000c3940       ??_G?$money_put@DV?$ostreambuf_iterator@DU?$char_traits@D@std@@@std@@@std@@MEAAPEAXI@Z 00000001400c4940 f i libcpmtd:xlocale.obj
 0001:000c3940       ??_E?$money_put@DV?$ostreambuf_iterator@DU?$char_traits@D@std@@@std@@@std@@MEAAPEAXI@Z 00000001400c4940 f i libcpmtd:xlocale.obj
 0001:000c39a0       ??_E?$moneypunct@D$00@std@@MEAAPEAXI@Z 00000001400c49a0 f i libcpmtd:xlocale.obj
 0001:000c39a0       ??_G?$moneypunct@D$00@std@@MEAAPEAXI@Z 00000001400c49a0 f i libcpmtd:xlocale.obj
 0001:000c3a00       ??_E?$moneypunct@D$0A@@std@@MEAAPEAXI@Z 00000001400c4a00 f i libcpmtd:xlocale.obj
 0001:000c3a00       ??_G?$moneypunct@D$0A@@std@@MEAAPEAXI@Z 00000001400c4a00 f i libcpmtd:xlocale.obj
 0001:000c3a60       ??_G?$time_get@DV?$istreambuf_iterator@DU?$char_traits@D@std@@@std@@@std@@MEAAPEAXI@Z 00000001400c4a60 f i libcpmtd:xlocale.obj
 0001:000c3a60       ??_E?$time_get@DV?$istreambuf_iterator@DU?$char_traits@D@std@@@std@@@std@@MEAAPEAXI@Z 00000001400c4a60 f i libcpmtd:xlocale.obj
 0001:000c3ac0       ??_G?$time_put@DV?$ostreambuf_iterator@DU?$char_traits@D@std@@@std@@@std@@MEAAPEAXI@Z 00000001400c4ac0 f i libcpmtd:xlocale.obj
 0001:000c3ac0       ??_E?$time_put@DV?$ostreambuf_iterator@DU?$char_traits@D@std@@@std@@@std@@MEAAPEAXI@Z 00000001400c4ac0 f i libcpmtd:xlocale.obj
 0001:000c3b20       ?_Getcat@?$collate@D@std@@SA_KPEAPEBVfacet@locale@2@PEBV42@@Z 00000001400c4b20 f i libcpmtd:xlocale.obj
 0001:000c3c90       ?_Getcat@?$messages@D@std@@SA_KPEAPEBVfacet@locale@2@PEBV42@@Z 00000001400c4c90 f i libcpmtd:xlocale.obj
 0001:000c3d90       ?_Getcat@?$money_get@DV?$istreambuf_iterator@DU?$char_traits@D@std@@@std@@@std@@SA_KPEAPEBVfacet@locale@2@PEBV42@@Z 00000001400c4d90 f i libcpmtd:xlocale.obj
 0001:000c3e90       ?_Getcat@?$money_put@DV?$ostreambuf_iterator@DU?$char_traits@D@std@@@std@@@std@@SA_KPEAPEBVfacet@locale@2@PEBV42@@Z 00000001400c4e90 f i libcpmtd:xlocale.obj
 0001:000c3f90       ?_Getcat@?$moneypunct@D$00@std@@SA_KPEAPEBVfacet@locale@2@PEBV42@@Z 00000001400c4f90 f i libcpmtd:xlocale.obj
 0001:000c4090       ?_Getcat@?$moneypunct@D$0A@@std@@SA_KPEAPEBVfacet@locale@2@PEBV42@@Z 00000001400c5090 f i libcpmtd:xlocale.obj
 0001:000c4190       ?_Getcat@?$time_get@DV?$istreambuf_iterator@DU?$char_traits@D@std@@@std@@@std@@SA_KPEAPEBVfacet@locale@2@PEBV42@@Z 00000001400c5190 f i libcpmtd:xlocale.obj
 0001:000c4290       ?_Getcat@?$time_put@DV?$ostreambuf_iterator@DU?$char_traits@D@std@@@std@@@std@@SA_KPEAPEBVfacet@locale@2@PEBV42@@Z 00000001400c5290 f i libcpmtd:xlocale.obj
 0001:000c4390       ?_Getfmt@?$time_get@DV?$istreambuf_iterator@DU?$char_traits@D@std@@@std@@@std@@IEBA?AV?$istreambuf_iterator@DU?$char_traits@D@std@@@2@V32@0AEAVios_base@2@AEAHPEAUtm@@PEBD@Z 00000001400c5390 f i libcpmtd:xlocale.obj
 0001:000c4620       ?_Getint@?$time_get@DV?$istreambuf_iterator@DU?$char_traits@D@std@@@std@@@std@@AEBAHAEAV?$istreambuf_iterator@DU?$char_traits@D@std@@@2@0HHAEAHAEBV?$ctype@D@2@@Z 00000001400c5620 f i libcpmtd:xlocale.obj
 0001:000c48f0       ?_Getmfld@?$money_get@DV?$istreambuf_iterator@DU?$char_traits@D@std@@@std@@@std@@AEBA?AV?$basic_string@DU?$char_traits@D@std@@V?$allocator@D@2@@2@AEAV?$istreambuf_iterator@DU?$char_traits@D@std@@@2@0_NAEAVios_base@2@AEAY0M@D@Z 00000001400c58f0 f i libcpmtd:xlocale.obj
 0001:000c59d0       ?_Gettnames@_Locinfo@std@@QEBA?AV_Timevec@2@XZ 00000001400c69d0 f i libcpmtd:xlocale.obj
 0001:000c5a10       ?_Init@?$_Mpunct@D@std@@IEAAXAEBV_Locinfo@2@_N@Z 00000001400c6a10 f i libcpmtd:xlocale.obj
 0001:000c5c60       ?_Init@?$collate@D@std@@IEAAXAEBV_Locinfo@2@@Z 00000001400c6c60 f i libcpmtd:xlocale.obj
 0001:000c5ca0       ?_Init@?$messages@D@std@@IEAAXAEBV_Locinfo@2@@Z 00000001400c6ca0 f i libcpmtd:xlocale.obj
 0001:000c5cb0       ?_Init@?$money_get@DV?$istreambuf_iterator@DU?$char_traits@D@std@@@std@@@std@@IEAAXAEBV_Locinfo@2@@Z 00000001400c6cb0 f i libcpmtd:xlocale.obj
 0001:000c5cc0       ?_Init@?$money_put@DV?$ostreambuf_iterator@DU?$char_traits@D@std@@@std@@@std@@IEAAXAEBV_Locinfo@2@@Z 00000001400c6cc0 f i libcpmtd:xlocale.obj
 0001:000c5cd0       ?_Init@?$time_get@DV?$istreambuf_iterator@DU?$char_traits@D@std@@@std@@@std@@IEAAXAEBV_Locinfo@2@@Z 00000001400c6cd0 f i libcpmtd:xlocale.obj
 0001:000c5d50       ?_Init@?$time_put@DV?$ostreambuf_iterator@DU?$char_traits@D@std@@@std@@@std@@IEAAXAEBV_Locinfo@2@@Z 00000001400c6d50 f i libcpmtd:xlocale.obj
 0001:000c5db0       ?_Makexloc@_Locimp@locale@std@@CAXAEBV_Locinfo@3@HPEAV123@PEBV23@@Z 00000001400c6db0 f   libcpmtd:xlocale.obj
 0001:000c6690       ?_Makpat@?$_Mpunct@D@std@@AEAAXAEAUpattern@money_base@2@III@Z 00000001400c7690 f i libcpmtd:xlocale.obj
 0001:000c6730       ?_Put@?$money_put@DV?$ostreambuf_iterator@DU?$char_traits@D@std@@@std@@@std@@CA?AV?$ostreambuf_iterator@DU?$char_traits@D@std@@@2@V32@V?$_String_const_iterator@V?$_String_val@U?$_Simple_types@D@std@@@std@@@2@_K@Z 00000001400c7730 f i libcpmtd:xlocale.obj
 0001:000c67d0       ?_Putmfld@?$money_put@DV?$ostreambuf_iterator@DU?$char_traits@D@std@@@std@@@std@@AEBA?AV?$ostreambuf_iterator@DU?$char_traits@D@std@@@2@V32@_NAEAVios_base@2@D1V?$basic_string@DU?$char_traits@D@std@@V?$allocator@D@2@@2@D@Z 00000001400c77d0 f i libcpmtd:xlocale.obj
 0001:000c7900       ?_Rep@?$money_put@DV?$ostreambuf_iterator@DU?$char_traits@D@std@@@std@@@std@@CA?AV?$ostreambuf_iterator@DU?$char_traits@D@std@@@2@V32@D_K@Z 00000001400c8900 f i libcpmtd:xlocale.obj
 0001:000c7980       ?_Tidy@?$_Mpunct@D@std@@AEAAXXZ 00000001400c8980 f i libcpmtd:xlocale.obj
 0001:000c79d0       ?_Tidy@?$time_get@DV?$istreambuf_iterator@DU?$char_traits@D@std@@@std@@@std@@AEAAXXZ 00000001400c89d0 f i libcpmtd:xlocale.obj
 0001:000c7a10       ?curr_symbol@?$_Mpunct@D@std@@QEBA?AV?$basic_string@DU?$char_traits@D@std@@V?$allocator@D@2@@2@XZ 00000001400c8a10 f i libcpmtd:xlocale.obj
 0001:000c7a70       ?date_order@?$time_get@DV?$istreambuf_iterator@DU?$char_traits@D@std@@@std@@@std@@QEBA?AW4dateorder@time_base@2@XZ 00000001400c8a70 f i libcpmtd:xlocale.obj
 0001:000c7aa0       ?decimal_point@?$_Mpunct@D@std@@QEBADXZ 00000001400c8aa0 f i libcpmtd:xlocale.obj
 0001:000c7ad0       ?do_close@?$messages@D@std@@MEBAXH@Z 00000001400c8ad0 f i libcpmtd:xlocale.obj
 0001:000c7ae0       ?do_compare@?$collate@D@std@@MEBAHPEBD000@Z 00000001400c8ae0 f i libcpmtd:xlocale.obj
 0001:000c7b80       ?do_curr_symbol@?$_Mpunct@D@std@@MEBA?AV?$basic_string@DU?$char_traits@D@std@@V?$allocator@D@2@@2@XZ 00000001400c8b80 f i libcpmtd:xlocale.obj
 0001:000c7bc0       ?do_date_order@?$time_get@DV?$istreambuf_iterator@DU?$char_traits@D@std@@@std@@@std@@MEBA?AW4dateorder@time_base@2@XZ 00000001400c8bc0 f i libcpmtd:xlocale.obj
 0001:000c7bd0       ?do_decimal_point@?$_Mpunct@D@std@@MEBADXZ 00000001400c8bd0 f i libcpmtd:xlocale.obj
 0001:000c7be0       ?do_frac_digits@?$_Mpunct@D@std@@MEBAHXZ 00000001400c8be0 f i libcpmtd:xlocale.obj
 0001:000c7bf0       ?do_get@?$messages@D@std@@MEBA?AV?$basic_string@DU?$char_traits@D@std@@V?$allocator@D@2@@2@HHHAEBV32@@Z 00000001400c8bf0 f i libcpmtd:xlocale.obj
 0001:000c7c40       ?do_get@?$money_get@DV?$istreambuf_iterator@DU?$char_traits@D@std@@@std@@@std@@MEBA?AV?$istreambuf_iterator@DU?$char_traits@D@std@@@2@V32@0_NAEAVios_base@2@AEAHAEAO@Z 00000001400c8c40 f i libcpmtd:xlocale.obj
 0001:000c7dd0       ?do_get@?$money_get@DV?$istreambuf_iterator@DU?$char_traits@D@std@@@std@@@std@@MEBA?AV?$istreambuf_iterator@DU?$char_traits@D@std@@@2@V32@0_NAEAVios_base@2@AEAHAEAV?$basic_string@DU?$char_traits@D@std@@V?$allocator@D@2@@2@@Z 00000001400c8dd0 f i libcpmtd:xlocale.obj
 0001:000c7fd0       ?do_get@?$time_get@DV?$istreambuf_iterator@DU?$char_traits@D@std@@@std@@@std@@MEBA?AV?$istreambuf_iterator@DU?$char_traits@D@std@@@2@V32@0AEAVios_base@2@AEAHPEAUtm@@DD@Z 00000001400c8fd0 f i libcpmtd:xlocale.obj
 0001:000c8e90       ?do_get_date@?$time_get@DV?$istreambuf_iterator@DU?$char_traits@D@std@@@std@@@std@@MEBA?AV?$istreambuf_iterator@DU?$char_traits@D@std@@@2@V32@0AEAVios_base@2@AEAHPEAUtm@@@Z 00000001400c9e90 f i libcpmtd:xlocale.obj
 0001:000c98f0       ?do_get_monthname@?$time_get@DV?$istreambuf_iterator@DU?$char_traits@D@std@@@std@@@std@@MEBA?AV?$istreambuf_iterator@DU?$char_traits@D@std@@@2@V32@0AEAVios_base@2@AEAHPEAUtm@@@Z 00000001400ca8f0 f i libcpmtd:xlocale.obj
 0001:000c9980       ?do_get_time@?$time_get@DV?$istreambuf_iterator@DU?$char_traits@D@std@@@std@@@std@@MEBA?AV?$istreambuf_iterator@DU?$char_traits@D@std@@@2@V32@0AEAVios_base@2@AEAHPEAUtm@@@Z 00000001400ca980 f i libcpmtd:xlocale.obj
 0001:000c9c20       ?do_get_weekday@?$time_get@DV?$istreambuf_iterator@DU?$char_traits@D@std@@@std@@@std@@MEBA?AV?$istreambuf_iterator@DU?$char_traits@D@std@@@2@V32@0AEAVios_base@2@AEAHPEAUtm@@@Z 00000001400cac20 f i libcpmtd:xlocale.obj
 0001:000c9cb0       ?do_get_year@?$time_get@DV?$istreambuf_iterator@DU?$char_traits@D@std@@@std@@@std@@MEBA?AV?$istreambuf_iterator@DU?$char_traits@D@std@@@2@V32@0AEAVios_base@2@AEAHPEAUtm@@@Z 00000001400cacb0 f i libcpmtd:xlocale.obj
 0001:000c9de0       ?do_grouping@?$_Mpunct@D@std@@MEBA?AV?$basic_string@DU?$char_traits@D@std@@V?$allocator@D@2@@2@XZ 00000001400cade0 f i libcpmtd:xlocale.obj
 0001:000c9e20       ?do_hash@?$collate@D@std@@MEBAJPEBD0@Z 00000001400cae20 f i libcpmtd:xlocale.obj
 0001:000c9e70       ?do_neg_format@?$_Mpunct@D@std@@MEBA?AUpattern@money_base@2@XZ 00000001400cae70 f i libcpmtd:xlocale.obj
 0001:000c9e90       ?do_negative_sign@?$_Mpunct@D@std@@MEBA?AV?$basic_string@DU?$char_traits@D@std@@V?$allocator@D@2@@2@XZ 00000001400cae90 f i libcpmtd:xlocale.obj
 0001:000c9ed0       ?do_open@?$messages@D@std@@MEBAHAEBV?$basic_string@DU?$char_traits@D@std@@V?$allocator@D@2@@2@AEBVlocale@2@@Z 00000001400caed0 f i libcpmtd:xlocale.obj
 0001:000c9ef0       ?do_pos_format@?$_Mpunct@D@std@@MEBA?AUpattern@money_base@2@XZ 00000001400caef0 f i libcpmtd:xlocale.obj
 0001:000c9f10       ?do_positive_sign@?$_Mpunct@D@std@@MEBA?AV?$basic_string@DU?$char_traits@D@std@@V?$allocator@D@2@@2@XZ 00000001400caf10 f i libcpmtd:xlocale.obj
 0001:000c9f50       ?do_put@?$money_put@DV?$ostreambuf_iterator@DU?$char_traits@D@std@@@std@@@std@@MEBA?AV?$ostreambuf_iterator@DU?$char_traits@D@std@@@2@V32@_NAEAVios_base@2@DAEBV?$basic_string@DU?$char_traits@D@std@@V?$allocator@D@2@@2@@Z 00000001400caf50 f i libcpmtd:xlocale.obj
 0001:000ca280       ?do_put@?$money_put@DV?$ostreambuf_iterator@DU?$char_traits@D@std@@@std@@@std@@MEBA?AV?$ostreambuf_iterator@DU?$char_traits@D@std@@@2@V32@_NAEAVios_base@2@DO@Z 00000001400cb280 f i libcpmtd:xlocale.obj
 0001:000ca540       ?do_put@?$time_put@DV?$ostreambuf_iterator@DU?$char_traits@D@std@@@std@@@std@@MEBA?AV?$ostreambuf_iterator@DU?$char_traits@D@std@@@2@V32@AEAVios_base@2@DPEBUtm@@DD@Z 00000001400cb540 f i libcpmtd:xlocale.obj
 0001:000ca760       ?do_thousands_sep@?$_Mpunct@D@std@@MEBADXZ 00000001400cb760 f i libcpmtd:xlocale.obj
 0001:000ca770       ?do_transform@?$collate@D@std@@MEBA?AV?$basic_string@DU?$char_traits@D@std@@V?$allocator@D@2@@2@PEBD0@Z 00000001400cb770 f i libcpmtd:xlocale.obj
 0001:000ca900       ?frac_digits@?$_Mpunct@D@std@@QEBAHXZ 00000001400cb900 f i libcpmtd:xlocale.obj
 0001:000ca930       ?get_monthname@?$time_get@DV?$istreambuf_iterator@DU?$char_traits@D@std@@@std@@@std@@QEBA?AV?$istreambuf_iterator@DU?$char_traits@D@std@@@2@V32@0AEAVios_base@2@AEAHPEAUtm@@@Z 00000001400cb930 f i libcpmtd:xlocale.obj
 0001:000caa00       ?get_weekday@?$time_get@DV?$istreambuf_iterator@DU?$char_traits@D@std@@@std@@@std@@QEBA?AV?$istreambuf_iterator@DU?$char_traits@D@std@@@2@V32@0AEAVios_base@2@AEAHPEAUtm@@@Z 00000001400cba00 f i libcpmtd:xlocale.obj
 0001:000caad0       ?get_year@?$time_get@DV?$istreambuf_iterator@DU?$char_traits@D@std@@@std@@@std@@QEBA?AV?$istreambuf_iterator@DU?$char_traits@D@std@@@2@V32@0AEAVios_base@2@AEAHPEAUtm@@@Z 00000001400cbad0 f i libcpmtd:xlocale.obj
 0001:000caba0       ?grouping@?$_Mpunct@D@std@@QEBA?AV?$basic_string@DU?$char_traits@D@std@@V?$allocator@D@2@@2@XZ 00000001400cbba0 f i libcpmtd:xlocale.obj
 0001:000cac00       ?is@?$ctype@D@std@@QEBA_NFD@Z 00000001400cbc00 f i libcpmtd:xlocale.obj
 0001:000cac50       ?narrow@?$ctype@D@std@@QEBADDD@Z 00000001400cbc50 f i libcpmtd:xlocale.obj
 0001:000caca0       ?neg_format@?$_Mpunct@D@std@@QEBA?AUpattern@money_base@2@XZ 00000001400cbca0 f i libcpmtd:xlocale.obj
 0001:000cacf0       ?negative_sign@?$_Mpunct@D@std@@QEBA?AV?$basic_string@DU?$char_traits@D@std@@V?$allocator@D@2@@2@XZ 00000001400cbcf0 f i libcpmtd:xlocale.obj
 0001:000cad50       ?pos_format@?$_Mpunct@D@std@@QEBA?AUpattern@money_base@2@XZ 00000001400cbd50 f i libcpmtd:xlocale.obj
 0001:000cada0       ?positive_sign@?$_Mpunct@D@std@@QEBA?AV?$basic_string@DU?$char_traits@D@std@@V?$allocator@D@2@@2@XZ 00000001400cbda0 f i libcpmtd:xlocale.obj
 0001:000cae00       ?thousands_sep@?$_Mpunct@D@std@@QEBADXZ 00000001400cbe00 f i libcpmtd:xlocale.obj
 0001:000cae30       _Stolx                     00000001400cbe30 f   libcpmtd:xstol.obj
 0001:000cafb0       _Stoul                     00000001400cbfb0 f   libcpmtd:xstoul.obj
 0001:000cafe0       _Stoulx                    00000001400cbfe0 f   libcpmtd:xstoul.obj
 0001:000cb380       _Stoll                     00000001400cc380 f   libcpmtd:xstoll.obj
 0001:000cb3b0       _Stollx                    00000001400cc3b0 f   libcpmtd:xstoll.obj
 0001:000cb550       _Stoull                    00000001400cc550 f   libcpmtd:xstoull.obj
 0001:000cb580       _Stoullx                   00000001400cc580 f   libcpmtd:xstoull.obj
 0001:000cbf50       __crtAcquireSRWLockExclusive 00000001400ccf50 f   libcpmtd:winapisupp.obj
 0001:000cbfa0       __crtCloseThreadpoolTimer  00000001400ccfa0 f   libcpmtd:winapisupp.obj
 0001:000cc000       __crtCloseThreadpoolWait   00000001400cd000 f   libcpmtd:winapisupp.obj
 0001:000cc060       __crtCloseThreadpoolWork   00000001400cd060 f   libcpmtd:winapisupp.obj
 0001:000cc0b0       __crtCreateEventExW        00000001400cd0b0 f   libcpmtd:winapisupp.obj
 0001:000cc150       __crtCreateSemaphoreExW    00000001400cd150 f   libcpmtd:winapisupp.obj
 0001:000cc250       __crtCreateSymbolicLinkW   00000001400cd250 f   libcpmtd:winapisupp.obj
 0001:000cc2d0       __crtCreateThreadpoolTimer 00000001400cd2d0 f   libcpmtd:winapisupp.obj
 0001:000cc340       __crtCreateThreadpoolWait  00000001400cd340 f   libcpmtd:winapisupp.obj
 0001:000cc3b0       __crtCreateThreadpoolWork  00000001400cd3b0 f   libcpmtd:winapisupp.obj
 0001:000cc410       __crtFlsAlloc              00000001400cd410 f   libcpmtd:winapisupp.obj
 0001:000cc470       __crtFlsFree               00000001400cd470 f   libcpmtd:winapisupp.obj
 0001:000cc4d0       __crtFlsGetValue           00000001400cd4d0 f   libcpmtd:winapisupp.obj
 0001:000cc530       __crtFlsSetValue           00000001400cd530 f   libcpmtd:winapisupp.obj
 0001:000cc5a0       __crtFlushProcessWriteBuffers 00000001400cd5a0 f   libcpmtd:winapisupp.obj
 0001:000cc5e0       __crtFreeLibraryWhenCallbackReturns 00000001400cd5e0 f   libcpmtd:winapisupp.obj
 0001:000cc640       __crtGetCurrentProcessorNumber 00000001400cd640 f   libcpmtd:winapisupp.obj
 0001:000cc690       __crtGetFileInformationByHandleEx 00000001400cd690 f   libcpmtd:winapisupp.obj
 0001:000cc710       __crtGetSystemTimePreciseAsFileTime 00000001400cd710 f   libcpmtd:winapisupp.obj
 0001:000cc770       __crtGetTickCount64        00000001400cd770 f   libcpmtd:winapisupp.obj
 0001:000cc7c0       __crtInitOnceExecuteOnce   00000001400cd7c0 f   libcpmtd:winapisupp.obj
 0001:000cc970       __crtInitializeConditionVariable 00000001400cd970 f   libcpmtd:winapisupp.obj
 0001:000cc9c0       __crtInitializeCriticalSectionEx 00000001400cd9c0 f   libcpmtd:winapisupp.obj
 0001:000cca40       __crtInitializeSRWLock     00000001400cda40 f   libcpmtd:winapisupp.obj
 0001:000cca90       __crtIsPackagedApp         00000001400cda90 f   libcpmtd:winapisupp.obj
 0001:000ccad0       __crtReleaseSRWLockExclusive 00000001400cdad0 f   libcpmtd:winapisupp.obj
 0001:000ccb20       __crtSetFileInformationByHandle 00000001400cdb20 f   libcpmtd:winapisupp.obj
 0001:000ccba0       __crtSetThreadpoolTimer    00000001400cdba0 f   libcpmtd:winapisupp.obj
 0001:000ccc20       __crtSetThreadpoolWait     00000001400cdc20 f   libcpmtd:winapisupp.obj
 0001:000ccc90       __crtSleepConditionVariableCS 00000001400cdc90 f   libcpmtd:winapisupp.obj
 0001:000cccf0       __crtSleepConditionVariableSRW 00000001400cdcf0 f   libcpmtd:winapisupp.obj
 0001:000ccd60       __crtSubmitThreadpoolWork  00000001400cdd60 f   libcpmtd:winapisupp.obj
 0001:000ccdb0       __crtTryAcquireSRWLockExclusive 00000001400cddb0 f   libcpmtd:winapisupp.obj
 0001:000cce00       __crtWaitForThreadpoolTimerCallbacks 00000001400cde00 f   libcpmtd:winapisupp.obj
 0001:000cce60       __crtWakeAllConditionVariable 00000001400cde60 f   libcpmtd:winapisupp.obj
 0001:000cceb0       __crtWakeConditionVariable 00000001400cdeb0 f   libcpmtd:winapisupp.obj
 0001:000ccf00       __crt_IsPackagedAppHelper  00000001400cdf00 f   libcpmtd:winapisupp.obj
 0001:000ccf80       GetTableIndexFromLcid      00000001400cdf80 f   libcpmtd:winapinls.obj
 0001:000cd010       GetTableIndexFromLocaleName 00000001400ce010 f   libcpmtd:winapinls.obj
 0001:000cd0c0       __crtCompareStringEx       00000001400ce0c0 f   libcpmtd:winapinls.obj
 0001:000cd1c0       __crtDownlevelLCIDToLocaleName 00000001400ce1c0 f   libcpmtd:winapinls.obj
 0001:000cd290       __crtDownlevelLocaleNameToLCID 00000001400ce290 f   libcpmtd:winapinls.obj
 0001:000cd2f0       __crtGetLocaleInfoEx       00000001400ce2f0 f   libcpmtd:winapinls.obj
 0001:000cd390       __crtLCMapStringEx         00000001400ce390 f   libcpmtd:winapinls.obj
 0001:000cd490       __wcsnicmp_ascii           00000001400ce490 f   libcpmtd:winapinls.obj
 0001:000cd5a0       _Getcoll                   00000001400ce5a0 f   libcpmtd:xstrcoll.obj
 0001:000cd620       _Strcoll                   00000001400ce620 f   libcpmtd:xstrcoll.obj
 0001:000cd7c0       _Getdateorder              00000001400ce7c0 f   libcpmtd:xdateord.obj
 0001:000cd850       _Wcscoll                   00000001400ce850 f   libcpmtd:xwcscoll.obj
 0001:000cd9d0       wmemcmp                    00000001400ce9d0 f i libcpmtd:xwcscoll.obj
 0001:000cda60       ??$?RE@__crt_internal_free_policy@@QEBAXQEBE@Z 00000001400cea60 f i libcpmtd:xwcsxfrm.obj
 0001:000cda90       ??0?$__crt_unique_heap_ptr@EU__crt_internal_free_policy@@@@QEAA@QEAE@Z 00000001400cea90 f i libcpmtd:xwcsxfrm.obj
 0001:000cdab0       ??1?$__crt_unique_heap_ptr@EU__crt_internal_free_policy@@@@QEAA@XZ 00000001400ceab0 f i libcpmtd:xwcsxfrm.obj
 0001:000cdad0       ??B?$__crt_unique_heap_ptr@EU__crt_internal_free_policy@@@@QEBA_NXZ 00000001400cead0 f i libcpmtd:xwcsxfrm.obj
 0001:000cdaf0       ?get@?$__crt_unique_heap_ptr@EU__crt_internal_free_policy@@@@QEBAPEAEXZ 00000001400ceaf0 f i libcpmtd:xwcsxfrm.obj
 0001:000cdb00       ?is_valid@?$__crt_unique_heap_ptr@EU__crt_internal_free_policy@@@@QEBA_NXZ 00000001400ceb00 f i libcpmtd:xwcsxfrm.obj
 0001:000cdb30       ?release@?$__crt_unique_heap_ptr@EU__crt_internal_free_policy@@@@QEAAXXZ 00000001400ceb30 f i libcpmtd:xwcsxfrm.obj
 0001:000cdb60       _Wcsxfrm                   00000001400ceb60 f   libcpmtd:xwcsxfrm.obj
 0001:000cdd50       _Getwctype                 00000001400ced50 f   libcpmtd:xgetwctype.obj
 0001:000cdda0       _Getwctypes                00000001400ceda0 f   libcpmtd:xgetwctype.obj
 0001:000cddf0       _Towlower                  00000001400cedf0 f   libcpmtd:xtowlower.obj
 0001:000cdea0       _Towupper                  00000001400ceea0 f   libcpmtd:xtowupper.obj
 0001:000cdf50       _Strxfrm                   00000001400cef50 f   libcpmtd:xstrxfrm.obj
 0001:000ce0e0       __crtCompareStringA        00000001400cf0e0 f   libcpmtd:StlCompareStringA.obj
 0001:000ce760       __crtCompareStringW        00000001400cf760 f   libcpmtd:StlCompareStringW.obj
 0001:000ce840       __crtLCMapStringW          00000001400cf840 f   libcpmtd:StlLCMapStringW.obj
 0001:000ce8d0       ??_L@YAXPEAX_K1P6AX0@Z2@Z  00000001400cf8d0 f   LIBCMTD:ehvecctr.obj
 0001:000ce980       ??_L@YAXPEAX_KHP6AX0@Z2@Z  00000001400cf980 f   LIBCMTD:ehvecctr.obj
 0001:000ce9d0       ??_M@YAXPEAX_K1P6AX0@Z@Z   00000001400cf9d0 f   LIBCMTD:ehvecdtr.obj
 0001:000cea90       ??_M@YAXPEAX_KHP6AX0@Z@Z   00000001400cfa90 f   LIBCMTD:ehvecdtr.obj
 0001:000ceb40       ?__ArrayUnwind@@YAXPEAX_K1P6AX0@Z@Z 00000001400cfb40 f   LIBCMTD:ehvecdtr.obj
 0001:000cebc0       ??2@YAPEAX_K@Z             00000001400cfbc0 f   LIBCMTD:new_scalar.obj
 0001:000cec10       ??3@YAXPEAX_K@Z            00000001400cfc10 f   LIBCMTD:delete_scalar_size.obj
 0001:000cec30       ??_V@YAXPEAX@Z             00000001400cfc30 f   LIBCMTD:delete_array.obj
 0001:000cec50       __CheckForDebuggerJustMyCode 00000001400cfc50 f   LIBCMTD:debugger_jmc.obj
 0001:000cec90       __GSHandlerCheck           00000001400cfc90 f   LIBCMTD:gshandler.obj
 0001:000cecd0       __GSHandlerCheckCommon     00000001400cfcd0 f   LIBCMTD:gshandler.obj
 0001:000cedd0       __GSHandlerCheck_EH4       00000001400cfdd0 f   LIBCMTD:gshandlereh4.obj
 0001:000cee90       __security_check_cookie    00000001400cfe90 f   LIBCMTD:amdsecgs.obj
 0001:000ceec0       ??1type_info@@UEAA@XZ      00000001400cfec0 f   LIBCMTD:std_type_info_static.obj
 0001:000ceee0       ??_Etype_info@@UEAAPEAXI@Z 00000001400cfee0 f i LIBCMTD:std_type_info_static.obj
 0001:000ceee0       ??_Gtype_info@@UEAAPEAXI@Z 00000001400cfee0 f i LIBCMTD:std_type_info_static.obj
 0001:000cef20       ?__scrt_initialize_type_info@@YAXXZ 00000001400cff20 f   LIBCMTD:tncleanup.obj
 0001:000cef40       ?__scrt_uninitialize_type_info@@YAXXZ 00000001400cff40 f   LIBCMTD:tncleanup.obj
 0001:000cef60       ??_U@YAPEAX_K@Z            00000001400cff60 f   LIBCMTD:new_array.obj
 0001:000cf230       ?configure_argv@__scrt_narrow_argv_policy@@SAHXZ 00000001400d0230 f i LIBCMTD:exe_main.obj
 0001:000cf250       ?initialize_environment@__scrt_narrow_environment_policy@@SAHXZ 00000001400d0250 f i LIBCMTD:exe_main.obj
 0001:000cf2a0       ?set_app_type@__scrt_main_policy@@SAXXZ 00000001400d02a0 f i LIBCMTD:exe_main.obj
 0001:000cf2c0       ?set_commode@__scrt_file_policy@@SAXXZ 00000001400d02c0 f i LIBCMTD:exe_main.obj
 0001:000cf2e0       ?set_fmode@__scrt_file_policy@@SAXXZ 00000001400d02e0 f i LIBCMTD:exe_main.obj
 0001:000cf300       mainCRTStartup             00000001400d0300 f   LIBCMTD:exe_main.obj
 0001:000cf470       NtCurrentTeb               00000001400d0470 f i LIBCMTD:utility.obj
 0001:000cf480       __scrt_acquire_startup_lock 00000001400d0480 f   LIBCMTD:utility.obj
 0001:000cf4f0       __scrt_dllmain_after_initialize_c 00000001400d04f0 f   LIBCMTD:utility.obj
 0001:000cf520       __scrt_dllmain_before_initialize_c 00000001400d0520 f   LIBCMTD:utility.obj
 0001:000cf540       __scrt_dllmain_crt_thread_attach 00000001400d0540 f   LIBCMTD:utility.obj
 0001:000cf570       __scrt_dllmain_crt_thread_detach 00000001400d0570 f   LIBCMTD:utility.obj
 0001:000cf590       __scrt_dllmain_exception_filter 00000001400d0590 f   LIBCMTD:utility.obj
 0001:000cf600       __scrt_dllmain_uninitialize_c 00000001400d0600 f   LIBCMTD:utility.obj
 0001:000cf630       __scrt_dllmain_uninitialize_critical 00000001400d0630 f   LIBCMTD:utility.obj
 0001:000cf650       __scrt_initialize_crt      00000001400d0650 f   LIBCMTD:utility.obj
 0001:000cf6a0       __scrt_initialize_onexit_tables 00000001400d06a0 f   LIBCMTD:utility.obj
 0001:000cf7b0       __scrt_is_nonwritable_in_current_image 00000001400d07b0 f   LIBCMTD:utility.obj
 0001:000cf840       __scrt_release_startup_lock 00000001400d0840 f   LIBCMTD:utility.obj
 0001:000cf870       __scrt_uninitialize_crt    00000001400d0870 f   LIBCMTD:utility.obj
 0001:000cf8b0       _onexit                    00000001400d08b0 f   LIBCMTD:utility.obj
 0001:000cf930       at_quick_exit              00000001400d0930 f   LIBCMTD:utility.obj
 0001:000cf980       atexit                     00000001400d0980 f   LIBCMTD:utility.obj
 0001:000cf9d0       _alloca_probe              00000001400d09d0 f   LIBCMTD:chkstk.obj
 0001:000cf9d0       __chkstk                   00000001400d09d0 f   LIBCMTD:chkstk.obj
 0001:000cfa30       __raise_securityfailure    00000001400d0a30 f   LIBCMTD:gs_report.obj
 0001:000cfa70       __report_gsfailure         00000001400d0a70 f   LIBCMTD:gs_report.obj
 0001:000cfb50       __report_rangecheckfailure 00000001400d0b50 f   LIBCMTD:gs_report.obj
 0001:000cfb70       __report_securityfailure   00000001400d0b70 f   LIBCMTD:gs_report.obj
 0001:000cfc10       __report_securityfailureEx 00000001400d0c10 f   LIBCMTD:gs_report.obj
 0001:000cfe80       _RTC_AllocaHelper          00000001400d0e80 f   LIBCMTD:stack.obj
 0001:000cfec0       _RTC_CheckStackVars        00000001400d0ec0 f   LIBCMTD:stack.obj
 0001:000cff50       _RTC_CheckStackVars2       00000001400d0f50 f   LIBCMTD:stack.obj
 0001:000d0060       _CRT_RTC_INIT              00000001400d1060 f   LIBCMTD:init.obj
 0001:000d0070       _CRT_RTC_INITW             00000001400d1070 f   LIBCMTD:init.obj
 0001:000d0080       _RTC_InitBase              00000001400d1080 f   LIBCMTD:init.obj
 0001:000d00c0       _RTC_Shutdown              00000001400d10c0 f   LIBCMTD:init.obj
 0001:000d00f0       _guard_check_icall_nop     00000001400d10f0 f i LIBCMTD:guard_support.obj
 0001:000d0100       ReadNoFence64              00000001400d1100 f i LIBCMTD:guard_support.obj
 0001:000d0120       ReadPointerNoFence         00000001400d1120 f i LIBCMTD:guard_support.obj
 0001:000d0140       __castguard_check_failure_debugbreak 00000001400d1140 f i LIBCMTD:guard_support.obj
 0001:000d0160       __castguard_check_failure_fastfail 00000001400d1160 f i LIBCMTD:guard_support.obj
 0001:000d0190       __castguard_check_failure_nop 00000001400d1190 f i LIBCMTD:guard_support.obj
 0001:000d01a0       __castguard_check_failure_os_handled 00000001400d11a0 f i LIBCMTD:guard_support.obj
 0001:000d0260       __castguard_slow_path_check_debugbreak 00000001400d1260 f i LIBCMTD:guard_support.obj
 0001:000d02a0       __castguard_slow_path_check_fastfail 00000001400d12a0 f i LIBCMTD:guard_support.obj
 0001:000d02f0       __castguard_slow_path_check_nop 00000001400d12f0 f i LIBCMTD:guard_support.obj
 0001:000d0300       __castguard_slow_path_check_os_handled 00000001400d1300 f i LIBCMTD:guard_support.obj
 0001:000d03e0       _guard_icall_checks_enforced 00000001400d13e0 f i LIBCMTD:guard_support.obj
 0001:000d0420       _guard_rf_checks_enforced  00000001400d1420 f i LIBCMTD:guard_support.obj
 0001:000d0430       ?__scrt_throw_std_bad_alloc@@YAXXZ 00000001400d1430 f   LIBCMTD:throw_bad_alloc.obj
 0001:000d0460       ?__scrt_throw_std_bad_array_new_length@@YAXXZ 00000001400d1460 f   LIBCMTD:throw_bad_alloc.obj
 0001:000d0490       ??3@YAXPEAX@Z              00000001400d1490 f   LIBCMTD:delete_scalar.obj
 0001:000d0570       __security_init_cookie     00000001400d1570 f   LIBCMTD:gs_support.obj
 0001:000d05f0       _matherr                   00000001400d15f0 f   LIBCMTD:matherr.obj
 0001:000d0600       _get_startup_argv_mode     00000001400d1600 f   LIBCMTD:argv_mode.obj
 0001:000d0610       _get_startup_commit_mode   00000001400d1610 f   LIBCMTD:commit_mode.obj
 0001:000d0620       _get_startup_file_mode     00000001400d1620 f   LIBCMTD:file_mode.obj
 0001:000d0630       _get_startup_new_mode      00000001400d1630 f   LIBCMTD:new_mode.obj
 0001:000d0640       _get_startup_thread_locale_mode 00000001400d1640 f   LIBCMTD:thread_locale.obj
 0001:000d0650       _should_initialize_environment 00000001400d1650 f   LIBCMTD:env_mode.obj
 0001:000d0660       _initialize_invalid_parameter_handler 00000001400d1660 f   LIBCMTD:invalid_parameter_handler.obj
 0001:000d0670       _initialize_denormal_control 00000001400d1670 f   LIBCMTD:denormal_control.obj
 0001:000d0680       __local_stdio_scanf_options 00000001400d1680 f i LIBCMTD:default_local_stdio_options.obj
 0001:000d0690       __scrt_initialize_default_local_stdio_options 00000001400d1690 f   LIBCMTD:default_local_stdio_options.obj
 0001:000d06e0       __scrt_is_user_matherr_present 00000001400d16e0 f   LIBCMTD:matherr_detection.obj
 0001:000d0710       __scrt_get_dyn_tls_init_callback 00000001400d1710 f   LIBCMTD:dyn_tls_init.obj
 0001:000d0720       __scrt_get_dyn_tls_dtor_callback 00000001400d1720 f   LIBCMTD:dyn_tls_dtor.obj
 0001:000d0730       __crt_debugger_hook        00000001400d1730 f   LIBCMTD:utility_desktop.obj
 0001:000d0740       __scrt_fastfail            00000001400d1740 f   LIBCMTD:utility_desktop.obj
 0001:000d08e0       __scrt_get_show_window_mode 00000001400d18e0 f   LIBCMTD:utility_desktop.obj
 0001:000d0940       __scrt_initialize_mta      00000001400d1940 f   LIBCMTD:utility_desktop.obj
 0001:000d0950       __scrt_initialize_winrt    00000001400d1950 f   LIBCMTD:utility_desktop.obj
 0001:000d0960       __scrt_is_managed_app      00000001400d1960 f   LIBCMTD:utility_desktop.obj
 0001:000d0a10       __scrt_set_unhandled_exception_filter 00000001400d1a10 f   LIBCMTD:utility_desktop.obj
 0001:000d0a30       __scrt_stub_for_initialize_mta 00000001400d1a30 f   LIBCMTD:utility_desktop.obj
 0001:000d0a30       __scrt_exe_initialize_mta  00000001400d1a30 f   LIBCMTD:utility_desktop.obj
 0001:000d0a40       __scrt_unhandled_exception_filter 00000001400d1a40 f   LIBCMTD:utility_desktop.obj
 0001:000d0ae0       _RTC_Initialize            00000001400d1ae0 f   LIBCMTD:initsect.obj
 0001:000d0b30       _RTC_Terminate             00000001400d1b30 f   LIBCMTD:initsect.obj
 0001:000d0b80       __isa_available_init       00000001400d1b80 f   LIBCMTD:cpu_disp.obj
 0001:000d0f20       __scrt_is_ucrt_dll_in_use  00000001400d1f20 f   LIBCMTD:ucrt_detection.obj
 0001:000d0fe0       ?_RTC_AllocaFailure@@YAXPEAXPEAU_RTC_ALLOCA_NODE@@H@Z 00000001400d1fe0 f   LIBCMTD:error.obj
 0001:000d1140       ?_RTC_Failure@@YAXPEAXH@Z  00000001400d2140 f   LIBCMTD:error.obj
 0001:000d1190       ?_RTC_StackFailure@@YAXPEAXPEBD@Z 00000001400d2190 f   LIBCMTD:error.obj
 0001:000d15c0       _RTC_UninitUse             00000001400d25c0 f   LIBCMTD:error.obj
 0001:000d1690       ?_RTC_GetErrorFunc@@YAP6AHHPEBDH00ZZPEBX@Z 00000001400d2690 f   LIBCMTD:userapi.obj
 0001:000d16a0       ?_RTC_GetErrorFuncW@@YAP6AHHPEB_WH00ZZPEBX@Z 00000001400d26a0 f   LIBCMTD:userapi.obj
 0001:000d16b0       _RTC_GetErrDesc            00000001400d26b0 f   LIBCMTD:userapi.obj
 0001:000d16d0       _RTC_NumErrors             00000001400d26d0 f   LIBCMTD:userapi.obj
 0001:000d16e0       _RTC_SetErrorFunc          00000001400d26e0 f   LIBCMTD:userapi.obj
 0001:000d1700       _RTC_SetErrorFuncW         00000001400d2700 f   LIBCMTD:userapi.obj
 0001:000d1720       _RTC_SetErrorType          00000001400d2720 f   LIBCMTD:userapi.obj
 0001:000d1c50       ?_RTC_GetSrcLine@@YAHPEAEPEA_WKPEAH1K@Z 00000001400d2c50 f   LIBCMTD:pdblkup.obj
 0001:000d2020       ??$__crt_interlocked_exchange_pointer@$$A6AXXZP6AXXZ@@YAP6AXXZPEDS6AXXZQ6AXXZ@Z 00000001400d3020 f i libvcruntimed:purevirt.obj
 0001:000d2040       ??$__crt_interlocked_read_pointer@$$A6AXXZ@@YAP6AXXZPEDS6AXXZ@Z 00000001400d3040 f i libvcruntimed:purevirt.obj
 0001:000d2060       ?__crt_interlocked_read_64@@YA_JPED_J@Z 00000001400d3060 f i libvcruntimed:purevirt.obj
 0001:000d2080       _get_purecall_handler      00000001400d3080 f   libvcruntimed:purevirt.obj
 0001:000d20a0       _purecall                  00000001400d30a0 f   libvcruntimed:purevirt.obj
 0001:000d20e0       _set_purecall_handler      00000001400d30e0 f   libvcruntimed:purevirt.obj
 0001:000d2100       __DestructExceptionObject  00000001400d3100 f   libvcruntimed:ehhelpers.obj
 0001:000d2200       ?_CallMemberFunction0@@YAXQEAX0@Z 00000001400d3200 f i libvcruntimed:ehhelpers.obj
 0001:000d22d0       ?raw_name@type_info@@QEBAPEBDXZ 00000001400d32d0 f i libvcruntimed:ehhelpers.obj
 0001:000d22e0       _IsExceptionObjectToBeDestroyed 00000001400d32e0 f   libvcruntimed:ehhelpers.obj
 0001:000d2330       _SetWinRTOutOfMemoryExceptionCallback 00000001400d3330 f   libvcruntimed:ehhelpers.obj
 0001:000d2350       __AdjustPointer            00000001400d3350 f   libvcruntimed:ehhelpers.obj
 0001:000d23d0       __FrameUnwindFilter        00000001400d33d0 f   libvcruntimed:ehhelpers.obj
 0001:000d2480       __GetPlatformExceptionInfo 00000001400d3480 f   libvcruntimed:ehhelpers.obj
 0001:000d2530       __current_exception        00000001400d3530 f   libvcruntimed:ehhelpers.obj
 0001:000d2550       __current_exception_context 00000001400d3550 f   libvcruntimed:ehhelpers.obj
 0001:000d2570       __processing_throw         00000001400d3570 f   libvcruntimed:ehhelpers.obj
 0001:000d2590       __std_terminate            00000001400d3590 f   libvcruntimed:ehhelpers.obj
 0001:000d25a0       _is_exception_typeof       00000001400d35a0 f   libvcruntimed:ehhelpers.obj
 0001:000d26f0       ??$?RD@__crt_public_free_policy@@QEBAXQEBD@Z 00000001400d36f0 f i libvcruntimed:std_exception.obj
 0001:000d2710       ??0?$__crt_unique_heap_ptr@DU__crt_public_free_policy@@@@QEAA@QEAD@Z 00000001400d3710 f i libvcruntimed:std_exception.obj
 0001:000d2730       ??1?$__crt_unique_heap_ptr@DU__crt_public_free_policy@@@@QEAA@XZ 00000001400d3730 f i libvcruntimed:std_exception.obj
 0001:000d2750       ??B?$__crt_unique_heap_ptr@DU__crt_public_free_policy@@@@QEBA_NXZ 00000001400d3750 f i libvcruntimed:std_exception.obj
 0001:000d2770       ?detach@?$__crt_unique_heap_ptr@DU__crt_public_free_policy@@@@QEAAPEADXZ 00000001400d3770 f i libvcruntimed:std_exception.obj
 0001:000d27a0       ?get@?$__crt_unique_heap_ptr@DU__crt_public_free_policy@@@@QEBAPEADXZ 00000001400d37a0 f i libvcruntimed:std_exception.obj
 0001:000d27b0       ?is_valid@?$__crt_unique_heap_ptr@DU__crt_public_free_policy@@@@QEBA_NXZ 00000001400d37b0 f i libvcruntimed:std_exception.obj
 0001:000d27e0       ?release@?$__crt_unique_heap_ptr@DU__crt_public_free_policy@@@@QEAAXXZ 00000001400d37e0 f i libvcruntimed:std_exception.obj
 0001:000d2810       __std_exception_copy       00000001400d3810 f   libvcruntimed:std_exception.obj
 0001:000d2950       __std_exception_destroy    00000001400d3950 f   libvcruntimed:std_exception.obj
 0001:000d2990       _CxxThrowException         00000001400d3990 f   libvcruntimed:throw.obj
 0001:000d2ac0       ??$?0AEAViterator@TryBlockMap4@FH4@@AEAV012@$0A@@?$pair@Viterator@TryBlockMap4@FH4@@V123@@std@@QEAA@AEAViterator@TryBlockMap4@FH4@@0@Z 00000001400d3ac0 f i libvcruntimed:risctrnsctrl.obj
 0001:000d2b20       ??$?0AEAViterator@TryBlockMap@__FrameHandler3@@AEAV012@$0A@@?$pair@Viterator@TryBlockMap@__FrameHandler3@@V123@@std@@QEAA@AEAViterator@TryBlockMap@__FrameHandler3@@0@Z 00000001400d3b20 f i libvcruntimed:risctrnsctrl.obj
 0001:000d2cf0       ??$_CallSETranslator@V__FrameHandler3@@@@YAHPEAUEHExceptionRecord@@PEA_KPEAU_CONTEXT@@PEAU_xDISPATCHER_CONTEXT@@PEBU_s_FuncInfo@@K1H@Z 00000001400d3cf0 f i libvcruntimed:risctrnsctrl.obj
 0001:000d2d80       ??$_CallSETranslator@V__FrameHandler4@@@@YAHPEAUEHExceptionRecord@@PEA_KPEAU_CONTEXT@@PEAU_xDISPATCHER_CONTEXT@@PEAUFuncInfo4@FH4@@K1H@Z 00000001400d3d80 f i libvcruntimed:risctrnsctrl.obj
 0001:000d2e10       ??$forward@AEAViterator@TryBlockMap4@FH4@@@std@@YAAEAViterator@TryBlockMap4@FH4@@AEAV123@@Z 00000001400d3e10 f i libvcruntimed:risctrnsctrl.obj
 0001:000d2e20       ??$forward@AEAViterator@TryBlockMap@__FrameHandler3@@@std@@YAAEAViterator@TryBlockMap@__FrameHandler3@@AEAV123@@Z 00000001400d3e20 f i libvcruntimed:risctrnsctrl.obj
 0001:000d2e30       ??0FuncInfo4@FH4@@QEAA@XZ  00000001400d3e30 f i libvcruntimed:risctrnsctrl.obj
 0001:000d2ea0       ??0FuncInfoHeader@FH4@@QEAA@XZ 00000001400d3ea0 f i libvcruntimed:risctrnsctrl.obj
 0001:000d2ec0       ??0iterator@TryBlockMap4@FH4@@QEAA@AEAV12@I@Z 00000001400d3ec0 f i libvcruntimed:risctrnsctrl.obj
 0001:000d2ef0       ??0iterator@TryBlockMap@__FrameHandler3@@QEAA@AEAV12@I@Z 00000001400d3ef0 f i libvcruntimed:risctrnsctrl.obj
 0001:000d2f20       ??4iterator@TryBlockMap4@FH4@@QEAAAEAV012@AEBV012@@Z 00000001400d3f20 f i libvcruntimed:risctrnsctrl.obj
 0001:000d2f40       ??9iterator@TryBlockMap4@FH4@@QEBA_NAEBV012@@Z 00000001400d3f40 f i libvcruntimed:risctrnsctrl.obj
 0001:000d2f80       ??Diterator@TryBlockMap4@FH4@@QEAA?AUTryBlockMapEntry4@2@XZ 00000001400d3f80 f i libvcruntimed:risctrnsctrl.obj
 0001:000d2fb0       ??Eiterator@TryBlockMap4@FH4@@QEAAAEAV012@XZ 00000001400d3fb0 f i libvcruntimed:risctrnsctrl.obj
 0001:000d2ff0       ?CatchTryBlock@__FrameHandler3@@SAPEBU_s_TryBlockMapEntry@@PEBU_s_FuncInfo@@H@Z 00000001400d3ff0 f   libvcruntimed:risctrnsctrl.obj
 0001:000d3080       ?DecompFuncInfo@FH4@@YA_JPEAEAEAUFuncInfo4@1@_KH@Z 00000001400d4080 f i libvcruntimed:risctrnsctrl.obj
 0001:000d30c0       ?DecompFuncInfo@FH4@@YA_JPEAEAEAUFuncInfo4@1@_KH_N@Z 00000001400d40c0 f i libvcruntimed:risctrnsctrl.obj
 0001:000d3290       ?DecompTryBlock@TryBlockMap4@FH4@@AEAAXXZ 00000001400d4290 f i libvcruntimed:risctrnsctrl.obj
 0001:000d3310       ?ExecutionInCatch@__FrameHandler3@@SA_NPEAU_xDISPATCHER_CONTEXT@@PEBU_s_FuncInfo@@@Z 00000001400d4310 f   libvcruntimed:risctrnsctrl.obj
 0001:000d3360       ?ExecutionInCatch@__FrameHandler4@@SA_NPEAU_xDISPATCHER_CONTEXT@@PEAUFuncInfo4@FH4@@@Z 00000001400d4360 f   libvcruntimed:risctrnsctrl.obj
 0001:000d3380       ?FrameUnwindToEmptyState@__FrameHandler3@@SAXPEA_KPEAU_xDISPATCHER_CONTEXT@@PEBU_s_FuncInfo@@@Z 00000001400d4380 f   libvcruntimed:risctrnsctrl.obj
 0001:000d3420       ?FrameUnwindToEmptyState@__FrameHandler4@@SAXPEA_KPEAU_xDISPATCHER_CONTEXT@@PEAUFuncInfo4@FH4@@@Z 00000001400d4420 f   libvcruntimed:risctrnsctrl.obj
 0001:000d3470       ?GetEstablisherFrame@__FrameHandler3@@SAPEA_KPEA_KPEAU_xDISPATCHER_CONTEXT@@PEBU_s_FuncInfo@@0@Z 00000001400d4470 f   libvcruntimed:risctrnsctrl.obj
 0001:000d35e0       ?GetEstablisherFrame@__FrameHandler4@@SAPEA_KPEA_KPEAU_xDISPATCHER_CONTEXT@@PEAUFuncInfo4@FH4@@0@Z 00000001400d45e0 f   libvcruntimed:risctrnsctrl.obj
 0001:000d3650       ?GetRangeOfTrysToCheck@__FrameHandler3@@SA?AU?$pair@Viterator@TryBlockMap@__FrameHandler3@@V123@@std@@AEAVTryBlockMap@1@HPEAU_xDISPATCHER_CONTEXT@@PEBU_s_FuncInfo@@H@Z 00000001400d4650 f   libvcruntimed:risctrnsctrl.obj
 0001:000d3890       ?GetRangeOfTrysToCheck@__FrameHandler4@@SA?AU?$pair@Viterator@TryBlockMap4@FH4@@V123@@std@@AEAVTryBlockMap4@FH4@@HPEAU_xDISPATCHER_CONTEXT@@PEAUFuncInfo4@5@H@Z 00000001400d4890 f   libvcruntimed:risctrnsctrl.obj
 0001:000d3a40       ?ReadInt@FH4@@YAHPEAPEAE@Z 00000001400d4a40 f i libvcruntimed:risctrnsctrl.obj
 0001:000d3a80       ?ReadUnsigned@FH4@@YAIPEAPEAE@Z 00000001400d4a80 f i libvcruntimed:risctrnsctrl.obj
 0001:000d3b10       ?UnwindNestedFrames@__FrameHandler3@@SAXPEA_KPEAUEHExceptionRecord@@PEAU_CONTEXT@@0PEAXPEBU_s_FuncInfo@@HHPEBU_s_HandlerType@@PEAU_xDISPATCHER_CONTEXT@@E@Z 00000001400d4b10 f   libvcruntimed:risctrnsctrl.obj
 0001:000d3c80       ?UnwindNestedFrames@__FrameHandler4@@SAXPEA_KPEAUEHExceptionRecord@@PEAU_CONTEXT@@0PEAXPEAUFuncInfo4@FH4@@HHPEAUHandlerType4@5@PEAU_xDISPATCHER_CONTEXT@@E@Z 00000001400d4c80 f   libvcruntimed:risctrnsctrl.obj
 0001:000d3e50       ?begin@TryBlockMap4@FH4@@QEAA?AViterator@12@XZ 00000001400d4e50 f i libvcruntimed:risctrnsctrl.obj
 0001:000d3e80       ?end@TryBlockMap4@FH4@@QEAA?AViterator@12@XZ 00000001400d4e80 f i libvcruntimed:risctrnsctrl.obj
 0001:000d3eb0       ?imageRelToByteBuffer@FH4@@YAPEAE_KH@Z 00000001400d4eb0 f i libvcruntimed:risctrnsctrl.obj
 0001:000d3ed0       ?incrementToSentinel@iterator@TryBlockMap4@FH4@@QEAAXXZ 00000001400d4ed0 f i libvcruntimed:risctrnsctrl.obj
 0001:000d3ef0       ?setBuffer@TryBlockMap4@FH4@@QEAAXViterator@12@@Z 00000001400d4ef0 f i libvcruntimed:risctrnsctrl.obj
 0001:000d3f60       _CreateFrameInfo           00000001400d4f60 f   libvcruntimed:risctrnsctrl.obj
 0001:000d3fd0       _FindAndUnlinkFrame        00000001400d4fd0 f   libvcruntimed:risctrnsctrl.obj
 0001:000d4050       _GetImageBase              00000001400d5050 f   libvcruntimed:risctrnsctrl.obj
 0001:000d4070       _GetThrowImageBase         00000001400d5070 f   libvcruntimed:risctrnsctrl.obj
 0001:000d4090       _SetImageBase              00000001400d5090 f   libvcruntimed:risctrnsctrl.obj
 0001:000d40b0       _SetThrowImageBase         00000001400d50b0 f   libvcruntimed:risctrnsctrl.obj
 0001:000d40d0       __CxxFrameHandler          00000001400d50d0 f   libvcruntimed:risctrnsctrl.obj
 0001:000d4110       __CxxFrameHandler2         00000001400d5110 f   libvcruntimed:risctrnsctrl.obj
 0001:000d4150       __CxxFrameHandler3         00000001400d5150 f   libvcruntimed:risctrnsctrl.obj
 0001:000d4230       __CxxFrameHandler4         00000001400d5230 f   libvcruntimed:risctrnsctrl.obj
 0001:000d4350       memcmp                     00000001400d5350 f   libvcruntimed:memcmp.obj
 0001:000d4430       memcpy_repmovs             00000001400d5430 f   libvcruntimed:memcpy.obj
 0001:000d4450       memcpy                     00000001400d5450 f   libvcruntimed:memcpy.obj
 0001:000d4450       memmove                    00000001400d5450 f   libvcruntimed:memcpy.obj
 0001:000d4830       ??0__non_rtti_object@std@@AEAA@QEBDH@Z 00000001400d5830 f i libvcruntimed:rtti.obj
 0001:000d4880       ??0__non_rtti_object@std@@QEAA@AEBV01@@Z 00000001400d5880 f i libvcruntimed:rtti.obj
 0001:000d48c0       ??0bad_cast@std@@AEAA@QEBDH@Z 00000001400d58c0 f i libvcruntimed:rtti.obj
 0001:000d4910       ??0bad_typeid@std@@AEAA@QEBDH@Z 00000001400d5910 f i libvcruntimed:rtti.obj
 0001:000d4960       ??0bad_typeid@std@@QEAA@AEBV01@@Z 00000001400d5960 f i libvcruntimed:rtti.obj
 0001:000d49a0       ??1__non_rtti_object@std@@UEAA@XZ 00000001400d59a0 f i libvcruntimed:rtti.obj
 0001:000d49c0       ??1bad_typeid@std@@UEAA@XZ 00000001400d59c0 f i libvcruntimed:rtti.obj
 0001:000d49e0       ??_E__non_rtti_object@std@@UEAAPEAXI@Z 00000001400d59e0 f i libvcruntimed:rtti.obj
 0001:000d49e0       ??_G__non_rtti_object@std@@UEAAPEAXI@Z 00000001400d59e0 f i libvcruntimed:rtti.obj
 0001:000d4a20       ??_Ebad_typeid@std@@UEAAPEAXI@Z 00000001400d5a20 f i libvcruntimed:rtti.obj
 0001:000d4a20       ??_Gbad_typeid@std@@UEAAPEAXI@Z 00000001400d5a20 f i libvcruntimed:rtti.obj
 0001:000d54e0       ?__construct_from_string_literal@__non_rtti_object@std@@SA?AV12@QEBD@Z 00000001400d64e0 f i libvcruntimed:rtti.obj
 0001:000d5510       ?__construct_from_string_literal@bad_cast@std@@SA?AV12@QEBD@Z 00000001400d6510 f i libvcruntimed:rtti.obj
 0001:000d5540       ?__construct_from_string_literal@bad_typeid@std@@SA?AV12@QEBD@Z 00000001400d6540 f i libvcruntimed:rtti.obj
 0001:000d5570       __RTCastToVoid             00000001400d6570 f   libvcruntimed:rtti.obj
 0001:000d55c0       __RTDynamicCast            00000001400d65c0 f   libvcruntimed:rtti.obj
 0001:000d57c0       __RTtypeid                 00000001400d67c0 f   libvcruntimed:rtti.obj
 0001:000d58e0       ??$?RD@__crt_internal_free_policy@@QEBAXQEBD@Z 00000001400d68e0 f i libvcruntimed:std_type_info.obj
 0001:000d5910       ??$?RX@__crt_internal_free_policy@@QEBAXQEBX@Z 00000001400d6910 f i libvcruntimed:std_type_info.obj
 0001:000d5940       ??$__crt_interlocked_compare_exchange_pointer@$$CBDPEAD$$T@@YAPEBDPEDSEBDQEAD$$T@Z 00000001400d6940 f i libvcruntimed:std_type_info.obj
 0001:000d5980       ??$__crt_interlocked_read_pointer@$$CBD@@YAPEBDPEDSEBD@Z 00000001400d6980 f i libvcruntimed:std_type_info.obj
 0001:000d59a0       ??0?$__crt_unique_heap_ptr@DU__crt_internal_free_policy@@@@QEAA@QEAD@Z 00000001400d69a0 f i libvcruntimed:std_type_info.obj
 0001:000d59c0       ??0?$__crt_unique_heap_ptr@XU__crt_internal_free_policy@@@@QEAA@QEAX@Z 00000001400d69c0 f i libvcruntimed:std_type_info.obj
 0001:000d59e0       ??1?$__crt_unique_heap_ptr@DU__crt_internal_free_policy@@@@QEAA@XZ 00000001400d69e0 f i libvcruntimed:std_type_info.obj
 0001:000d5a00       ??1?$__crt_unique_heap_ptr@XU__crt_internal_free_policy@@@@QEAA@XZ 00000001400d6a00 f i libvcruntimed:std_type_info.obj
 0001:000d5a20       ??B?$__crt_unique_heap_ptr@DU__crt_internal_free_policy@@@@QEBA_NXZ 00000001400d6a20 f i libvcruntimed:std_type_info.obj
 0001:000d5a40       ??B?$__crt_unique_heap_ptr@XU__crt_internal_free_policy@@@@QEBA_NXZ 00000001400d6a40 f i libvcruntimed:std_type_info.obj
 0001:000d5ae0       ?detach@?$__crt_unique_heap_ptr@XU__crt_internal_free_policy@@@@QEAAPEAXXZ 00000001400d6ae0 f i libvcruntimed:std_type_info.obj
 0001:000d5b10       ?get@?$__crt_unique_heap_ptr@DU__crt_internal_free_policy@@@@QEBAPEADXZ 00000001400d6b10 f i libvcruntimed:std_type_info.obj
 0001:000d5b20       ?get@?$__crt_unique_heap_ptr@XU__crt_internal_free_policy@@@@QEBAPEAXXZ 00000001400d6b20 f i libvcruntimed:std_type_info.obj
 0001:000d5b30       ?is_valid@?$__crt_unique_heap_ptr@DU__crt_internal_free_policy@@@@QEBA_NXZ 00000001400d6b30 f i libvcruntimed:std_type_info.obj
 0001:000d5b60       ?is_valid@?$__crt_unique_heap_ptr@XU__crt_internal_free_policy@@@@QEBA_NXZ 00000001400d6b60 f i libvcruntimed:std_type_info.obj
 0001:000d5b90       ?release@?$__crt_unique_heap_ptr@DU__crt_internal_free_policy@@@@QEAAXXZ 00000001400d6b90 f i libvcruntimed:std_type_info.obj
 0001:000d5bc0       ?release@?$__crt_unique_heap_ptr@XU__crt_internal_free_policy@@@@QEAAXXZ 00000001400d6bc0 f i libvcruntimed:std_type_info.obj
 0001:000d5bf0       __std_type_info_compare    00000001400d6bf0 f   libvcruntimed:std_type_info.obj
 0001:000d5c30       __std_type_info_destroy_list 00000001400d6c30 f   libvcruntimed:std_type_info.obj
 0001:000d5c90       __std_type_info_hash       00000001400d6c90 f   libvcruntimed:std_type_info.obj
 0001:000d5d40       __std_type_info_name       00000001400d6d40 f   libvcruntimed:std_type_info.obj
 0001:000d6000       memchr                     00000001400d7000 f   libvcruntimed:memchr.obj
 0001:000d6070       longjmp                    00000001400d7070 f   libvcruntimed:longjmpc.obj
 0001:000d60b0       memset_repmovs             00000001400d70b0 f   libvcruntimed:memset.obj
 0001:000d60d0       memset                     00000001400d70d0 f   libvcruntimed:memset.obj
 0001:000d6260       __uncaught_exception       00000001400d7260 f   libvcruntimed:uncaught_exception.obj
 0001:000d62b0       __C_specific_handler       00000001400d72b0 f   libvcruntimed:riscchandler.obj
 0001:000d6720       __vcrt_initialize          00000001400d7720 f   libvcruntimed:initialization.obj
 0001:000d6760       __vcrt_thread_attach       00000001400d7760 f   libvcruntimed:initialization.obj
 0001:000d6780       __vcrt_thread_detach       00000001400d7780 f   libvcruntimed:initialization.obj
 0001:000d67a0       __vcrt_uninitialize        00000001400d77a0 f   libvcruntimed:initialization.obj
 0001:000d67c0       __vcrt_uninitialize_critical 00000001400d77c0 f   libvcruntimed:initialization.obj
 0001:000d67e0       __C_specific_handler_noexcept 00000001400d77e0 f   libvcruntimed:chandler_noexcept.obj
 0001:000d6870       __vcrt_GetModuleFileNameW  00000001400d7870 f   libvcruntimed:winapi_thunks.obj
 0001:000d68a0       __vcrt_GetModuleHandleW    00000001400d78a0 f   libvcruntimed:winapi_thunks.obj
 0001:000d68c0       __vcrt_LoadLibraryExW      00000001400d78c0 f   libvcruntimed:winapi_thunks.obj
 0001:000d68f0       ??$?RU__vcrt_ptd@@@__crt_internal_free_policy@@QEBAXQEBU__vcrt_ptd@@@Z 00000001400d78f0 f i libvcruntimed:per_thread_data.obj
 0001:000d6920       ??0?$__crt_unique_heap_ptr@U__vcrt_ptd@@U__crt_internal_free_policy@@@@QEAA@QEAU__vcrt_ptd@@@Z 00000001400d7920 f i libvcruntimed:per_thread_data.obj
 0001:000d6960       ??1?$__crt_unique_heap_ptr@U__vcrt_ptd@@U__crt_internal_free_policy@@@@QEAA@XZ 00000001400d7960 f i libvcruntimed:per_thread_data.obj
 0001:000d69a0       ??B?$__crt_unique_heap_ptr@U__vcrt_ptd@@U__crt_internal_free_policy@@@@QEBA_NXZ 00000001400d79a0 f i libvcruntimed:per_thread_data.obj
 0001:000d69c0       ?detach@?$__crt_unique_heap_ptr@U__vcrt_ptd@@U__crt_internal_free_policy@@@@QEAAPEAU__vcrt_ptd@@XZ 00000001400d79c0 f i libvcruntimed:per_thread_data.obj
 0001:000d69f0       ?get@?$__crt_unique_heap_ptr@U__vcrt_ptd@@U__crt_internal_free_policy@@@@QEBAPEAU__vcrt_ptd@@XZ 00000001400d79f0 f i libvcruntimed:per_thread_data.obj
 0001:000d6a00       ?is_valid@?$__crt_unique_heap_ptr@U__vcrt_ptd@@U__crt_internal_free_policy@@@@QEBA_NXZ 00000001400d7a00 f i libvcruntimed:per_thread_data.obj
 0001:000d6a30       ?release@?$__crt_unique_heap_ptr@U__vcrt_ptd@@U__crt_internal_free_policy@@@@QEAAXXZ 00000001400d7a30 f i libvcruntimed:per_thread_data.obj
 0001:000d6aa0       __vcrt_freefls             00000001400d7aa0 f   libvcruntimed:per_thread_data.obj
 0001:000d6ae0       __vcrt_freeptd             00000001400d7ae0 f   libvcruntimed:per_thread_data.obj
 0001:000d6b40       __vcrt_getptd              00000001400d7b40 f   libvcruntimed:per_thread_data.obj
 0001:000d6b70       __vcrt_getptd_noexit       00000001400d7b70 f   libvcruntimed:per_thread_data.obj
 0001:000d6d10       __vcrt_getptd_noinit       00000001400d7d10 f   libvcruntimed:per_thread_data.obj
 0001:000d6d70       __vcrt_initialize_ptd      00000001400d7d70 f   libvcruntimed:per_thread_data.obj
 0001:000d6dc0       __vcrt_uninitialize_ptd    00000001400d7dc0 f   libvcruntimed:per_thread_data.obj
 0001:000d6df0       ?GetCurrentState@__FrameHandler3@@SAHPEA_KPEAU_xDISPATCHER_CONTEXT@@PEBU_s_FuncInfo@@@Z 00000001400d7df0 f   libvcruntimed:ehstate.obj
 0001:000d6e50       ?GetUnwindTryBlock@__FrameHandler3@@SAHPEA_KPEAU_xDISPATCHER_CONTEXT@@PEBU_s_FuncInfo@@@Z 00000001400d7e50 f   libvcruntimed:ehstate.obj
 0001:000d6ea0       ?SetState@__FrameHandler3@@SAXPEA_KPEBU_s_FuncInfo@@H@Z 00000001400d7ea0 f   libvcruntimed:ehstate.obj
 0001:000d6ed0       ?SetUnwindTryBlock@__FrameHandler3@@SAXPEA_KPEAU_xDISPATCHER_CONTEXT@@PEBU_s_FuncInfo@@H@Z 00000001400d7ed0 f   libvcruntimed:ehstate.obj
 0001:000d6f40       ?StateFromControlPc@__FrameHandler3@@SAHPEBU_s_FuncInfo@@PEAU_xDISPATCHER_CONTEXT@@@Z 00000001400d7f40 f   libvcruntimed:ehstate.obj
 0001:000d6f80       ?StateFromControlPc@__FrameHandler4@@SAHPEAUFuncInfo4@FH4@@PEAU_xDISPATCHER_CONTEXT@@@Z 00000001400d7f80 f   libvcruntimed:ehstate.obj
 0001:000d6fc0       ?StateFromIp@__FrameHandler3@@SAHPEBU_s_FuncInfo@@PEAU_xDISPATCHER_CONTEXT@@_K@Z 00000001400d7fc0 f   libvcruntimed:ehstate.obj
 0001:000d70b0       ?StateFromIp@__FrameHandler4@@SAHPEAUFuncInfo4@FH4@@PEAU_xDISPATCHER_CONTEXT@@_K@Z 00000001400d80b0 f   libvcruntimed:ehstate.obj
 0001:000d71a0       ?__FuncRelToRealOffset@@YA_KPEAU_xDISPATCHER_CONTEXT@@I@Z 00000001400d81a0 f i libvcruntimed:ehstate.obj
 0001:000d71d0       ?__RVAtoRealOffset@@YA_KPEAU_xDISPATCHER_CONTEXT@@H@Z 00000001400d81d0 f i libvcruntimed:ehstate.obj
 0001:000d9450       ??$TypeMatchHelper@V__FrameHandler3@@@@YAHPEBU_s_HandlerType@@PEBU_s_CatchableType@@PEBU_s_ThrowInfo@@@Z 00000001400da450 f i libvcruntimed:frame.obj
 0001:000d9650       ??$TypeMatchHelper@V__FrameHandler4@@@@YAHPEAUHandlerType4@FH4@@PEBU_s_CatchableType@@PEBU_s_ThrowInfo@@@Z 00000001400da650 f i libvcruntimed:frame.obj
 0001:000d9860       ??$__InternalCxxFrameHandler@V__FrameHandler3@@@@YA?AW4_EXCEPTION_DISPOSITION@@PEAUEHExceptionRecord@@PEA_KPEAU_CONTEXT@@PEAU_xDISPATCHER_CONTEXT@@PEBU_s_FuncInfo@@H1E@Z 00000001400da860 f i libvcruntimed:frame.obj
 0001:000d9cd0       ??$__InternalCxxFrameHandler@V__FrameHandler4@@@@YA?AW4_EXCEPTION_DISPOSITION@@PEAUEHExceptionRecord@@PEA_KPEAU_CONTEXT@@PEAU_xDISPATCHER_CONTEXT@@PEAUFuncInfo4@FH4@@H1E@Z 00000001400dacd0 f i libvcruntimed:frame.obj
 0001:000da160       ??0HandlerMap4@FH4@@QEAA@PEBUTryBlockMapEntry4@1@_KH@Z 00000001400db160 f i libvcruntimed:frame.obj
 0001:000da220       ??0HandlerMap@__FrameHandler3@@QEAA@PEBU_s_TryBlockMapEntry@@_KI@Z 00000001400db220 f i libvcruntimed:frame.obj
 0001:000da270       ??0HandlerType4@FH4@@QEAA@XZ 00000001400db270 f i libvcruntimed:frame.obj
 0001:000da290       ??0TryBlockMap4@FH4@@QEAA@PEBUFuncInfo4@1@_K@Z 00000001400db290 f i libvcruntimed:frame.obj
 0001:000da320       ??0TryBlockMap@__FrameHandler3@@QEAA@PEBU_s_FuncInfo@@_K@Z 00000001400db320 f i libvcruntimed:frame.obj
 0001:000da350       ??0UWMap4@FH4@@QEAA@PEBUFuncInfo4@1@_K@Z 00000001400db350 f i libvcruntimed:frame.obj
 0001:000da3c0       ??0bad_exception@std@@QEAA@AEBV01@@Z 00000001400db3c0 f i libvcruntimed:frame.obj
 0001:000da400       ??0bad_exception@std@@QEAA@XZ 00000001400db400 f i libvcruntimed:frame.obj
 0001:000da440       ??0iterator@HandlerMap4@FH4@@QEAA@AEAV12@I@Z 00000001400db440 f i libvcruntimed:frame.obj
 0001:000da470       ??0iterator@HandlerMap@__FrameHandler3@@QEAA@AEAV12@I@Z 00000001400db470 f i libvcruntimed:frame.obj
 0001:000da4a0       ??0iterator@UWMap4@FH4@@QEAA@AEAV12@PEAE@Z 00000001400db4a0 f i libvcruntimed:frame.obj
 0001:000da4d0       ??1bad_exception@std@@UEAA@XZ 00000001400db4d0 f i libvcruntimed:frame.obj
 0001:000da4f0       ??4iterator@UWMap4@FH4@@QEAAAEAV012@AEBV012@@Z 00000001400db4f0 f i libvcruntimed:frame.obj
 0001:000da540       ??8iterator@HandlerMap4@FH4@@QEBA_NAEBV012@@Z 00000001400db540 f i libvcruntimed:frame.obj
 0001:000da580       ??8iterator@HandlerMap@__FrameHandler3@@QEBA_NAEBV012@@Z 00000001400db580 f i libvcruntimed:frame.obj
 0001:000da5c0       ??8type_info@@QEBA_NAEBV0@@Z 00000001400db5c0 f i libvcruntimed:frame.obj
 0001:000da610       ??9iterator@HandlerMap4@FH4@@QEBA_NAEBV012@@Z 00000001400db610 f i libvcruntimed:frame.obj
 0001:000da650       ??9iterator@HandlerMap@__FrameHandler3@@QEBA_NAEBV012@@Z 00000001400db650 f i libvcruntimed:frame.obj
 0001:000da690       ??Diterator@HandlerMap4@FH4@@QEAA?AUHandlerType4@2@XZ 00000001400db690 f i libvcruntimed:frame.obj
 0001:000da6c0       ??Diterator@HandlerMap@__FrameHandler3@@QEAA?BU_s_HandlerType@@XZ 00000001400db6c0 f i libvcruntimed:frame.obj
 0001:000da700       ??Diterator@TryBlockMap@__FrameHandler3@@QEAA?BU_s_TryBlockMapEntry@@XZ 00000001400db700 f i libvcruntimed:frame.obj
 0001:000da750       ??Diterator@UWMap4@FH4@@QEAA?AUUnwindMapEntry4@2@XZ 00000001400db750 f i libvcruntimed:frame.obj
 0001:000da7d0       ??Eiterator@HandlerMap4@FH4@@QEAAAEAV012@XZ 00000001400db7d0 f i libvcruntimed:frame.obj
 0001:000da810       ??Eiterator@HandlerMap@__FrameHandler3@@QEAAAEAV012@XZ 00000001400db810 f i libvcruntimed:frame.obj
 0001:000da830       ??Eiterator@TryBlockMap@__FrameHandler3@@QEAAAEAV012@XZ 00000001400db830 f i libvcruntimed:frame.obj
 0001:000da850       ??Eiterator@UWMap4@FH4@@QEAAAEAV012@XZ 00000001400db850 f i libvcruntimed:frame.obj
 0001:000da890       ??Giterator@UWMap4@FH4@@QEBA_JAEBV012@@Z 00000001400db890 f i libvcruntimed:frame.obj
 0001:000da8b0       ??Miterator@TryBlockMap4@FH4@@QEBA_NAEBV012@@Z 00000001400db8b0 f i libvcruntimed:frame.obj
 0001:000da8f0       ??Miterator@TryBlockMap@__FrameHandler3@@QEBA_NAEBV012@@Z 00000001400db8f0 f i libvcruntimed:frame.obj
 0001:000da930       ??Oiterator@UWMap4@FH4@@QEBA_NAEBV012@@Z 00000001400db930 f i libvcruntimed:frame.obj
 0001:000da970       ??Piterator@UWMap4@FH4@@QEBA_NAEBV012@@Z 00000001400db970 f i libvcruntimed:frame.obj
 0001:000da9b0       ??_Gbad_exception@std@@UEAAPEAXI@Z 00000001400db9b0 f i libvcruntimed:frame.obj
 0001:000da9b0       ??_Ebad_exception@std@@UEAAPEAXI@Z 00000001400db9b0 f i libvcruntimed:frame.obj
 0001:000da9f0       ?BuildCatchObject@__FrameHandler3@@SAXPEAUEHExceptionRecord@@PEAXPEBU_s_HandlerType@@PEBU_s_CatchableType@@@Z 00000001400db9f0 f   libvcruntimed:frame.obj
 0001:000daa30       ?BuildCatchObject@__FrameHandler4@@SAXPEAUEHExceptionRecord@@PEAXPEAUHandlerType4@FH4@@PEBU_s_CatchableType@@@Z 00000001400dba30 f   libvcruntimed:frame.obj
 0001:000daa70       ?BuildCatchObjectHelper@__FrameHandler3@@SAHPEAUEHExceptionRecord@@PEAXPEBU_s_HandlerType@@PEBU_s_CatchableType@@@Z 00000001400dba70 f   libvcruntimed:frame.obj
 0001:000daab0       ?BuildCatchObjectHelper@__FrameHandler4@@SAHPEAUEHExceptionRecord@@PEAXPEAUHandlerType4@FH4@@PEBU_s_CatchableType@@@Z 00000001400dbab0 f   libvcruntimed:frame.obj
 0001:000daaf0       ?CxxCallCatchBlock@__FrameHandler3@@SAPEAXPEAU_EXCEPTION_RECORD@@@Z 00000001400dbaf0 f   libvcruntimed:frame.obj
 0001:000dad50       ?CxxCallCatchBlock@__FrameHandler4@@SAPEAXPEAU_EXCEPTION_RECORD@@@Z 00000001400dbd50 f   libvcruntimed:frame.obj
 0001:000db080       ?DecompHandler@HandlerMap4@FH4@@AEAAXXZ 00000001400dc080 f i libvcruntimed:frame.obj
 0001:000db450       ?FrameUnwindToState@__FrameHandler3@@SAXPEA_KPEAU_xDISPATCHER_CONTEXT@@PEBU_s_FuncInfo@@H@Z 00000001400dc450 f   libvcruntimed:frame.obj
 0001:000db6a0       ?FrameUnwindToState@__FrameHandler4@@SAXPEA_KPEAU_xDISPATCHER_CONTEXT@@PEAUFuncInfo4@FH4@@H@Z 00000001400dc6a0 f   libvcruntimed:frame.obj
 0001:000db9b0       ?GetHandlerSearchState@__FrameHandler3@@SAHPEA_KPEAU_xDISPATCHER_CONTEXT@@PEBU_s_FuncInfo@@@Z 00000001400dc9b0 f i libvcruntimed:frame.obj
 0001:000dba60       ?GetHandlerSearchState@__FrameHandler4@@SAHPEA_KPEAU_xDISPATCHER_CONTEXT@@PEAUFuncInfo4@FH4@@@Z 00000001400dca60 f i libvcruntimed:frame.obj
 0001:000dbae0       ?GetMaxState@__FrameHandler3@@SAHPEAU_xDISPATCHER_CONTEXT@@PEBU_s_FuncInfo@@@Z 00000001400dcae0 f i libvcruntimed:frame.obj
 0001:000dbb00       ?GetMaxState@__FrameHandler4@@SAHPEAU_xDISPATCHER_CONTEXT@@PEAUFuncInfo4@FH4@@@Z 00000001400dcb00 f i libvcruntimed:frame.obj
 0001:000dbd30       ?ReadEntry@UWMap4@FH4@@AEAAXPEAPEAE@Z 00000001400dcd30 f i libvcruntimed:frame.obj
 0001:000dbde0       ?TypeMatch@__FrameHandler3@@SAHPEBU_s_HandlerType@@PEBU_s_CatchableType@@PEBU_s_ThrowInfo@@@Z 00000001400dcde0 f   libvcruntimed:frame.obj
 0001:000dbe10       ?TypeMatch@__FrameHandler4@@SAHPEAUHandlerType4@FH4@@PEBU_s_CatchableType@@PEBU_s_ThrowInfo@@@Z 00000001400dce10 f   libvcruntimed:frame.obj
 0001:000dbe40       ?WalkBack@UWMap4@FH4@@AEAAXPEAPEAE@Z 00000001400dce40 f i libvcruntimed:frame.obj
 0001:000dbe90       ?WalkBack@iterator@UWMap4@FH4@@QEAAXXZ 00000001400dce90 f i libvcruntimed:frame.obj
 0001:000dbed0       ?WalkForward@UWMap4@FH4@@AEAAXPEAPEAE@Z 00000001400dced0 f i libvcruntimed:frame.obj
 0001:000dbf00       ?_CallMemberFunction1@@YAXQEAX00@Z 00000001400dcf00 f i libvcruntimed:frame.obj
 0001:000dbf40       ?_CallMemberFunction2@@YAXQEAX00H@Z 00000001400dcf40 f i libvcruntimed:frame.obj
 0001:000dbfd0       ?begin@HandlerMap4@FH4@@QEAA?AViterator@12@XZ 00000001400dcfd0 f i libvcruntimed:frame.obj
 0001:000dc000       ?begin@HandlerMap@__FrameHandler3@@QEAA?AViterator@12@XZ 00000001400dd000 f i libvcruntimed:frame.obj
 0001:000dc030       ?begin@UWMap4@FH4@@QEAA?AViterator@12@XZ 00000001400dd030 f i libvcruntimed:frame.obj
 0001:000dc060       ?end@HandlerMap4@FH4@@QEAA?AViterator@12@XZ 00000001400dd060 f i libvcruntimed:frame.obj
 0001:000dc090       ?end@HandlerMap@__FrameHandler3@@QEAA?AViterator@12@XZ 00000001400dd090 f i libvcruntimed:frame.obj
 0001:000dc0c0       ?getESTypes@__FrameHandler3@@SAPEBU_s_ESTypeList@@PEBU_s_FuncInfo@@@Z 00000001400dd0c0 f i libvcruntimed:frame.obj
 0001:000dc100       ?getESTypes@__FrameHandler4@@SAPEBU_s_ESTypeList@@PEAUFuncInfo4@FH4@@@Z 00000001400dd100 f i libvcruntimed:frame.obj
 0001:000dc110       ?getLastEntry@HandlerMap4@FH4@@QEAAPEAUHandlerType4@2@XZ 00000001400dd110 f i libvcruntimed:frame.obj
 0001:000dc150       ?getLastEntry@HandlerMap@__FrameHandler3@@QEAAPEBU_s_HandlerType@@XZ 00000001400dd150 f i libvcruntimed:frame.obj
 0001:000dc170       ?getMagicNum@__FrameHandler3@@SAIPEBU_s_FuncInfo@@@Z 00000001400dd170 f i libvcruntimed:frame.obj
 0001:000dc190       ?getMagicNum@__FrameHandler4@@SAIPEAUFuncInfo4@FH4@@@Z 00000001400dd190 f i libvcruntimed:frame.obj
 0001:000dc1a0       ?getNumTryBlocks@TryBlockMap4@FH4@@QEAAIXZ 00000001400dd1a0 f i libvcruntimed:frame.obj
 0001:000dc1b0       ?getNumTryBlocks@TryBlockMap@__FrameHandler3@@QEAAIXZ 00000001400dd1b0 f i libvcruntimed:frame.obj
 0001:000dc1d0       ?getStartStop@UWMap4@FH4@@QEAAXHHAEAViterator@12@0@Z 00000001400dd1d0 f i libvcruntimed:frame.obj
 0001:000dc2f0       ?getStateFromIterators@UWMap4@FH4@@SAHAEBViterator@12@H0H0@Z 00000001400dd2f0 f i libvcruntimed:frame.obj
 0001:000dc430       ?isEHs@__FrameHandler3@@SA_NPEBU_s_FuncInfo@@@Z 00000001400dd430 f i libvcruntimed:frame.obj
 0001:000dc470       ?isEHs@__FrameHandler4@@SA_NPEAUFuncInfo4@FH4@@@Z 00000001400dd470 f i libvcruntimed:frame.obj
 0001:000dc490       ?isNoExcept@__FrameHandler3@@SA_NPEBU_s_FuncInfo@@@Z 00000001400dd490 f i libvcruntimed:frame.obj
 0001:000dc4d0       ?isNoExcept@__FrameHandler4@@SA_NPEAUFuncInfo4@FH4@@@Z 00000001400dd4d0 f i libvcruntimed:frame.obj
 0001:000dc4f0       ?reset@HandlerType4@FH4@@QEAAXXZ 00000001400dd4f0 f i libvcruntimed:frame.obj
 0001:000dc550       ?resetBuffer@HandlerMap4@FH4@@QEAAXXZ 00000001400dd550 f i libvcruntimed:frame.obj
 0001:000dc570       ?setBuffer@HandlerMap4@FH4@@QEAAXI@Z 00000001400dd570 f i libvcruntimed:frame.obj
 0001:000dc5d0       __BuildCatchObject         00000001400dd5d0 f   libvcruntimed:frame.obj
 0001:000dc610       __BuildCatchObjectHelper   00000001400dd610 f   libvcruntimed:frame.obj
 0001:000dc650       __TypeMatch                00000001400dd650 f   libvcruntimed:frame.obj
 0001:000dc680       __vcrt_EncodePointer       00000001400dd680 f i libvcruntimed:frame.obj
 0001:000dc6a0       ??$?0$00@DName@@QEAA@PEBDU?$StringLifeSelector@$00@@@Z 00000001400dd6a0 f i libvcruntimed:undname.obj
 0001:000dc710       ??$?0$00@pcharNode@@QEAA@PEBDHU?$StringLifeSelector@$00@@@Z 00000001400dd710 f i libvcruntimed:undname.obj
 0001:000dc770       ??$?0$01@DName@@QEAA@PEBDU?$StringLifeSelector@$01@@@Z 00000001400dd770 f i libvcruntimed:undname.obj
 0001:000dc7e0       ??$?0$01@pcharNode@@QEAA@PEBDHU?$StringLifeSelector@$01@@@Z 00000001400dd7e0 f i libvcruntimed:undname.obj
 0001:000dc890       ??$?0$0A@@DName@@QEAA@PEBDU?$StringLifeSelector@$0A@@@@Z 00000001400dd890 f i libvcruntimed:undname.obj
 0001:000dc900       ??$?0$0A@@pcharNode@@QEAA@PEBDHU?$StringLifeSelector@$0A@@@@Z 00000001400dd900 f i libvcruntimed:undname.obj
 0001:000dc9b0       ??$?0_K$0A@@?$optional@_K@std@@QEAA@$$QEA_K@Z 00000001400dd9b0 f i libvcruntimed:undname.obj
 0001:000dca00       ??$?0_K@?$_Optional_construct_base@_K@std@@QEAA@Uin_place_t@1@$$QEA_K@Z 00000001400dda00 f i libvcruntimed:undname.obj
 0001:000dca30       ??$?0_K@?$_Optional_destruct_base@_K$00@std@@QEAA@Uin_place_t@1@$$QEA_K@Z 00000001400dda30 f i libvcruntimed:undname.obj
 0001:000dca70       ??$append@VDNameNode@@@DName@@AEAAXPEBVDNameNode@@@Z 00000001400dda70 f i libvcruntimed:undname.obj
 0001:000dcb20       ??$append@VDNameStatusNode@@@DName@@AEAAXPEBVDNameStatusNode@@@Z 00000001400ddb20 f i libvcruntimed:undname.obj
 0001:000dcbd0       ??$append@VcharNode@@@DName@@AEAAXPEBVcharNode@@@Z 00000001400ddbd0 f i libvcruntimed:undname.obj
 0001:000dcc80       ??$append@VpDNameNode@@@DName@@AEAAXPEBVpDNameNode@@@Z 00000001400ddc80 f i libvcruntimed:undname.obj
 0001:000dcd30       ??$append@VpcharNode@@@DName@@AEAAXPEBVpcharNode@@@Z 00000001400ddd30 f i libvcruntimed:undname.obj
 0001:000dcde0       ??$doPchar@$00@DName@@AEAAXPEBDH@Z 00000001400ddde0 f i libvcruntimed:undname.obj
 0001:000dcf40       ??$doPchar@$01@DName@@AEAAXPEBDH@Z 00000001400ddf40 f i libvcruntimed:undname.obj
 0001:000dd0a0       ??$doPchar@$0A@@DName@@AEAAXPEBDH@Z 00000001400de0a0 f i libvcruntimed:undname.obj
 0001:000dd200       ??$forward@_K@std@@YA$$QEA_KAEA_K@Z 00000001400de200 f i libvcruntimed:undname.obj
 0001:000dd210       ??$size@D$04@std@@YA_KAEAY04$$CBD@Z 00000001400de210 f i libvcruntimed:undname.obj
 0001:000dd220       ??$size@D$0EB@@std@@YA_KAEAY0EB@$$CBD@Z 00000001400de220 f i libvcruntimed:undname.obj
 0001:000dd230       ??0?$_Optional_construct_base@_K@std@@QEAA@XZ 00000001400de230 f i libvcruntimed:undname.obj
 0001:000dd250       ??0?$_Optional_destruct_base@_K$00@std@@QEAA@XZ 00000001400de250 f i libvcruntimed:undname.obj
 0001:000dd280       ??0?$optional@_K@std@@QEAA@XZ 00000001400de280 f i libvcruntimed:undname.obj
 0001:000dd2a0       ??0Block@_HeapManager@@QEAA@XZ 00000001400de2a0 f i libvcruntimed:undname.obj
 0001:000dd2c0       ??0DName@@QEAA@AEAPEBDD@Z  00000001400de2c0 f   libvcruntimed:undname.obj
 0001:000dd490       ??0DName@@QEAA@AEBUStringLiteral@@@Z 00000001400de490 f   libvcruntimed:undname.obj
 0001:000dd4f0       ??0DName@@QEAA@AEBV0@@Z    00000001400de4f0 f i libvcruntimed:undname.obj
 0001:000dd520       ??0DName@@QEAA@D@Z         00000001400de520 f   libvcruntimed:undname.obj
 0001:000dd560       ??0DName@@QEAA@PEAV0@@Z    00000001400de560 f   libvcruntimed:undname.obj
 0001:000dd640       ??0DName@@QEAA@W4DNameStatus@@@Z 00000001400de640 f   libvcruntimed:undname.obj
 0001:000dd6f0       ??0DName@@QEAA@XZ          00000001400de6f0 f i libvcruntimed:undname.obj
 0001:000dd720       ??0DName@@QEAA@_J@Z        00000001400de720 f   libvcruntimed:undname.obj
 0001:000dd830       ??0DName@@QEAA@_K@Z        00000001400de830 f   libvcruntimed:undname.obj
 0001:000dd900       ??0DNameNode@@IEAA@XZ      00000001400de900 f i libvcruntimed:undname.obj
 0001:000dd920       ??0Replicator@@QEAA@XZ     00000001400de920 f i libvcruntimed:undname.obj
 0001:000dd960       ??0UnDecorator@@QEAA@PEBDP6APEADJ@ZK@Z 00000001400de960 f i libvcruntimed:undname.obj
 0001:000dda10       ??0_Nontrivial_dummy_type@std@@QEAA@XZ 00000001400dea10 f i libvcruntimed:undname.obj
 0001:000dda20       ??0charNode@@QEAA@D@Z      00000001400dea20 f i libvcruntimed:undname.obj
 0001:000dda60       ??0pDNameNode@@QEAA@PEAVDName@@@Z 00000001400dea60 f   libvcruntimed:undname.obj
 0001:000ddae0       ??0pairNode@@QEAA@PEBVDNameNode@@0@Z 00000001400deae0 f i libvcruntimed:undname.obj
 0001:000ddb60       ??2@YAPEAX_KAEAV_HeapManager@@H@Z 00000001400deb60 f   libvcruntimed:undname.obj
 0001:000ddbc0       ??4DName@@QEAAAEAV0@AEBUStringLiteral@@@Z 00000001400debc0 f   libvcruntimed:undname.obj
 0001:000ddc10       ??4DName@@QEAAAEAV0@AEBV0@@Z 00000001400dec10 f   libvcruntimed:undname.obj
 0001:000ddc40       ??4DName@@QEAAAEAV0@D@Z    00000001400dec40 f i libvcruntimed:undname.obj
 0001:000ddc80       ??4DName@@QEAAAEAV0@PEAV0@@Z 00000001400dec80 f   libvcruntimed:undname.obj
 0001:000ddd50       ??4DName@@QEAAAEAV0@W4DNameStatus@@@Z 00000001400ded50 f   libvcruntimed:undname.obj
 0001:000ddde0       ??AReplicator@@QEBA?AVDName@@H@Z 00000001400dede0 f   libvcruntimed:undname.obj
 0001:000dde70       ??B?$optional@_K@std@@QEBA_NXZ 00000001400dee70 f i libvcruntimed:undname.obj
 0001:000dde80       ??D?$optional@_K@std@@QEGAAAEA_KXZ 00000001400dee80 f i libvcruntimed:undname.obj
 0001:000dde90       ??H@YA?AVDName@@AEBUStringLiteral@@AEBV0@@Z 00000001400dee90 f i libvcruntimed:undname.obj
 0001:000ddee0       ??H@YA?AVDName@@DAEBV0@@Z  00000001400deee0 f i libvcruntimed:undname.obj
 0001:000ddf30       ??H@YA?AVDName@@W4DNameStatus@@AEBV0@@Z 00000001400def30 f i libvcruntimed:undname.obj
 0001:000ddf80       ??HDName@@QEBA?AV0@AEBUStringLiteral@@@Z 00000001400def80 f   libvcruntimed:undname.obj
 0001:000ddfd0       ??HDName@@QEBA?AV0@AEBV0@@Z 00000001400defd0 f   libvcruntimed:undname.obj
 0001:000de020       ??HDName@@QEBA?AV0@D@Z     00000001400df020 f   libvcruntimed:undname.obj
 0001:000de070       ??HDName@@QEBA?AV0@PEAV0@@Z 00000001400df070 f   libvcruntimed:undname.obj
 0001:000de0c0       ??HDName@@QEBA?AV0@W4DNameStatus@@@Z 00000001400df0c0 f   libvcruntimed:undname.obj
 0001:000de110       ??HStringLiteral@@QEBA?AU0@H@Z 00000001400df110 f i libvcruntimed:undname.obj
 0001:000de150       ??YDName@@QEAAAEAV0@AEBUStringLiteral@@@Z 00000001400df150 f   libvcruntimed:undname.obj
 0001:000de220       ??YDName@@QEAAAEAV0@AEBV0@@Z 00000001400df220 f   libvcruntimed:undname.obj
 0001:000de2e0       ??YDName@@QEAAAEAV0@D@Z    00000001400df2e0 f   libvcruntimed:undname.obj
 0001:000de380       ??YDName@@QEAAAEAV0@PEAV0@@Z 00000001400df380 f   libvcruntimed:undname.obj
 0001:000de460       ??YDName@@QEAAAEAV0@W4DNameStatus@@@Z 00000001400df460 f   libvcruntimed:undname.obj
 0001:000de4d0       ??YReplicator@@QEAAAEAV0@AEBVDName@@@Z 00000001400df4d0 f   libvcruntimed:undname.obj
 0001:000de590       ??_5DName@@QEAAAEAV0@AEBV0@@Z 00000001400df590 f   libvcruntimed:undname.obj
 0001:000de600       ??__K_l@@YA?AUStringLiteral@@PEBD_K@Z 00000001400df600 f i libvcruntimed:undname.obj
 0001:000de650       ?Constructor@_HeapManager@@QEAAXP6APEAX_K@ZP6AXPEAX@Z@Z 00000001400df650 f i libvcruntimed:undname.obj
 0001:000de6b0       ?Destructor@_HeapManager@@QEAAXXZ 00000001400df6b0 f i libvcruntimed:undname.obj
 0001:000de750       ?UScore@UnDecorator@@SA?AUStringLiteral@@W4Tokens@@@Z 00000001400df750 f   libvcruntimed:undname.obj
 0001:000de7e0       ?composeDeclaration@UnDecorator@@CA?AVDName@@AEBV2@@Z 00000001400df7e0 f i libvcruntimed:undname.obj
 0001:000e0ce0       ?dbGetString@DName@@QEBAPEADXZ 00000001400e1ce0 f   libvcruntimed:undname.obj
 0001:000e0d10       ?doAccessSpecifiers@UnDecorator@@SAHXZ 00000001400e1d10 f i libvcruntimed:undname.obj
 0001:000e0d40       ?doAllocationLanguage@UnDecorator@@SAHXZ 00000001400e1d40 f i libvcruntimed:undname.obj
 0001:000e0d70       ?doAllocationModel@UnDecorator@@SAHXZ 00000001400e1d70 f i libvcruntimed:undname.obj
 0001:000e0da0       ?doEcsu@UnDecorator@@SAHXZ 00000001400e1da0 f i libvcruntimed:undname.obj
 0001:000e0dd0       ?doEllipsis@UnDecorator@@SAHXZ 00000001400e1dd0 f i libvcruntimed:undname.obj
 0001:000e0e00       ?doFunctionReturns@UnDecorator@@SAHXZ 00000001400e1e00 f i libvcruntimed:undname.obj
 0001:000e0e30       ?doMSKeywords@UnDecorator@@SAHXZ 00000001400e1e30 f i libvcruntimed:undname.obj
 0001:000e0e60       ?doMemberTypes@UnDecorator@@SAHXZ 00000001400e1e60 f i libvcruntimed:undname.obj
 0001:000e0e90       ?doNameOnly@UnDecorator@@SAHXZ 00000001400e1e90 f i libvcruntimed:undname.obj
 0001:000e0ea0       ?doNoIdentCharCheck@UnDecorator@@SAHXZ 00000001400e1ea0 f i libvcruntimed:undname.obj
 0001:000e0eb0       ?doPchar@DName@@AEAAXD@Z   00000001400e1eb0 f   libvcruntimed:undname.obj
 0001:000e0f40       ?doPtr64@UnDecorator@@SAHXZ 00000001400e1f40 f i libvcruntimed:undname.obj
 0001:000e0f70       ?doRestrictionSpec@UnDecorator@@SAHXZ 00000001400e1f70 f i libvcruntimed:undname.obj
 0001:000e0fa0       ?doThisTypes@UnDecorator@@SAHXZ 00000001400e1fa0 f i libvcruntimed:undname.obj
 0001:000e0fd0       ?doThrowTypes@UnDecorator@@SAHXZ 00000001400e1fd0 f i libvcruntimed:undname.obj
 0001:000e1000       ?doTypeOnly@UnDecorator@@SAHXZ 00000001400e2000 f i libvcruntimed:undname.obj
 0001:000e1010       ?doUnderScore@UnDecorator@@SAHXZ 00000001400e2010 f i libvcruntimed:undname.obj
 0001:000e1040       ?getArgumentList@UnDecorator@@CA?AVDName@@XZ 00000001400e2040 f   libvcruntimed:undname.obj
 0001:000e11e0       ?getArgumentTypes@UnDecorator@@CA?AVDName@@XZ 00000001400e21e0 f   libvcruntimed:undname.obj
 0001:000e1540       ?getArrayObject@UnDecorator@@CA?AVDName@@XZ 00000001400e2540 f   libvcruntimed:undname.obj
 0001:000e1660       ?getArrayType@UnDecorator@@CA?AVDName@@AEBV2@@Z 00000001400e2660 f i libvcruntimed:undname.obj
 0001:000e1a20       ?getBasedType@UnDecorator@@CA?AVDName@@XZ 00000001400e2a20 f   libvcruntimed:undname.obj
 0001:000e1b90       ?getBasicDataType@UnDecorator@@CA?AVDName@@AEBV2@@Z 00000001400e2b90 f   libvcruntimed:undname.obj
 0001:000e2860       ?getCHPEName@UnDecorator@@QEAAPEADPEADH@Z 00000001400e3860 f i libvcruntimed:undname.obj
 0001:000e2a30       ?getCallIndex@UnDecorator@@CA?AVDName@@XZ 00000001400e3a30 f i libvcruntimed:undname.obj
 0001:000e2a50       ?getCallingConvention@UnDecorator@@CA?AVDName@@XZ 00000001400e3a50 f   libvcruntimed:undname.obj
 0001:000e2df0       ?getDataIndirectType@UnDecorator@@CA?AVDName@@AEBV2@W4IndirectionKind@@0H@Z 00000001400e3df0 f   libvcruntimed:undname.obj
 0001:000e3a90       ?getDataIndirectType@UnDecorator@@CA?AVDName@@XZ 00000001400e4a90 f i libvcruntimed:undname.obj
 0001:000e3ae0       ?getDataType@UnDecorator@@CA?AVDName@@PEAV2@@Z 00000001400e4ae0 f   libvcruntimed:undname.obj
 0001:000e3cc0       ?getDecoratedName@UnDecorator@@CA?AVDName@@XZ 00000001400e4cc0 f   libvcruntimed:undname.obj
 0001:000e41b0       ?getDimension@UnDecorator@@CA?AVDName@@_N@Z 00000001400e51b0 f   libvcruntimed:undname.obj
 0001:000e44c0       ?getDispatchTarget@UnDecorator@@CA?AVDName@@XZ 00000001400e54c0 f   libvcruntimed:undname.obj
 0001:000e4590       ?getDisplacement@UnDecorator@@CA?AVDName@@XZ 00000001400e5590 f i libvcruntimed:undname.obj
 0001:000e45b0       ?getECSUDataType@UnDecorator@@CA?AVDName@@XZ 00000001400e55b0 f   libvcruntimed:undname.obj
 0001:000e4940       ?getECSUName@UnDecorator@@CA?AVDName@@XZ 00000001400e5940 f i libvcruntimed:undname.obj
 0001:000e4960       ?getEnumType@UnDecorator@@CA?AVDName@@XZ 00000001400e5960 f i libvcruntimed:undname.obj
 0001:000e4bf0       ?getExtendedDataIndirectType@UnDecorator@@CA?AVDName@@AEAW4IndirectionKind@@AEA_NH@Z 00000001400e5bf0 f   libvcruntimed:undname.obj
 0001:000e4f10       ?getExternalDataType@UnDecorator@@CA?AVDName@@AEBV2@@Z 00000001400e5f10 f i libvcruntimed:undname.obj
 0001:000e4ff0       ?getFloatingPoint@UnDecorator@@CA?AVDName@@H@Z 00000001400e5ff0 f   libvcruntimed:undname.obj
 0001:000e5260       ?getFunctionIndirectType@UnDecorator@@CA?AVDName@@AEBV2@@Z 00000001400e6260 f   libvcruntimed:undname.obj
 0001:000e5890       ?getGuardNumber@UnDecorator@@CA?AVDName@@XZ 00000001400e6890 f i libvcruntimed:undname.obj
 0001:000e58b0       ?getLastChar@DName@@QEBADXZ 00000001400e68b0 f i libvcruntimed:undname.obj
 0001:000e5900       ?getLastChar@DNameStatusNode@@UEBADXZ 00000001400e6900 f i libvcruntimed:undname.obj
 0001:000e5940       ?getLastChar@charNode@@UEBADXZ 00000001400e6940 f i libvcruntimed:undname.obj
 0001:000e5950       ?getLastChar@pDNameNode@@UEBADXZ 00000001400e6950 f i libvcruntimed:undname.obj
 0001:000e5990       ?getLastChar@pairNode@@UEBADXZ 00000001400e6990 f i libvcruntimed:undname.obj
 0001:000e5a10       ?getLastChar@pcharNode@@UEBADXZ 00000001400e6a10 f i libvcruntimed:undname.obj
 0001:000e5a50       ?getLexicalFrame@UnDecorator@@CA?AVDName@@XZ 00000001400e6a50 f i libvcruntimed:undname.obj
 0001:000e5aa0       ?getMemoryWithBuffer@_HeapManager@@QEAAPEAX_K@Z 00000001400e6aa0 f   libvcruntimed:undname.obj
 0001:000e5bf0       ?getMemoryWithoutBuffer@_HeapManager@@QEAAPEAX_K@Z 00000001400e6bf0 f   libvcruntimed:undname.obj
 0001:000e5c40       ?getNoexcept@UnDecorator@@CA?AVDName@@XZ 00000001400e6c40 f   libvcruntimed:undname.obj
 0001:000e5cf0       ?getNumberOfDimensions@UnDecorator@@CAHXZ 00000001400e6cf0 f   libvcruntimed:undname.obj
 0001:000e5e10       ?getOperatorName@UnDecorator@@CA?AVDName@@_NPEA_N@Z 00000001400e6e10 f i libvcruntimed:undname.obj
 0001:000e6d20       ?getPointerType@UnDecorator@@CA?AVDName@@AEBV2@0@Z 00000001400e7d20 f i libvcruntimed:undname.obj
 0001:000e6d60       ?getPointerTypeArray@UnDecorator@@CA?AVDName@@AEBV2@0@Z 00000001400e7d60 f i libvcruntimed:undname.obj
 0001:000e6da0       ?getPrimaryDataType@UnDecorator@@CA?AVDName@@AEBV2@@Z 00000001400e7da0 f   libvcruntimed:undname.obj
 0001:000e73d0       ?getPtrRefDataType@UnDecorator@@CA?AVDName@@AEBV2@H@Z 00000001400e83d0 f   libvcruntimed:undname.obj
 0001:000e77c0       ?getPtrRefType@UnDecorator@@CA?AVDName@@AEBV2@0W4IndirectionKind@@@Z 00000001400e87c0 f   libvcruntimed:undname.obj
 0001:000e7a00       ?getReferenceType@UnDecorator@@CA?AVDName@@AEBV2@0W4IndirectionKind@@@Z 00000001400e8a00 f i libvcruntimed:undname.obj
 0001:000e7a40       ?getRestrictionSpec@UnDecorator@@CA?AVDName@@XZ 00000001400e8a40 f   libvcruntimed:undname.obj
 0001:000e7cd0       ?getReturnType@UnDecorator@@CA?AVDName@@PEAV2@@Z 00000001400e8cd0 f   libvcruntimed:undname.obj
 0001:000e7d30       ?getScope@UnDecorator@@CA?AVDName@@XZ 00000001400e8d30 f   libvcruntimed:undname.obj
 0001:000e8480       ?getScopedName@UnDecorator@@CA?AVDName@@XZ 00000001400e9480 f   libvcruntimed:undname.obj
 0001:000e8680       ?getSignedDimension@UnDecorator@@CA?AVDName@@XZ 00000001400e9680 f   libvcruntimed:undname.obj
 0001:000e8710       ?getStorageConvention@UnDecorator@@CA?AVDName@@XZ 00000001400e9710 f i libvcruntimed:undname.obj
 0001:000e8730       ?getString@DName@@QEBAPEADPEAD0@Z 00000001400e9730 f i libvcruntimed:undname.obj
 0001:000e87b0       ?getString@DName@@QEBAPEADPEADH@Z 00000001400e97b0 f i libvcruntimed:undname.obj
 0001:000e8870       ?getString@DNameStatusNode@@UEBAPEADPEAD0@Z 00000001400e9870 f i libvcruntimed:undname.obj
 0001:000e88c0       ?getString@charNode@@UEBAPEADPEAD0@Z 00000001400e98c0 f i libvcruntimed:undname.obj
 0001:000e8900       ?getString@pDNameNode@@UEBAPEADPEAD0@Z 00000001400e9900 f i libvcruntimed:undname.obj
 0001:000e8960       ?getString@pairNode@@UEBAPEADPEAD0@Z 00000001400e9960 f i libvcruntimed:undname.obj
 0001:000e8a30       ?getString@pcharNode@@UEBAPEADPEAD0@Z 00000001400e9a30 f i libvcruntimed:undname.obj
 0001:000e8a70       ?getStringEncoding@UnDecorator@@CA?AVDName@@W4PrefixKind@@H@Z 00000001400e9a70 f   libvcruntimed:undname.obj
 0001:000e8bd0       ?getStringHelper@@YAPEADPEADPEBD1H@Z 00000001400e9bd0 f i libvcruntimed:undname.obj
 0001:000e8c40       ?getStringObject@UnDecorator@@CA?AVDName@@XZ 00000001400e9c40 f   libvcruntimed:undname.obj
 0001:000e8d20       ?getSymbolName@UnDecorator@@CA?AVDName@@XZ 00000001400e9d20 f i libvcruntimed:undname.obj
 0001:000e8dc0       ?getTemplateArgumentList@UnDecorator@@CA?AVDName@@XZ 00000001400e9dc0 f   libvcruntimed:undname.obj
 0001:000e9100       ?getTemplateName@UnDecorator@@CA?AVDName@@_N@Z 00000001400ea100 f   libvcruntimed:undname.obj
 0001:000e9340       ?getTemplateNonTypeArgument@UnDecorator@@CA?AVDName@@XZ 00000001400ea340 f   libvcruntimed:undname.obj
 0001:000e9a60       ?getTemplateTypeArgument@UnDecorator@@CA?AVDName@@XZ 00000001400eaa60 f   libvcruntimed:undname.obj
 0001:000e9cd0       ?getThisType@UnDecorator@@CA?AVDName@@XZ 00000001400eacd0 f i libvcruntimed:undname.obj
 0001:000e9d20       ?getThrowTypes@UnDecorator@@CA?AVDName@@XZ 00000001400ead20 f   libvcruntimed:undname.obj
 0001:000e9d70       ?getTypeEncoding@UnDecorator@@CAHXZ 00000001400ead70 f i libvcruntimed:undname.obj
 0001:000ea9a0       ?getUndecoratedName@UnDecorator@@QEAAPEADPEADH@Z 00000001400eb9a0 f i libvcruntimed:undname.obj
 0001:000eab90       ?getVCallThunkType@UnDecorator@@CA?AVDName@@XZ 00000001400ebb90 f i libvcruntimed:undname.obj
 0001:000eac40       ?getValue@UnDecorator@@CA?AV?$optional@_K@std@@XZ 00000001400ebc40 f   libvcruntimed:undname.obj
 0001:000ead10       ?getValueObject@UnDecorator@@CA?AVDName@@XZ 00000001400ebd10 f   libvcruntimed:undname.obj
 0001:000eaf00       ?getVbTableType@UnDecorator@@CA?AVDName@@AEBV2@@Z 00000001400ebf00 f i libvcruntimed:undname.obj
 0001:000eaf30       ?getVdispMapType@UnDecorator@@CA?AVDName@@AEBV2@@Z 00000001400ebf30 f i libvcruntimed:undname.obj
 0001:000eaff0       ?getVfTableType@UnDecorator@@CA?AVDName@@AEBV2@@Z 00000001400ebff0 f i libvcruntimed:undname.obj
 0001:000eb290       ?getZName@UnDecorator@@CA?AVDName@@_N0@Z 00000001400ec290 f   libvcruntimed:undname.obj
 0001:000eb720       ?haveTemplateParameters@UnDecorator@@SAHXZ 00000001400ec720 f i libvcruntimed:undname.obj
 0001:000eb730       ?isArray@DName@@QEBAHXZ    00000001400ec730 f i libvcruntimed:undname.obj
 0001:000eb750       ?isComArray@DName@@QEBAHXZ 00000001400ec750 f i libvcruntimed:undname.obj
 0001:000eb770       ?isEmpty@DName@@QEBAHXZ    00000001400ec770 f i libvcruntimed:undname.obj
 0001:000eb7a0       ?isFull@Replicator@@QEBAHXZ 00000001400ec7a0 f i libvcruntimed:undname.obj
 0001:000eb7d0       ?isNoTE@DName@@QEBAHXZ     00000001400ec7d0 f i libvcruntimed:undname.obj
 0001:000eb7f0       ?isPinPtr@DName@@QEBAHXZ   00000001400ec7f0 f i libvcruntimed:undname.obj
 0001:000eb810       ?isPtrRef@DName@@QEBAHXZ   00000001400ec810 f i libvcruntimed:undname.obj
 0001:000eb830       ?isUDC@DName@@QEBAHXZ      00000001400ec830 f i libvcruntimed:undname.obj
 0001:000eb880       ?isUDTThunk@DName@@QEBAHXZ 00000001400ec880 f i libvcruntimed:undname.obj
 0001:000eb8d0       ?isVCallThunk@DName@@QEBAHXZ 00000001400ec8d0 f i libvcruntimed:undname.obj
 0001:000eb8f0       ?isValid@DName@@QEBAHXZ    00000001400ec8f0 f i libvcruntimed:undname.obj
 0001:000eb930       ?length@DName@@QEBAHXZ     00000001400ec930 f i libvcruntimed:undname.obj
 0001:000eb980       ?length@DNameStatusNode@@UEBAHXZ 00000001400ec980 f i libvcruntimed:undname.obj
 0001:000eb990       ?length@charNode@@UEBAHXZ  00000001400ec990 f i libvcruntimed:undname.obj
 0001:000eb9a0       ?length@pDNameNode@@UEBAHXZ 00000001400ec9a0 f i libvcruntimed:undname.obj
 0001:000eb9e0       ?length@pairNode@@UEBAHXZ  00000001400ec9e0 f i libvcruntimed:undname.obj
 0001:000eba70       ?length@pcharNode@@UEBAHXZ 00000001400eca70 f i libvcruntimed:undname.obj
 0001:000eba80       ?make@DNameStatusNode@@SAPEBV1@W4DNameStatus@@@Z 00000001400eca80 f i libvcruntimed:undname.obj
 0001:000ebad0       ?parseDecoratedName@UnDecorator@@CA?AVDName@@XZ 00000001400ecad0 f   libvcruntimed:undname.obj
 0001:000ebcc0       ?raw_length@DNameStatusNode@@UEBAHXZ 00000001400eccc0 f i libvcruntimed:undname.obj
 0001:000ebce0       ?raw_length@charNode@@UEBAHXZ 00000001400ecce0 f i libvcruntimed:undname.obj
 0001:000ebd00       ?raw_length@pDNameNode@@UEBAHXZ 00000001400ecd00 f i libvcruntimed:undname.obj
 0001:000ebd10       ?raw_length@pairNode@@UEBAHXZ 00000001400ecd10 f i libvcruntimed:undname.obj
 0001:000ebd20       ?raw_length@pcharNode@@UEBAHXZ 00000001400ecd20 f i libvcruntimed:undname.obj
 0001:000ebd40       ?setIsArray@DName@@QEAAXXZ 00000001400ecd40 f i libvcruntimed:undname.obj
 0001:000ebd60       ?setIsComArray@DName@@QEAAXXZ 00000001400ecd60 f i libvcruntimed:undname.obj
 0001:000ebd80       ?setIsNoTE@DName@@QEAAXXZ  00000001400ecd80 f i libvcruntimed:undname.obj
 0001:000ebda0       ?setIsPinPtr@DName@@QEAAXXZ 00000001400ecda0 f i libvcruntimed:undname.obj
 0001:000ebdc0       ?setIsUDC@DName@@QEAAXXZ   00000001400ecdc0 f i libvcruntimed:undname.obj
 0001:000ebdf0       ?setIsVCallThunk@DName@@QEAAXXZ 00000001400ecdf0 f i libvcruntimed:undname.obj
 0001:000ebe10       ?setPtrRef@DName@@QEAAAEAV1@XZ 00000001400ece10 f i libvcruntimed:undname.obj
 0001:000ebe30       ?status@DName@@QEBA?AW4DNameStatus@@XZ 00000001400ece30 f i libvcruntimed:undname.obj
 0001:000ebf60       __unDName                  00000001400ecf60 f   libvcruntimed:undname.obj
 0001:000ebfc0       __unDNameEx                00000001400ecfc0 f   libvcruntimed:undname.obj
 0001:000ec080       unDNameGenerateCHPE        00000001400ed080 f   libvcruntimed:undname.obj
 0001:000ec140       __except_validate_context_record 00000001400ed140 f   libvcruntimed:jbcxrval.obj
 0001:000ec1a0       __except_validate_jump_buffer 00000001400ed1a0 f   libvcruntimed:jbcxrval.obj
 0001:000ec1c0       __except_validate_jump_buffer_common 00000001400ed1c0 f i libvcruntimed:jbcxrval.obj
 0001:000ec250       _NLG_Notify                00000001400ed250 f   libvcruntimed:notify.obj
